

Microchip MPLAB XC8 Assembler V2.05 build -831301201 
                                                                                               Thu May 23 13:59:07 2019

Microchip MPLAB XC8 C Compiler v2.05 (Free license) build 20181220022703 Og1 
     1                           	processor	18F4550
     2                           	fnconf	rparam,??,?,0
     3                           	opt	pw 120
     4                           	opt	flic
     5                           	psect	idataBANK1,global,class=CODE,delta=1,noexec
     6                           	psect	mediumconst,global,reloc=2,class=MEDIUMCONST,delta=1,noexec
     7                           	psect	cinit,global,reloc=2,class=CODE,delta=1
     8                           	psect	bssCOMRAM,global,class=COMRAM,space=1,delta=1,noexec
     9                           	psect	bssBANK0,global,class=BANK0,space=1,delta=1,lowdata,noexec
    10                           	psect	bssBANK1,global,class=BANK1,space=1,delta=1,lowdata,noexec
    11                           	psect	dataBANK1,global,class=BANK1,space=1,delta=1,lowdata,noexec
    12                           	psect	bssBANK2,global,class=BANK2,space=1,delta=1,lowdata,noexec
    13                           	psect	cstackBANK0,global,class=BANK0,space=1,delta=1,noexec
    14                           	psect	cstackCOMRAM,global,class=COMRAM,space=1,delta=1,noexec
    15                           	psect	text0,global,reloc=2,class=CODE,delta=1
    16                           	psect	text1,global,reloc=2,class=CODE,delta=1
    17                           	psect	text2,global,reloc=2,class=CODE,delta=1,group=1
    18                           	psect	text3,global,reloc=2,class=CODE,delta=1
    19                           	psect	text4,global,reloc=2,class=CODE,delta=1
    20                           	psect	text5,global,reloc=2,class=CODE,delta=1
    21                           	psect	text6,global,reloc=2,class=CODE,delta=1,group=2
    22                           	psect	text7,global,reloc=2,class=CODE,delta=1
    23                           	psect	text8,global,reloc=2,class=CODE,delta=1
    24                           	psect	text9,global,reloc=2,class=CODE,delta=1,group=2
    25                           	psect	text10,global,reloc=2,class=CODE,delta=1
    26                           	psect	text11,global,reloc=2,class=CODE,delta=1,group=2
    27                           	psect	text12,global,reloc=2,class=CODE,delta=1,group=2
    28                           	psect	text13,global,reloc=2,class=CODE,delta=1,group=2
    29                           	psect	text14,global,reloc=2,class=CODE,delta=1,group=2
    30                           	psect	text15,global,reloc=2,class=CODE,delta=1,group=2
    31                           	psect	text16,global,reloc=2,class=CODE,delta=1,group=1
    32                           	psect	text17,global,reloc=2,class=CODE,delta=1,group=1
    33                           	psect	text18,global,reloc=2,class=CODE,delta=1,group=1
    34                           	psect	text19,global,reloc=2,class=CODE,delta=1,group=1
    35                           	psect	text20,global,reloc=2,class=CODE,delta=1,group=1
    36                           	psect	text21,global,reloc=2,class=CODE,delta=1,group=1
    37                           	psect	text22,global,reloc=2,class=CODE,delta=1,group=1
    38                           	psect	text23,global,reloc=2,class=CODE,delta=1,group=1
    39                           	psect	text24,global,reloc=2,class=CODE,delta=1,group=1
    40                           	psect	text25,global,reloc=2,class=CODE,delta=1,group=1
    41                           	psect	text26,global,reloc=2,class=CODE,delta=1
    42                           	psect	text27,global,reloc=2,class=CODE,delta=1,group=2
    43                           	psect	text28,global,reloc=2,class=CODE,delta=1,group=1
    44                           	psect	text29,global,reloc=2,class=CODE,delta=1,group=1
    45                           	psect	text30,global,reloc=2,class=CODE,delta=1
    46                           	psect	text31,global,reloc=2,class=CODE,delta=1
    47                           	psect	text32,global,reloc=2,class=CODE,delta=1,group=2
    48                           	psect	text33,global,reloc=2,class=CODE,delta=1,group=2
    49                           	psect	text34,global,reloc=2,class=CODE,delta=1,group=2
    50                           	psect	text35,global,reloc=2,class=CODE,delta=1,group=2
    51                           	psect	text36,global,reloc=2,class=CODE,delta=1,group=2
    52                           	psect	text37,global,reloc=2,class=CODE,delta=1,group=2
    53                           	psect	text38,global,reloc=2,class=CODE,delta=1,group=2
    54                           	psect	text39,global,reloc=2,class=CODE,delta=1,group=1
    55                           	psect	text40,global,reloc=2,class=CODE,delta=1
    56                           	psect	text41,global,reloc=2,class=CODE,delta=1
    57                           	psect	text42,global,reloc=2,class=CODE,delta=1
    58                           	psect	text43,global,reloc=2,class=CODE,delta=1
    59                           	psect	text44,global,reloc=2,class=CODE,delta=1
    60                           	psect	text45,global,reloc=2,class=CODE,delta=1
    61                           	psect	text46,global,reloc=2,class=CODE,delta=1,group=1
    62                           	psect	text47,global,reloc=2,class=CODE,delta=1
    63                           	psect	text48,global,reloc=2,class=CODE,delta=1
    64                           	psect	intcode,global,reloc=2,class=CODE,delta=1
    65                           	psect	intcode_body,global,reloc=2,class=CODE,delta=1
    66                           	psect	text50,global,reloc=2,class=CODE,delta=1
    67                           	psect	intsave_regs,global,class=BIGRAM,space=1,delta=1,noexec
    68                           	psect	rparam,global,class=COMRAM,space=1,delta=1,noexec
    69                           	psect	temp,global,ovrld,common,class=COMRAM,space=1,delta=1
    70  0000                     
    71                           ; Version 2.05
    72                           ; Generated 20/12/2018 GMT
    73                           ; 
    74                           ; Copyright © 2018, Microchip Technology Inc. and its subsidiaries ("Microchip")
    75                           ; All rights reserved.
    76                           ; 
    77                           ; This software is developed by Microchip Technology Inc. and its subsidiaries ("Microch
      +                          ip").
    78                           ; 
    79                           ; Redistribution and use in source and binary forms, with or without modification, are
    80                           ; permitted provided that the following conditions are met:
    81                           ; 
    82                           ;     1. Redistributions of source code must retain the above copyright notice, this lis
      +                          t of
    83                           ;        conditions and the following disclaimer.
    84                           ; 
    85                           ;     2. Redistributions in binary form must reproduce the above copyright notice, this 
      +                          list
    86                           ;        of conditions and the following disclaimer in the documentation and/or other
    87                           ;        materials provided with the distribution.
    88                           ; 
    89                           ;     3. Microchip's name may not be used to endorse or promote products derived from th
      +                          is
    90                           ;        software without specific prior written permission.
    91                           ; 
    92                           ; THIS SOFTWARE IS PROVIDED BY MICROCHIP "AS IS" AND ANY EXPRESS OR IMPLIED WARRANTIES,
    93                           ; INCLUDING, BUT NOT LIMITED TO, THE IMPLIED WARRANTIES OF MERCHANTABILITY AND FITNESS F
      +                          OR
    94                           ; PURPOSE ARE DISCLAIMED.  IN NO EVENT SHALL MICROCHIP BE LIABLE FOR ANY DIRECT, INDIREC
      +                          T,
    95                           ; INCIDENTAL, SPECIAL, EXEMPLARY, OR CONSEQUENTIAL DAMAGES (INCLUDING BUT NOT LIMITED TO
    96                           ; PROCUREMENT OF SUBSTITUTE GOODS OR SERVICES; LOSS OF USE, DATA OR PROFITS; OR BUSINESS
    97                           ; INTERRUPTION) HOWSOEVER CAUSED AND ON ANY THEORY OF LIABILITY, WHETHER IN CONTRACT, ST
      +                          RICT
    98                           ; LIABILITY, OR TORT (INCLUDING NEGLIGENCE OR OTHERWISE) ARISING IN ANY WAY OUT OF THE U
      +                          SE OF
    99                           ; THIS SOFTWARE, EVEN IF ADVISED OF THE POSSIBILITY OF SUCH DAMAGE.
   100                           ; 
   101                           ; 
   102                           ; Code-generator required, PIC18F4550 Definitions
   103                           ; 
   104                           ; SFR Addresses
   105  0000                     
   106                           	psect	idataBANK1
   107  004B40                     __pidataBANK1:
   108                           	opt callstack 0
   109                           
   110                           ;initializer for _P_normal
   111  004B40  0000               	dw	0
   112  004B42  437A               	dw	17274
   113                           
   114                           ;initializer for _P_jacuzzi
   115  004B44  0000               	dw	0
   116  004B46  43E1               	dw	17377
   117                           
   118                           ;initializer for _P_Master
   119  004B48  0000               	dw	0
   120  004B4A  43FA               	dw	17402
   121  0000                     _PIR1bits	set	3998
   122  0000                     _PORTBbits	set	3969
   123  0000                     _PORTAbits	set	3968
   124  0000                     _LATE	set	3981
   125  0000                     _PORTB	set	3969
   126  0000                     _LATCbits	set	3979
   127  0000                     _TRISAbits	set	3986
   128  0000                     _TRISE	set	3990
   129  0000                     _TRISB	set	3987
   130  0000                     _ADCON1	set	4033
   131  0000                     _INTCON2bits	set	4081
   132  0000                     _RCREG	set	4014
   133  0000                     _TXREG	set	4013
   134  0000                     _PIE1bits	set	3997
   135  0000                     _INTCONbits	set	4082
   136  0000                     _RCSTAbits	set	4011
   137  0000                     _BAUDCONbits	set	4024
   138  0000                     _TXSTAbits	set	4012
   139  0000                     _SPBRG	set	4015
   140  0000                     _TRISCbits	set	3988
   141  0000                     _PORTDbits	set	3971
   142  0000                     _TRISDbits	set	3989
   143                           
   144                           	psect	mediumconst
   145  007D3C                     __pmediumconst:
   146                           	opt callstack 0
   147  007D3C  00                 	db	0
   148  007D3D                     STR_7:
   149  007D3D  4E                 	db	78	;'N'
   150  007D3E  6F                 	db	111	;'o'
   151  007D3F  72                 	db	114	;'r'
   152  007D40  6D                 	db	109	;'m'
   153  007D41  61                 	db	97	;'a'
   154  007D42  6C                 	db	108	;'l'
   155  007D43  20                 	db	32
   156  007D44  20                 	db	32
   157  007D45  6A                 	db	106	;'j'
   158  007D46  61                 	db	97	;'a'
   159  007D47  63                 	db	99	;'c'
   160  007D48  75                 	db	117	;'u'
   161  007D49  7A                 	db	122	;'z'
   162  007D4A  7A                 	db	122	;'z'
   163  007D4B  69                 	db	105	;'i'
   164  007D4C  20                 	db	32
   165  007D4D  00                 	db	0
   166  007D4E                     STR_6:
   167  007D4E  64                 	db	100	;'d'
   168  007D4F  65                 	db	101	;'e'
   169  007D50  20                 	db	32
   170  007D51  68                 	db	104	;'h'
   171  007D52  61                 	db	97	;'a'
   172  007D53  62                 	db	98	;'b'
   173  007D54  69                 	db	105	;'i'
   174  007D55  74                 	db	116	;'t'
   175  007D56  61                 	db	97	;'a'
   176  007D57  63                 	db	99	;'c'
   177  007D58  69                 	db	105	;'i'
   178  007D59  6F                 	db	111	;'o'
   179  007D5A  6E                 	db	110	;'n'
   180  007D5B  65                 	db	101	;'e'
   181  007D5C  73                 	db	115	;'s'
   182  007D5D  20                 	db	32
   183  007D5E  00                 	db	0
   184  007D5F                     STR_5:
   185  007D5F  54                 	db	84	;'T'
   186  007D60  65                 	db	101	;'e'
   187  007D61  6E                 	db	110	;'n'
   188  007D62  65                 	db	101	;'e'
   189  007D63  6D                 	db	109	;'m'
   190  007D64  6F                 	db	111	;'o'
   191  007D65  73                 	db	115	;'s'
   192  007D66  20                 	db	32
   193  007D67  33                 	db	51	;'3'
   194  007D68  20                 	db	32
   195  007D69  74                 	db	116	;'t'
   196  007D6A  69                 	db	105	;'i'
   197  007D6B  70                 	db	112	;'p'
   198  007D6C  6F                 	db	111	;'o'
   199  007D6D  73                 	db	115	;'s'
   200  007D6E  20                 	db	32
   201  007D6F  00                 	db	0
   202  007D70                     STR_10:
   203  007D70  4A                 	db	74	;'J'
   204  007D71  61                 	db	97	;'a'
   205  007D72  63                 	db	99	;'c'
   206  007D73  75                 	db	117	;'u'
   207  007D74  7A                 	db	122	;'z'
   208  007D75  7A                 	db	122	;'z'
   209  007D76  69                 	db	105	;'i'
   210  007D77  20                 	db	32
   211  007D78  61                 	db	97	;'a'
   212  007D79  20                 	db	32
   213  007D7A  24                 	db	36
   214  007D7B  34                 	db	52	;'4'
   215  007D7C  35                 	db	53	;'5'
   216  007D7D  30                 	db	48	;'0'
   217  007D7E  20                 	db	32
   218  007D7F  00                 	db	0
   219  007D80                     STR_3:
   220  007D80  51                 	db	81	;'Q'
   221  007D81  75                 	db	117	;'u'
   222  007D82  65                 	db	101	;'e'
   223  007D83  20                 	db	32
   224  007D84  68                 	db	104	;'h'
   225  007D85  61                 	db	97	;'a'
   226  007D86  62                 	db	98	;'b'
   227  007D87  69                 	db	105	;'i'
   228  007D88  74                 	db	116	;'t'
   229  007D89  61                 	db	97	;'a'
   230  007D8A  63                 	db	99	;'c'
   231  007D8B  69                 	db	105	;'i'
   232  007D8C  6F                 	db	111	;'o'
   233  007D8D  6E                 	db	110	;'n'
   234  007D8E  20                 	db	32
   235  007D8F  00                 	db	0
   236  007D90                     STR_24:
   237  007D90  2A                 	db	42
   238  007D91  2A                 	db	42
   239  007D92  2A                 	db	42
   240  007D93  2A                 	db	42
   241  007D94  2A                 	db	42
   242  007D95  2A                 	db	42
   243  007D96  2A                 	db	42
   244  007D97  2A                 	db	42
   245  007D98  2A                 	db	42
   246  007D99  2A                 	db	42
   247  007D9A  2A                 	db	42
   248  007D9B  2A                 	db	42
   249  007D9C  2A                 	db	42
   250  007D9D  2A                 	db	42
   251  007D9E  2A                 	db	42
   252  007D9F  00                 	db	0
   253  007DA0                     STR_45:
   254  007DA0  48                 	db	72	;'H'
   255  007DA1  61                 	db	97	;'a'
   256  007DA2  62                 	db	98	;'b'
   257  007DA3  69                 	db	105	;'i'
   258  007DA4  74                 	db	116	;'t'
   259  007DA5  61                 	db	97	;'a'
   260  007DA6  63                 	db	99	;'c'
   261  007DA7  69                 	db	105	;'i'
   262  007DA8  6F                 	db	111	;'o'
   263  007DA9  6E                 	db	110	;'n'
   264  007DAA  65                 	db	101	;'e'
   265  007DAB  73                 	db	115	;'s'
   266  007DAC  20                 	db	32
   267  007DAD  64                 	db	100	;'d'
   268  007DAE  65                 	db	101	;'e'
   269  007DAF  00                 	db	0
   270  007DB0                     STR_72:
   271  007DB0  44                 	db	68	;'D'
   272  007DB1  69                 	db	105	;'i'
   273  007DB2  6E                 	db	110	;'n'
   274  007DB3  65                 	db	101	;'e'
   275  007DB4  72                 	db	114	;'r'
   276  007DB5  6F                 	db	111	;'o'
   277  007DB6  20                 	db	32
   278  007DB7  79                 	db	121	;'y'
   279  007DB8  20                 	db	32
   280  007DB9  72                 	db	114	;'r'
   281  007DBA  61                 	db	97	;'a'
   282  007DBB  70                 	db	112	;'p'
   283  007DBC  69                 	db	105	;'i'
   284  007DBD  64                 	db	100	;'d'
   285  007DBE  6F                 	db	111	;'o'
   286  007DBF  00                 	db	0
   287  007DC0                     STR_9:
   288  007DC0  4E                 	db	78	;'N'
   289  007DC1  6F                 	db	111	;'o'
   290  007DC2  72                 	db	114	;'r'
   291  007DC3  6D                 	db	109	;'m'
   292  007DC4  61                 	db	97	;'a'
   293  007DC5  6C                 	db	108	;'l'
   294  007DC6  20                 	db	32
   295  007DC7  61                 	db	97	;'a'
   296  007DC8  20                 	db	32
   297  007DC9  24                 	db	36
   298  007DCA  32                 	db	50	;'2'
   299  007DCB  35                 	db	53	;'5'
   300  007DCC  30                 	db	48	;'0'
   301  007DCD  20                 	db	32
   302  007DCE  00                 	db	0
   303  007DCF                     STR_1:
   304  007DCF  42                 	db	66	;'B'
   305  007DD0  69                 	db	105	;'i'
   306  007DD1  65                 	db	101	;'e'
   307  007DD2  6E                 	db	110	;'n'
   308  007DD3  76                 	db	118	;'v'
   309  007DD4  65                 	db	101	;'e'
   310  007DD5  6E                 	db	110	;'n'
   311  007DD6  69                 	db	105	;'i'
   312  007DD7  64                 	db	100	;'d'
   313  007DD8  6F                 	db	111	;'o'
   314  007DD9  20                 	db	32
   315  007DDA  61                 	db	97	;'a'
   316  007DDB  6C                 	db	108	;'l'
   317  007DDC  20                 	db	32
   318  007DDD  00                 	db	0
   319  007DDE                     STR_2:
   320  007DDE  4D                 	db	77	;'M'
   321  007DDF  4F                 	db	79	;'O'
   322  007DE0  54                 	db	84	;'T'
   323  007DE1  45                 	db	69	;'E'
   324  007DE2  4C                 	db	76	;'L'
   325  007DE3  20                 	db	32
   326  007DE4  4C                 	db	76	;'L'
   327  007DE5  41                 	db	65	;'A'
   328  007DE6  20                 	db	32
   329  007DE7  4D                 	db	77	;'M'
   330  007DE8  49                 	db	73	;'I'
   331  007DE9  4C                 	db	76	;'L'
   332  007DEA  50                 	db	80	;'P'
   333  007DEB  41                 	db	65	;'A'
   334  007DEC  00                 	db	0
   335  007DED                     STR_39:
   336  007DED  53                 	db	83	;'S'
   337  007DEE  41                 	db	65	;'A'
   338  007DEF  4C                 	db	76	;'L'
   339  007DF0  41                 	db	65	;'A'
   340  007DF1  20                 	db	32
   341  007DF2  44                 	db	68	;'D'
   342  007DF3  45                 	db	69	;'E'
   343  007DF4  20                 	db	32
   344  007DF5  45                 	db	69	;'E'
   345  007DF6  53                 	db	83	;'S'
   346  007DF7  50                 	db	80	;'P'
   347  007DF8  45                 	db	69	;'E'
   348  007DF9  52                 	db	82	;'R'
   349  007DFA  41                 	db	65	;'A'
   350  007DFB  00                 	db	0
   351  007DFC                     STR_11:
   352  007DFC  4D                 	db	77	;'M'
   353  007DFD  61                 	db	97	;'a'
   354  007DFE  73                 	db	115	;'s'
   355  007DFF  74                 	db	116	;'t'
   356  007E00  65                 	db	101	;'e'
   357  007E01  72                 	db	114	;'r'
   358  007E02  20                 	db	32
   359  007E03  73                 	db	115	;'s'
   360  007E04  75                 	db	117	;'u'
   361  007E05  69                 	db	105	;'i'
   362  007E06  74                 	db	116	;'t'
   363  007E07  65                 	db	101	;'e'
   364  007E08  20                 	db	32
   365  007E09  61                 	db	97	;'a'
   366  007E0A  00                 	db	0
   367  007E0B                     STR_16:
   368  007E0B  44                 	db	68	;'D'
   369  007E0C  69                 	db	105	;'i'
   370  007E0D  73                 	db	115	;'s'
   371  007E0E  70                 	db	112	;'p'
   372  007E0F  6C                 	db	108	;'l'
   373  007E10  6F                 	db	111	;'o'
   374  007E11  6E                 	db	110	;'n'
   375  007E12  69                 	db	105	;'i'
   376  007E13  62                 	db	98	;'b'
   377  007E14  6C                 	db	108	;'l'
   378  007E15  65                 	db	101	;'e'
   379  007E16  3A                 	db	58	;':'
   380  007E17  25                 	db	37
   381  007E18  64                 	db	100	;'d'
   382  007E19  00                 	db	0
   383  007E1A                     STR_21:
   384  007E1A  45                 	db	69	;'E'
   385  007E1B  73                 	db	115	;'s'
   386  007E1C  63                 	db	99	;'c'
   387  007E1D  20                 	db	32
   388  007E1E  48                 	db	72	;'H'
   389  007E1F  61                 	db	97	;'a'
   390  007E20  62                 	db	98	;'b'
   391  007E21  69                 	db	105	;'i'
   392  007E22  74                 	db	116	;'t'
   393  007E23  61                 	db	97	;'a'
   394  007E24  63                 	db	99	;'c'
   395  007E25  69                 	db	105	;'i'
   396  007E26  6F                 	db	111	;'o'
   397  007E27  6E                 	db	110	;'n'
   398  007E28  00                 	db	0
   399  007E29                     STR_34:
   400  007E29  43                 	db	67	;'C'
   401  007E2A  68                 	db	104	;'h'
   402  007E2B  65                 	db	101	;'e'
   403  007E2C  63                 	db	99	;'c'
   404  007E2D  61                 	db	97	;'a'
   405  007E2E  72                 	db	114	;'r'
   406  007E2F  65                 	db	101	;'e'
   407  007E30  6D                 	db	109	;'m'
   408  007E31  6F                 	db	111	;'o'
   409  007E32  73                 	db	115	;'s'
   410  007E33  20                 	db	32
   411  007E34  6C                 	db	108	;'l'
   412  007E35  61                 	db	97	;'a'
   413  007E36  73                 	db	115	;'s'
   414  007E37  00                 	db	0
   415  007E38                     STR_76:
   416  007E38  47                 	db	71	;'G'
   417  007E39  72                 	db	114	;'r'
   418  007E3A  61                 	db	97	;'a'
   419  007E3B  63                 	db	99	;'c'
   420  007E3C  69                 	db	105	;'i'
   421  007E3D  61                 	db	97	;'a'
   422  007E3E  73                 	db	115	;'s'
   423  007E3F  20                 	db	32
   424  007E40  70                 	db	112	;'p'
   425  007E41  6F                 	db	111	;'o'
   426  007E42  72                 	db	114	;'r'
   427  007E43  20                 	db	32
   428  007E44  73                 	db	115	;'s'
   429  007E45  75                 	db	117	;'u'
   430  007E46  00                 	db	0
   431  007E47                     STR_8:
   432  007E47  4D                 	db	77	;'M'
   433  007E48  61                 	db	97	;'a'
   434  007E49  73                 	db	115	;'s'
   435  007E4A  74                 	db	116	;'t'
   436  007E4B  65                 	db	101	;'e'
   437  007E4C  72                 	db	114	;'r'
   438  007E4D  20                 	db	32
   439  007E4E  73                 	db	115	;'s'
   440  007E4F  75                 	db	117	;'u'
   441  007E50  69                 	db	105	;'i'
   442  007E51  74                 	db	116	;'t'
   443  007E52  65                 	db	101	;'e'
   444  007E53  20                 	db	32
   445  007E54  00                 	db	0
   446  007E55                     STR_13:
   447  007E55  48                 	db	72	;'H'
   448  007E56  61                 	db	97	;'a'
   449  007E57  62                 	db	98	;'b'
   450  007E58  69                 	db	105	;'i'
   451  007E59  74                 	db	116	;'t'
   452  007E5A  61                 	db	97	;'a'
   453  007E5B  63                 	db	99	;'c'
   454  007E5C  69                 	db	105	;'i'
   455  007E5D  6F                 	db	111	;'o'
   456  007E5E  6E                 	db	110	;'n'
   457  007E5F  65                 	db	101	;'e'
   458  007E60  73                 	db	115	;'s'
   459  007E61  20                 	db	32
   460  007E62  00                 	db	0
   461  007E63                     STR_17:
   462  007E63  48                 	db	72	;'H'
   463  007E64  61                 	db	97	;'a'
   464  007E65  62                 	db	98	;'b'
   465  007E66  74                 	db	116	;'t'
   466  007E67  20                 	db	32
   467  007E68  4A                 	db	74	;'J'
   468  007E69  61                 	db	97	;'a'
   469  007E6A  63                 	db	99	;'c'
   470  007E6B  75                 	db	117	;'u'
   471  007E6C  78                 	db	120	;'x'
   472  007E6D  78                 	db	120	;'x'
   473  007E6E  78                 	db	120	;'x'
   474  007E6F  69                 	db	105	;'i'
   475  007E70  00                 	db	0
   476  007E71                     STR_14:
   477  007E71  64                 	db	100	;'d'
   478  007E72  69                 	db	105	;'i'
   479  007E73  73                 	db	115	;'s'
   480  007E74  70                 	db	112	;'p'
   481  007E75  6F                 	db	111	;'o'
   482  007E76  6E                 	db	110	;'n'
   483  007E77  69                 	db	105	;'i'
   484  007E78  62                 	db	98	;'b'
   485  007E79  6C                 	db	108	;'l'
   486  007E7A  65                 	db	101	;'e'
   487  007E7B  73                 	db	115	;'s'
   488  007E7C  20                 	db	32
   489  007E7D  00                 	db	0
   490  007E7E                     STR_82:
   491  007E7E  2A                 	db	42
   492  007E7F  2A                 	db	42
   493  007E80  2A                 	db	42
   494  007E81  4C                 	db	76	;'L'
   495  007E82  4C                 	db	76	;'L'
   496  007E83  65                 	db	101	;'e'
   497  007E84  6E                 	db	110	;'n'
   498  007E85  61                 	db	97	;'a'
   499  007E86  73                 	db	115	;'s'
   500  007E87  2A                 	db	42
   501  007E88  2A                 	db	42
   502  007E89  2A                 	db	42
   503  007E8A  00                 	db	0
   504  007E8B                     STR_33:
   505  007E8B  63                 	db	99	;'c'
   506  007E8C  6F                 	db	111	;'o'
   507  007E8D  6E                 	db	110	;'n'
   508  007E8E  20                 	db	32
   509  007E8F  65                 	db	101	;'e'
   510  007E90  6C                 	db	108	;'l'
   511  007E91  20                 	db	32
   512  007E92  41                 	db	65	;'A'
   513  007E93  44                 	db	68	;'D'
   514  007E94  4D                 	db	77	;'M'
   515  007E95  49                 	db	73	;'I'
   516  007E96  4E                 	db	78	;'N'
   517  007E97  00                 	db	0
   518  007E98                     STR_19:
   519  007E98  4D                 	db	77	;'M'
   520  007E99  61                 	db	97	;'a'
   521  007E9A  73                 	db	115	;'s'
   522  007E9B  74                 	db	116	;'t'
   523  007E9C  65                 	db	101	;'e'
   524  007E9D  72                 	db	114	;'r'
   525  007E9E  20                 	db	32
   526  007E9F  53                 	db	83	;'S'
   527  007EA0  75                 	db	117	;'u'
   528  007EA1  69                 	db	105	;'i'
   529  007EA2  74                 	db	116	;'t'
   530  007EA3  65                 	db	101	;'e'
   531  007EA4  00                 	db	0
   532  007EA5                     STR_32:
   533  007EA5  50                 	db	80	;'P'
   534  007EA6  65                 	db	101	;'e'
   535  007EA7  72                 	db	114	;'r'
   536  007EA8  6D                 	db	109	;'m'
   537  007EA9  69                 	db	105	;'i'
   538  007EAA  74                 	db	116	;'t'
   539  007EAB  61                 	db	97	;'a'
   540  007EAC  6D                 	db	109	;'m'
   541  007EAD  65                 	db	101	;'e'
   542  007EAE  20                 	db	32
   543  007EAF  69                 	db	105	;'i'
   544  007EB0  72                 	db	114	;'r'
   545  007EB1  00                 	db	0
   546  007EB2                     STR_75:
   547  007EB2  53                 	db	83	;'S'
   548  007EB3  75                 	db	117	;'u'
   549  007EB4  20                 	db	32
   550  007EB5  63                 	db	99	;'c'
   551  007EB6  61                 	db	97	;'a'
   552  007EB7  6D                 	db	109	;'m'
   553  007EB8  62                 	db	98	;'b'
   554  007EB9  69                 	db	105	;'i'
   555  007EBA  6F                 	db	111	;'o'
   556  007EBB  20                 	db	32
   557  007EBC  65                 	db	101	;'e'
   558  007EBD  73                 	db	115	;'s'
   559  007EBE  00                 	db	0
   560  007EBF                     STR_81:
   561  007EBF  48                 	db	72	;'H'
   562  007EC0  61                 	db	97	;'a'
   563  007EC1  62                 	db	98	;'b'
   564  007EC2  69                 	db	105	;'i'
   565  007EC3  74                 	db	116	;'t'
   566  007EC4  61                 	db	97	;'a'
   567  007EC5  63                 	db	99	;'c'
   568  007EC6  69                 	db	105	;'i'
   569  007EC7  6F                 	db	111	;'o'
   570  007EC8  6E                 	db	110	;'n'
   571  007EC9  65                 	db	101	;'e'
   572  007ECA  73                 	db	115	;'s'
   573  007ECB  00                 	db	0
   574  007ECC                     STR_35:
   575  007ECC  68                 	db	104	;'h'
   576  007ECD  61                 	db	97	;'a'
   577  007ECE  62                 	db	98	;'b'
   578  007ECF  69                 	db	105	;'i'
   579  007ED0  74                 	db	116	;'t'
   580  007ED1  61                 	db	97	;'a'
   581  007ED2  63                 	db	99	;'c'
   582  007ED3  69                 	db	105	;'i'
   583  007ED4  6F                 	db	111	;'o'
   584  007ED5  6E                 	db	110	;'n'
   585  007ED6  65                 	db	101	;'e'
   586  007ED7  73                 	db	115	;'s'
   587  007ED8  00                 	db	0
   588  007ED9                     STR_60:
   589  007ED9  51                 	db	81	;'Q'
   590  007EDA  75                 	db	117	;'u'
   591  007EDB  65                 	db	101	;'e'
   592  007EDC  20                 	db	32
   593  007EDD  6C                 	db	108	;'l'
   594  007EDE  65                 	db	101	;'e'
   595  007EDF  20                 	db	32
   596  007EE0  76                 	db	118	;'v'
   597  007EE1  61                 	db	97	;'a'
   598  007EE2  79                 	db	121	;'y'
   599  007EE3  61                 	db	97	;'a'
   600  007EE4  00                 	db	0
   601  007EE5                     STR_29:
   602  007EE5  43                 	db	67	;'C'
   603  007EE6  3A                 	db	58	;':'
   604  007EE7  52                 	db	82	;'R'
   605  007EE8  65                 	db	101	;'e'
   606  007EE9  74                 	db	116	;'t'
   607  007EEA  69                 	db	105	;'i'
   608  007EEB  72                 	db	114	;'r'
   609  007EEC  61                 	db	97	;'a'
   610  007EED  72                 	db	114	;'r'
   611  007EEE  73                 	db	115	;'s'
   612  007EEF  65                 	db	101	;'e'
   613  007EF0  00                 	db	0
   614  007EF1                     STR_15:
   615  007EF1  48                 	db	72	;'H'
   616  007EF2  61                 	db	97	;'a'
   617  007EF3  62                 	db	98	;'b'
   618  007EF4  74                 	db	116	;'t'
   619  007EF5  20                 	db	32
   620  007EF6  4E                 	db	78	;'N'
   621  007EF7  6F                 	db	111	;'o'
   622  007EF8  72                 	db	114	;'r'
   623  007EF9  6D                 	db	109	;'m'
   624  007EFA  61                 	db	97	;'a'
   625  007EFB  6C                 	db	108	;'l'
   626  007EFC  00                 	db	0
   627  007EFD                     STR_71:
   628  007EFD  41                 	db	65	;'A'
   629  007EFE  20                 	db	32
   630  007EFF  63                 	db	99	;'c'
   631  007F00  6F                 	db	111	;'o'
   632  007F01  6E                 	db	110	;'n'
   633  007F02  73                 	db	115	;'s'
   634  007F03  65                 	db	101	;'e'
   635  007F04  67                 	db	103	;'g'
   636  007F05  75                 	db	117	;'u'
   637  007F06  69                 	db	105	;'i'
   638  007F07  72                 	db	114	;'r'
   639  007F08  00                 	db	0
   640  007F09                     STR_47:
   641  007F09  64                 	db	100	;'d'
   642  007F0A  69                 	db	105	;'i'
   643  007F0B  73                 	db	115	;'s'
   644  007F0C  70                 	db	112	;'p'
   645  007F0D  6F                 	db	111	;'o'
   646  007F0E  6E                 	db	110	;'n'
   647  007F0F  69                 	db	105	;'i'
   648  007F10  62                 	db	98	;'b'
   649  007F11  6C                 	db	108	;'l'
   650  007F12  65                 	db	101	;'e'
   651  007F13  73                 	db	115	;'s'
   652  007F14  00                 	db	0
   653  007F15                     STR_65:
   654  007F15  50                 	db	80	;'P'
   655  007F16  41                 	db	65	;'A'
   656  007F17  53                 	db	83	;'S'
   657  007F18  45                 	db	69	;'E'
   658  007F19  20                 	db	32
   659  007F1A  55                 	db	85	;'U'
   660  007F1B  53                 	db	83	;'S'
   661  007F1C  54                 	db	84	;'T'
   662  007F1D  45                 	db	69	;'E'
   663  007F1E  44                 	db	68	;'D'
   664  007F1F  00                 	db	0
   665  007F20                     STR_64:
   666  007F20  42                 	db	66	;'B'
   667  007F21  49                 	db	73	;'I'
   668  007F22  45                 	db	69	;'E'
   669  007F23  4E                 	db	78	;'N'
   670  007F24  56                 	db	86	;'V'
   671  007F25  45                 	db	69	;'E'
   672  007F26  4E                 	db	78	;'N'
   673  007F27  49                 	db	73	;'I'
   674  007F28  44                 	db	68	;'D'
   675  007F29  4F                 	db	79	;'O'
   676  007F2A  00                 	db	0
   677  007F2B                     STR_78:
   678  007F2B  53                 	db	83	;'S'
   679  007F2C  65                 	db	101	;'e'
   680  007F2D  6C                 	db	108	;'l'
   681  007F2E  65                 	db	101	;'e'
   682  007F2F  63                 	db	99	;'c'
   683  007F30  63                 	db	99	;'c'
   684  007F31  69                 	db	105	;'i'
   685  007F32  6F                 	db	111	;'o'
   686  007F33  6E                 	db	110	;'n'
   687  007F34  65                 	db	101	;'e'
   688  007F35  00                 	db	0
   689  007F36                     STR_69:
   690  007F36  50                 	db	80	;'P'
   691  007F37  61                 	db	97	;'a'
   692  007F38  67                 	db	103	;'g'
   693  007F39  6F                 	db	111	;'o'
   694  007F3A  3A                 	db	58	;':'
   695  007F3B  20                 	db	32
   696  007F3C  25                 	db	37
   697  007F3D  2E                 	db	46
   698  007F3E  32                 	db	50	;'2'
   699  007F3F  66                 	db	102	;'f'
   700  007F40  00                 	db	0
   701  007F41                     STR_23:
   702  007F41  54                 	db	84	;'T'
   703  007F42  6F                 	db	111	;'o'
   704  007F43  64                 	db	100	;'d'
   705  007F44  6F                 	db	111	;'o'
   706  007F45  20                 	db	32
   707  007F46  6C                 	db	108	;'l'
   708  007F47  6C                 	db	108	;'l'
   709  007F48  65                 	db	101	;'e'
   710  007F49  6E                 	db	110	;'n'
   711  007F4A  6F                 	db	111	;'o'
   712  007F4B  00                 	db	0
   713  007F4C                     STR_46:
   714  007F4C  65                 	db	101	;'e'
   715  007F4D  73                 	db	115	;'s'
   716  007F4E  65                 	db	101	;'e'
   717  007F4F  20                 	db	32
   718  007F50  74                 	db	116	;'t'
   719  007F51  69                 	db	105	;'i'
   720  007F52  70                 	db	112	;'p'
   721  007F53  6F                 	db	111	;'o'
   722  007F54  20                 	db	32
   723  007F55  00                 	db	0
   724  007F56                     STR_38:
   725  007F56  50                 	db	80	;'P'
   726  007F57  41                 	db	65	;'A'
   727  007F58  53                 	db	83	;'S'
   728  007F59  45                 	db	69	;'E'
   729  007F5A  20                 	db	32
   730  007F5B  41                 	db	65	;'A'
   731  007F5C  20                 	db	32
   732  007F5D  4C                 	db	76	;'L'
   733  007F5E  41                 	db	65	;'A'
   734  007F5F  00                 	db	0
   735  007F60                     STR_31:
   736  007F60  4F                 	db	79	;'O'
   737  007F61  70                 	db	112	;'p'
   738  007F62  63                 	db	99	;'c'
   739  007F63  69                 	db	105	;'i'
   740  007F64  6F                 	db	111	;'o'
   741  007F65  6E                 	db	110	;'n'
   742  007F66  3A                 	db	58	;':'
   743  007F67  25                 	db	37
   744  007F68  63                 	db	99	;'c'
   745  007F69  00                 	db	0
   746  007F6A                     STR_68:
   747  007F6A  43                 	db	67	;'C'
   748  007F6B  6F                 	db	111	;'o'
   749  007F6C  73                 	db	115	;'s'
   750  007F6D  74                 	db	116	;'t'
   751  007F6E  6F                 	db	111	;'o'
   752  007F6F  20                 	db	32
   753  007F70  24                 	db	36
   754  007F71  25                 	db	37
   755  007F72  64                 	db	100	;'d'
   756  007F73  00                 	db	0
   757  007F74                     STR_28:
   758  007F74  42                 	db	66	;'B'
   759  007F75  3A                 	db	58	;':'
   760  007F76  45                 	db	69	;'E'
   761  007F77  73                 	db	115	;'s'
   762  007F78  70                 	db	112	;'p'
   763  007F79  65                 	db	101	;'e'
   764  007F7A  72                 	db	114	;'r'
   765  007F7B  61                 	db	97	;'a'
   766  007F7C  72                 	db	114	;'r'
   767  007F7D  00                 	db	0
   768  007F7E                     STR_70:
   769  007F7E  50                 	db	80	;'P'
   770  007F7F  6F                 	db	111	;'o'
   771  007F80  62                 	db	98	;'b'
   772  007F81  72                 	db	114	;'r'
   773  007F82  65                 	db	101	;'e'
   774  007F83  20                 	db	32
   775  007F84  58                 	db	88	;'X'
   776  007F85  44                 	db	68	;'D'
   777  007F86  00                 	db	0
   778  007F87                     STR_25:
   779  007F87  4F                 	db	79	;'O'
   780  007F88  70                 	db	112	;'p'
   781  007F89  63                 	db	99	;'c'
   782  007F8A  69                 	db	105	;'i'
   783  007F8B  6F                 	db	111	;'o'
   784  007F8C  6E                 	db	110	;'n'
   785  007F8D  65                 	db	101	;'e'
   786  007F8E  73                 	db	115	;'s'
   787  007F8F  00                 	db	0
   788  007F90                     STR_4:
   789  007F90  64                 	db	100	;'d'
   790  007F91  65                 	db	101	;'e'
   791  007F92  73                 	db	115	;'s'
   792  007F93  65                 	db	101	;'e'
   793  007F94  61                 	db	97	;'a'
   794  007F95  3F                 	db	63	;'?'
   795  007F96  20                 	db	32
   796  007F97  00                 	db	0
   797  007F98                     STR_22:
   798  007F98  54                 	db	84	;'T'
   799  007F99  69                 	db	105	;'i'
   800  007F9A  70                 	db	112	;'p'
   801  007F9B  6F                 	db	111	;'o'
   802  007F9C  3A                 	db	58	;':'
   803  007F9D  25                 	db	37
   804  007F9E  63                 	db	99	;'c'
   805  007F9F  00                 	db	0
   806  007FA0                     STR_67:
   807  007FA0  50                 	db	80	;'P'
   808  007FA1  61                 	db	97	;'a'
   809  007FA2  67                 	db	103	;'g'
   810  007FA3  6F                 	db	111	;'o'
   811  007FA4  20                 	db	32
   812  007FA5  64                 	db	100	;'d'
   813  007FA6  65                 	db	101	;'e'
   814  007FA7  00                 	db	0
   815  007FA8                     STR_27:
   816  007FA8  41                 	db	65	;'A'
   817  007FA9  3A                 	db	58	;':'
   818  007FAA  41                 	db	65	;'A'
   819  007FAB  64                 	db	100	;'d'
   820  007FAC  6D                 	db	109	;'m'
   821  007FAD  69                 	db	105	;'i'
   822  007FAE  6E                 	db	110	;'n'
   823  007FAF  00                 	db	0
   824  007FB0                     STR_62:
   825  007FB0  56                 	db	86	;'V'
   826  007FB1  75                 	db	117	;'u'
   827  007FB2  65                 	db	101	;'e'
   828  007FB3  6C                 	db	108	;'l'
   829  007FB4  76                 	db	118	;'v'
   830  007FB5  61                 	db	97	;'a'
   831  007FB6  00                 	db	0
   832  007FB7                     STR_80:
   833  007FB7  48                 	db	72	;'H'
   834  007FB8  61                 	db	97	;'a'
   835  007FB9  62                 	db	98	;'b'
   836  007FBA  3A                 	db	58	;':'
   837  007FBB  25                 	db	37
   838  007FBC  63                 	db	99	;'c'
   839  007FBD  00                 	db	0
   840  007FBE                     STR_63:
   841  007FBE  50                 	db	80	;'P'
   842  007FBF  72                 	db	114	;'r'
   843  007FC0  6F                 	db	111	;'o'
   844  007FC1  6E                 	db	110	;'n'
   845  007FC2  74                 	db	116	;'t'
   846  007FC3  6F                 	db	111	;'o'
   847  007FC4  00                 	db	0
   848  007FC5                     STR_55:
   849  007FC5  4D                 	db	77	;'M'
   850  007FC6  61                 	db	97	;'a'
   851  007FC7  73                 	db	115	;'s'
   852  007FC8  74                 	db	116	;'t'
   853  007FC9  65                 	db	101	;'e'
   854  007FCA  72                 	db	114	;'r'
   855  007FCB  00                 	db	0
   856  007FCC                     STR_12:
   857  007FCC  24                 	db	36
   858  007FCD  36                 	db	54	;'6'
   859  007FCE  30                 	db	48	;'0'
   860  007FCF  30                 	db	48	;'0'
   861  007FD0  20                 	db	32
   862  007FD1  00                 	db	0
   863  007FD2                     STR_74:
   864  007FD2  3A                 	db	58	;':'
   865  007FD3  25                 	db	37
   866  007FD4  2E                 	db	46
   867  007FD5  32                 	db	50	;'2'
   868  007FD6  66                 	db	102	;'f'
   869  007FD7  00                 	db	0
   870  007FD8                     STR_44:
   871  007FD8  53                 	db	83	;'S'
   872  007FD9  69                 	db	105	;'i'
   873  007FDA  6E                 	db	110	;'n'
   874  007FDB  20                 	db	32
   875  007FDC  00                 	db	0
   876  007FDD                     STR_66:
   877  007FDD  24                 	db	36
   878  007FDE  20                 	db	32
   879  007FDF  25                 	db	37
   880  007FE0  64                 	db	100	;'d'
   881  007FE1  00                 	db	0
   882  007FE2                     STR_61:
   883  007FE2  62                 	db	98	;'b'
   884  007FE3  69                 	db	105	;'i'
   885  007FE4  65                 	db	101	;'e'
   886  007FE5  6E                 	db	110	;'n'
   887  007FE6  00                 	db	0
   888  007FE7                     STR_77:
   889  007FE7  50                 	db	80	;'P'
   890  007FE8  61                 	db	97	;'a'
   891  007FE9  67                 	db	103	;'g'
   892  007FEA  6F                 	db	111	;'o'
   893  007FEB  00                 	db	0
   894  007FEC                     STR_100:
   895  007FEC  49                 	db	73	;'I'
   896  007FED  4E                 	db	78	;'N'
   897  007FEE  46                 	db	70	;'F'
   898  007FEF  00                 	db	0
   899  007FF0                     STR_104:
   900  007FF0  4E                 	db	78	;'N'
   901  007FF1  41                 	db	65	;'A'
   902  007FF2  4E                 	db	78	;'N'
   903  007FF3  00                 	db	0
   904  007FF4                     STR_101:
   905  007FF4  69                 	db	105	;'i'
   906  007FF5  6E                 	db	110	;'n'
   907  007FF6  66                 	db	102	;'f'
   908  007FF7  00                 	db	0
   909  007FF8                     STR_105:
   910  007FF8  6E                 	db	110	;'n'
   911  007FF9  61                 	db	97	;'a'
   912  007FFA  6E                 	db	110	;'n'
   913  007FFB  00                 	db	0
   914  007FFC                     STR_108:
   915  007FFC  6C                 	db	108	;'l'
   916  007FFD  66                 	db	102	;'f'
   917  007FFE  00                 	db	0
   918  0000                     
   919                           ; #config settings
   920  007FFF  00                 	db	0	; dummy byte at the end
   921  0000                     
   922                           	psect	cinit
   923  0047CE                     __pcinit:
   924                           	opt callstack 0
   925  0047CE                     start_initialization:
   926                           	opt callstack 0
   927  0047CE                     __initialization:
   928                           	opt callstack 0
   929                           
   930                           ; Initialize objects allocated to BANK1 (12 bytes)
   931                           ; load TBLPTR registers with __pidataBANK1
   932  0047CE  0E40               	movlw	low __pidataBANK1
   933  0047D0  6EF6               	movwf	tblptrl,c
   934  0047D2  0E4B               	movlw	high __pidataBANK1
   935  0047D4  6EF7               	movwf	tblptrh,c
   936  0047D6  0E00               	movlw	low (__pidataBANK1 shr (0+16))
   937  0047D8  6EF8               	movwf	tblptru,c
   938  0047DA  EE01  F0AE         	lfsr	0,__pdataBANK1
   939  0047DE  EE10 F00C          	lfsr	1,12
   940  0047E2                     copy_data0:
   941  0047E2  0009               	tblrd		*+
   942  0047E4  CFF5 FFEE          	movff	tablat,postinc0
   943  0047E8  50E5               	movf	postdec1,w,c
   944  0047EA  50E1               	movf	fsr1l,w,c
   945  0047EC  E1FA               	bnz	copy_data0
   946                           
   947                           ; Clear objects allocated to BANK2 (72 bytes)
   948  0047EE  EE02  F000         	lfsr	0,__pbssBANK2
   949  0047F2  0E48               	movlw	72
   950  0047F4                     clear_0:
   951  0047F4  6AEE               	clrf	postinc0,c
   952  0047F6  06E8               	decf	wreg,f,c
   953  0047F8  E1FD               	bnz	clear_0
   954                           
   955                           ; Clear objects allocated to BANK1 (174 bytes)
   956  0047FA  EE01  F000         	lfsr	0,__pbssBANK1
   957  0047FE  0EAE               	movlw	174
   958  004800                     clear_1:
   959  004800  6AEE               	clrf	postinc0,c
   960  004802  06E8               	decf	wreg,f,c
   961  004804  E1FD               	bnz	clear_1
   962                           
   963                           ; Clear objects allocated to BANK0 (24 bytes)
   964  004806  EE00  F0E8         	lfsr	0,__pbssBANK0
   965  00480A  0E18               	movlw	24
   966  00480C                     clear_2:
   967  00480C  6AEE               	clrf	postinc0,c
   968  00480E  06E8               	decf	wreg,f,c
   969  004810  E1FD               	bnz	clear_2
   970                           
   971                           ; Clear objects allocated to COMRAM (1 bytes)
   972  004812  6A5E               	clrf	__pbssCOMRAM& (0+255),c
   973  004814                     end_of_initialization:
   974                           	opt callstack 0
   975  004814                     __end_of__initialization:
   976                           	opt callstack 0
   977  004814  905F               	bcf	int$flags,0,c	;clear compiler interrupt flag (level 1)
   978  004816  925F               	bcf	int$flags,1,c	;clear compiler interrupt flag (level 2)
   979  004818  0E00               	movlw	low (__Lmediumconst shr (0+16))
   980  00481A  6EF8               	movwf	tblptru,c
   981  00481C  0100               	movlb	0
   982  00481E  EF09  F000         	goto	_main	;jump to C main() function
   983                           
   984                           	psect	bssCOMRAM
   985  00005E                     __pbssCOMRAM:
   986                           	opt callstack 0
   987  00005E                     _datos:
   988                           	opt callstack 0
   989  00005E                     	ds	1
   990                           
   991                           	psect	bssBANK0
   992  0000E8                     __pbssBANK0:
   993                           	opt callstack 0
   994  0000E8                     _fill_room:
   995                           	opt callstack 0
   996  0000E8                     	ds	4
   997  0000EC                     _nout:
   998                           	opt callstack 0
   999  0000EC                     	ds	2
  1000  0000EE                     _width:
  1001                           	opt callstack 0
  1002  0000EE                     	ds	2
  1003  0000F0                     _prec:
  1004                           	opt callstack 0
  1005  0000F0                     	ds	2
  1006  0000F2                     _flags:
  1007                           	opt callstack 0
  1008  0000F2                     	ds	2
  1009  0000F4                     _r_master:
  1010                           	opt callstack 0
  1011  0000F4                     	ds	2
  1012  0000F6                     _r_jacuzzi:
  1013                           	opt callstack 0
  1014  0000F6                     	ds	2
  1015  0000F8                     _r_nomal:
  1016                           	opt callstack 0
  1017  0000F8                     	ds	2
  1018  0000FA                     _count:
  1019                           	opt callstack 0
  1020  0000FA                     	ds	2
  1021  0000FC                     _contador:
  1022                           	opt callstack 0
  1023  0000FC                     	ds	2
  1024  0000FE                     _ptr_valor:
  1025                           	opt callstack 0
  1026  0000FE                     	ds	1
  1027  0000FF                     _valor:
  1028                           	opt callstack 0
  1029  0000FF                     	ds	1
  1030                           
  1031                           	psect	bssBANK1
  1032  000100                     __pbssBANK1:
  1033                           	opt callstack 0
  1034  000100                     _room_master:
  1035                           	opt callstack 0
  1036  000100                     	ds	6
  1037  000106                     _room_jacuzzi:
  1038                           	opt callstack 0
  1039  000106                     	ds	6
  1040  00010C                     _room_normal:
  1041                           	opt callstack 0
  1042  00010C                     	ds	6
  1043  000112                     floorf@F524:
  1044                           	opt callstack 0
  1045  000112                     	ds	4
  1046  000116                     ___fpclassifyf@F463:
  1047                           	opt callstack 0
  1048  000116                     	ds	4
  1049  00011A                     _dbuf:
  1050                           	opt callstack 0
  1051  00011A                     	ds	80
  1052  00016A                     _palabra3:
  1053                           	opt callstack 0
  1054  00016A                     	ds	17
  1055  00017B                     _palabra2:
  1056                           	opt callstack 0
  1057  00017B                     	ds	17
  1058  00018C                     _palabra1:
  1059                           	opt callstack 0
  1060  00018C                     	ds	17
  1061  00019D                     _palabra:
  1062                           	opt callstack 0
  1063  00019D                     	ds	17
  1064                           
  1065                           	psect	dataBANK1
  1066  0001AE                     __pdataBANK1:
  1067                           	opt callstack 0
  1068  0001AE                     	ds	4
  1069  0001B2                     	ds	4
  1070  0001B6                     	ds	4
  1071                           
  1072                           	psect	bssBANK2
  1073  000200                     __pbssBANK2:
  1074                           	opt callstack 0
  1075  000200                     _num_hab:
  1076                           	opt callstack 0
  1077  000200                     	ds	72
  1078                           
  1079                           	psect	cstackBANK0
  1080  000060                     __pcstackBANK0:
  1081                           	opt callstack 0
  1082  000060                     efgtoa@ou:
  1083                           	opt callstack 0
  1084                           
  1085                           ; 4 bytes @ 0x0
  1086  000060                     	ds	4
  1087  000064                     _efgtoa$1093:
  1088                           	opt callstack 0
  1089                           
  1090                           ; 2 bytes @ 0x4
  1091  000064                     	ds	2
  1092  000066                     _efgtoa$1094:
  1093                           	opt callstack 0
  1094                           
  1095                           ; 2 bytes @ 0x6
  1096  000066                     	ds	2
  1097  000068                     _efgtoa$1098:
  1098                           	opt callstack 0
  1099                           
  1100                           ; 2 bytes @ 0x8
  1101  000068                     	ds	2
  1102  00006A                     _efgtoa$1102:
  1103                           	opt callstack 0
  1104                           
  1105                           ; 2 bytes @ 0xA
  1106  00006A                     	ds	2
  1107  00006C                     _efgtoa$1103:
  1108                           	opt callstack 0
  1109                           
  1110                           ; 2 bytes @ 0xC
  1111  00006C                     	ds	2
  1112  00006E                     _efgtoa$1104:
  1113                           	opt callstack 0
  1114                           
  1115                           ; 2 bytes @ 0xE
  1116  00006E                     	ds	2
  1117  000070                     efgtoa@t:
  1118                           	opt callstack 0
  1119                           
  1120                           ; 2 bytes @ 0x10
  1121  000070                     	ds	2
  1122  000072                     efgtoa@pp:
  1123                           	opt callstack 0
  1124                           
  1125                           ; 2 bytes @ 0x12
  1126  000072                     	ds	2
  1127  000074                     efgtoa@m:
  1128                           	opt callstack 0
  1129                           
  1130                           ; 2 bytes @ 0x14
  1131  000074                     	ds	2
  1132  000076                     efgtoa@ne:
  1133                           	opt callstack 0
  1134                           
  1135                           ; 2 bytes @ 0x16
  1136  000076                     	ds	2
  1137  000078                     efgtoa@d:
  1138                           	opt callstack 0
  1139                           
  1140                           ; 2 bytes @ 0x18
  1141  000078                     	ds	2
  1142  00007A                     efgtoa@sign:
  1143                           	opt callstack 0
  1144                           
  1145                           ; 2 bytes @ 0x1A
  1146  00007A                     	ds	2
  1147  00007C                     efgtoa@p:
  1148                           	opt callstack 0
  1149                           
  1150                           ; 2 bytes @ 0x1C
  1151  00007C                     	ds	2
  1152  00007E                     efgtoa@nmode:
  1153                           	opt callstack 0
  1154                           
  1155                           ; 1 bytes @ 0x1E
  1156  00007E                     	ds	1
  1157  00007F                     efgtoa@w:
  1158                           	opt callstack 0
  1159                           
  1160                           ; 2 bytes @ 0x1F
  1161  00007F                     	ds	2
  1162  000081                     efgtoa@mode:
  1163                           	opt callstack 0
  1164                           
  1165                           ; 1 bytes @ 0x21
  1166  000081                     	ds	1
  1167  000082                     efgtoa@h:
  1168                           	opt callstack 0
  1169                           
  1170                           ; 4 bytes @ 0x22
  1171  000082                     	ds	4
  1172  000086                     efgtoa@l:
  1173                           	opt callstack 0
  1174                           
  1175                           ; 4 bytes @ 0x26
  1176  000086                     	ds	4
  1177  00008A                     efgtoa@i:
  1178                           	opt callstack 0
  1179                           
  1180                           ; 2 bytes @ 0x2A
  1181  00008A                     	ds	2
  1182  00008C                     efgtoa@g:
  1183                           	opt callstack 0
  1184                           
  1185                           ; 4 bytes @ 0x2C
  1186  00008C                     	ds	4
  1187  000090                     efgtoa@e:
  1188                           	opt callstack 0
  1189                           
  1190                           ; 2 bytes @ 0x30
  1191  000090                     	ds	2
  1192  000092                     efgtoa@n:
  1193                           	opt callstack 0
  1194                           
  1195                           ; 2 bytes @ 0x32
  1196  000092                     	ds	2
  1197  000094                     efgtoa@u:
  1198                           	opt callstack 0
  1199                           
  1200                           ; 4 bytes @ 0x34
  1201  000094                     	ds	4
  1202  000098                     ?_vfprintf:
  1203                           	opt callstack 0
  1204  000098                     vfprintf@fp:
  1205                           	opt callstack 0
  1206                           
  1207                           ; 2 bytes @ 0x38
  1208  000098                     	ds	2
  1209  00009A                     vfprintf@fmt:
  1210                           	opt callstack 0
  1211                           
  1212                           ; 2 bytes @ 0x3A
  1213  00009A                     	ds	2
  1214  00009C                     vfprintf@ap:
  1215                           	opt callstack 0
  1216                           
  1217                           ; 2 bytes @ 0x3C
  1218  00009C                     	ds	2
  1219  00009E                     vfprintf@cfmt:
  1220                           	opt callstack 0
  1221                           
  1222                           ; 2 bytes @ 0x3E
  1223  00009E                     	ds	2
  1224  0000A0                     ?_sprintf:
  1225                           	opt callstack 0
  1226  0000A0                     sprintf@s:
  1227                           	opt callstack 0
  1228                           
  1229                           ; 2 bytes @ 0x40
  1230  0000A0                     	ds	2
  1231  0000A2                     sprintf@fmt:
  1232                           	opt callstack 0
  1233                           
  1234                           ; 2 bytes @ 0x42
  1235  0000A2                     	ds	8
  1236  0000AA                     sprintf@ap:
  1237                           	opt callstack 0
  1238                           
  1239                           ; 2 bytes @ 0x4A
  1240  0000AA                     	ds	2
  1241  0000AC                     sprintf@f:
  1242                           	opt callstack 0
  1243                           
  1244                           ; 6 bytes @ 0x4C
  1245  0000AC                     	ds	6
  1246  0000B2                     ??_clean_rooms:
  1247  0000B2                     pago_de_Habitaciones@price:
  1248                           	opt callstack 0
  1249                           
  1250                           ; 2 bytes @ 0x52
  1251  0000B2                     	ds	2
  1252  0000B4                     ??_pago_de_Habitaciones:
  1253  0000B4                     clean_rooms@uso_local:
  1254                           	opt callstack 0
  1255                           
  1256                           ; 17 bytes @ 0x54
  1257  0000B4                     	ds	4
  1258  0000B8                     pago_de_Habitaciones@uso_local2:
  1259                           	opt callstack 0
  1260                           
  1261                           ; 17 bytes @ 0x58
  1262  0000B8                     	ds	13
  1263  0000C5                     clean_rooms@uso_local2:
  1264                           	opt callstack 0
  1265                           
  1266                           ; 17 bytes @ 0x65
  1267  0000C5                     	ds	4
  1268  0000C9                     pago_de_Habitaciones@uso_local:
  1269                           	opt callstack 0
  1270                           
  1271                           ; 17 bytes @ 0x69
  1272  0000C9                     	ds	15
  1273  0000D8                     clean_rooms@cuarto_clean:
  1274                           	opt callstack 0
  1275                           
  1276                           ; 2 bytes @ 0x78
  1277  0000D8                     	ds	2
  1278  0000DA                     clean_rooms@tipo:
  1279                           	opt callstack 0
  1280  0000DA                     pago_de_Habitaciones@cambio:
  1281                           	opt callstack 0
  1282                           
  1283                           ; 4 bytes @ 0x7A
  1284  0000DA                     	ds	1
  1285  0000DB                     clean_rooms@cuarto:
  1286                           	opt callstack 0
  1287                           
  1288                           ; 1 bytes @ 0x7B
  1289  0000DB                     	ds	1
  1290  0000DC                     ??_opciones:
  1291                           
  1292                           ; 1 bytes @ 0x7C
  1293  0000DC                     	ds	2
  1294  0000DE                     pago_de_Habitaciones@circle:
  1295                           	opt callstack 0
  1296                           
  1297                           ; 2 bytes @ 0x7E
  1298  0000DE                     	ds	2
  1299  0000E0                     pago_de_Habitaciones@money:
  1300                           	opt callstack 0
  1301                           
  1302                           ; 4 bytes @ 0x80
  1303  0000E0                     	ds	4
  1304  0000E4                     ??_main:
  1305                           
  1306                           ; 1 bytes @ 0x84
  1307  0000E4                     	ds	4
  1308                           
  1309                           	psect	cstackCOMRAM
  1310  000001                     __pcstackCOMRAM:
  1311                           	opt callstack 0
  1312  000001                     ??_Lcd_Cmd:
  1313  000001                     ??_Lcd_Chr_CP:
  1314  000001                     ?_strlen:
  1315                           	opt callstack 0
  1316  000001                     ?___fpclassifyf:
  1317                           	opt callstack 0
  1318  000001                     ?_isupper:
  1319                           	opt callstack 0
  1320  000001                     ?_isdigit:
  1321                           	opt callstack 0
  1322  000001                     ?_strncmp:
  1323                           	opt callstack 0
  1324  000001                     ?_isspace:
  1325                           	opt callstack 0
  1326  000001                     ?___wmul:
  1327                           	opt callstack 0
  1328  000001                     ?___awdiv:
  1329                           	opt callstack 0
  1330  000001                     ?___awmod:
  1331                           	opt callstack 0
  1332  000001                     ?___fldiv:
  1333                           	opt callstack 0
  1334  000001                     ?___flmul:
  1335                           	opt callstack 0
  1336  000001                     ?___aldiv:
  1337                           	opt callstack 0
  1338  000001                     ?___flneg:
  1339                           	opt callstack 0
  1340  000001                     ?___fltol:
  1341                           	opt callstack 0
  1342  000001                     ?___xxtofl:
  1343                           	opt callstack 0
  1344  000001                     ?___aodiv:
  1345                           	opt callstack 0
  1346  000001                     ?___aomod:
  1347                           	opt callstack 0
  1348  000001                     UART_Tx@data:
  1349                           	opt callstack 0
  1350  000001                     ___wmul@multiplier:
  1351                           	opt callstack 0
  1352  000001                     ___awdiv@dividend:
  1353                           	opt callstack 0
  1354  000001                     ___awmod@dividend:
  1355                           	opt callstack 0
  1356  000001                     isdigit@c:
  1357                           	opt callstack 0
  1358  000001                     isspace@c:
  1359                           	opt callstack 0
  1360  000001                     isupper@c:
  1361                           	opt callstack 0
  1362  000001                     fputc@c:
  1363                           	opt callstack 0
  1364  000001                     strcpy@dest:
  1365                           	opt callstack 0
  1366  000001                     strlen@s:
  1367                           	opt callstack 0
  1368  000001                     strncmp@_l:
  1369                           	opt callstack 0
  1370  000001                     ___aldiv@dividend:
  1371                           	opt callstack 0
  1372  000001                     ___fleq@ff1:
  1373                           	opt callstack 0
  1374  000001                     ___flneg@f1:
  1375                           	opt callstack 0
  1376  000001                     ___fltol@f1:
  1377                           	opt callstack 0
  1378  000001                     ___fldiv@b:
  1379                           	opt callstack 0
  1380  000001                     ___flmul@b:
  1381                           	opt callstack 0
  1382  000001                     ___xxtofl@val:
  1383                           	opt callstack 0
  1384  000001                     ___fpclassifyf@x:
  1385                           	opt callstack 0
  1386  000001                     ___aodiv@dividend:
  1387                           	opt callstack 0
  1388  000001                     ___aomod@dividend:
  1389                           	opt callstack 0
  1390                           
  1391                           ; 8 bytes @ 0x0
  1392  000001                     	ds	1
  1393  000002                     envio_UART_Tx@informacion:
  1394                           	opt callstack 0
  1395                           
  1396                           ; 1 bytes @ 0x1
  1397  000002                     	ds	1
  1398  000003                     ??_isupper:
  1399  000003                     ??_isdigit:
  1400  000003                     ??_isspace:
  1401  000003                     Lcd_Chr_CP@data:
  1402                           	opt callstack 0
  1403  000003                     Lcd_Cmd@data:
  1404                           	opt callstack 0
  1405  000003                     envio_UART_Tx@lugar:
  1406                           	opt callstack 0
  1407  000003                     ___wmul@multiplicand:
  1408                           	opt callstack 0
  1409  000003                     ___awdiv@divisor:
  1410                           	opt callstack 0
  1411  000003                     ___awmod@divisor:
  1412                           	opt callstack 0
  1413  000003                     fputc@fp:
  1414                           	opt callstack 0
  1415  000003                     strcpy@src:
  1416                           	opt callstack 0
  1417  000003                     strlen@a:
  1418                           	opt callstack 0
  1419  000003                     strncmp@_r:
  1420                           	opt callstack 0
  1421                           
  1422                           ; 2 bytes @ 0x2
  1423  000003                     	ds	1
  1424  000004                     ??_Lcd_Init:
  1425  000004                     Lcd_Out@x:
  1426                           	opt callstack 0
  1427  000004                     Lcd_Out2@x:
  1428                           	opt callstack 0
  1429                           
  1430                           ; 1 bytes @ 0x3
  1431  000004                     	ds	1
  1432  000005                     ??_envio_UART_Tx:
  1433  000005                     ??_fputc:
  1434  000005                     ??___fpclassifyf:
  1435  000005                     ??_strcpy:
  1436  000005                     ??___fltol:
  1437  000005                     ??___xxtofl:
  1438  000005                     Lcd_Init@data:
  1439                           	opt callstack 0
  1440  000005                     ___awdiv@counter:
  1441                           	opt callstack 0
  1442  000005                     ___awmod@counter:
  1443                           	opt callstack 0
  1444  000005                     Lcd_Out@buffer:
  1445                           	opt callstack 0
  1446  000005                     Lcd_Out2@buffer:
  1447                           	opt callstack 0
  1448  000005                     ___wmul@product:
  1449                           	opt callstack 0
  1450  000005                     strncmp@n:
  1451                           	opt callstack 0
  1452  000005                     ___aldiv@divisor:
  1453                           	opt callstack 0
  1454  000005                     ___fleq@ff2:
  1455                           	opt callstack 0
  1456  000005                     ___fldiv@a:
  1457                           	opt callstack 0
  1458  000005                     ___flmul@a:
  1459                           	opt callstack 0
  1460                           
  1461                           ; 4 bytes @ 0x4
  1462  000005                     	ds	1
  1463  000006                     ___awdiv@sign:
  1464                           	opt callstack 0
  1465  000006                     ___awmod@sign:
  1466                           	opt callstack 0
  1467                           
  1468                           ; 1 bytes @ 0x5
  1469  000006                     	ds	1
  1470  000007                     ??_strncmp:
  1471  000007                     ??_Lcd_Out:
  1472  000007                     ??_Lcd_Out2:
  1473  000007                     ?_tolower:
  1474                           	opt callstack 0
  1475  000007                     envio_UART_Tx@Tx:
  1476                           	opt callstack 0
  1477  000007                     _isspace$1628:
  1478                           	opt callstack 0
  1479  000007                     ___awdiv@quotient:
  1480                           	opt callstack 0
  1481  000007                     strcpy@s:
  1482                           	opt callstack 0
  1483  000007                     tolower@c:
  1484                           	opt callstack 0
  1485                           
  1486                           ; 2 bytes @ 0x6
  1487  000007                     	ds	1
  1488  000008                     ?_atoi:
  1489                           	opt callstack 0
  1490  000008                     atoi@s:
  1491                           	opt callstack 0
  1492  000008                     strncmp@l:
  1493                           	opt callstack 0
  1494                           
  1495                           ; 2 bytes @ 0x7
  1496  000008                     	ds	1
  1497  000009                     ??_tolower:
  1498  000009                     ??___fldiv:
  1499  000009                     ??___flmul:
  1500  000009                     ??___fleq:
  1501  000009                     Lcd_Out@y:
  1502                           	opt callstack 0
  1503  000009                     Lcd_Out2@y:
  1504                           	opt callstack 0
  1505  000009                     ___aldiv@counter:
  1506                           	opt callstack 0
  1507  000009                     ___fltol@sign1:
  1508                           	opt callstack 0
  1509  000009                     ___xxtofl@sign:
  1510                           	opt callstack 0
  1511  000009                     ___fpclassifyf@e:
  1512                           	opt callstack 0
  1513  000009                     strcpy@d:
  1514                           	opt callstack 0
  1515  000009                     ___aodiv@divisor:
  1516                           	opt callstack 0
  1517  000009                     ___aomod@divisor:
  1518                           	opt callstack 0
  1519                           
  1520                           ; 8 bytes @ 0x8
  1521  000009                     	ds	1
  1522  00000A                     ??_atoi:
  1523  00000A                     Lcd_Out@data:
  1524                           	opt callstack 0
  1525  00000A                     Lcd_Out2@data:
  1526                           	opt callstack 0
  1527  00000A                     ___aldiv@sign:
  1528                           	opt callstack 0
  1529  00000A                     ___fltol@exp1:
  1530                           	opt callstack 0
  1531  00000A                     ___xxtofl@exp:
  1532                           	opt callstack 0
  1533  00000A                     fputs@s:
  1534                           	opt callstack 0
  1535  00000A                     strncmp@r:
  1536                           	opt callstack 0
  1537                           
  1538                           ; 2 bytes @ 0x9
  1539  00000A                     	ds	1
  1540  00000B                     ___aldiv@quotient:
  1541                           	opt callstack 0
  1542  00000B                     ___xxtofl@arg:
  1543                           	opt callstack 0
  1544  00000B                     ___fpclassifyf@u:
  1545                           	opt callstack 0
  1546                           
  1547                           ; 4 bytes @ 0xA
  1548  00000B                     	ds	1
  1549  00000C                     fputs@fp:
  1550                           	opt callstack 0
  1551                           
  1552                           ; 2 bytes @ 0xB
  1553  00000C                     	ds	1
  1554  00000D                     ___flmul@sign:
  1555                           	opt callstack 0
  1556  00000D                     _tolower$1713:
  1557                           	opt callstack 0
  1558  00000D                     ___fldiv@rem:
  1559                           	opt callstack 0
  1560                           
  1561                           ; 4 bytes @ 0xC
  1562  00000D                     	ds	1
  1563  00000E                     fputs@c:
  1564                           	opt callstack 0
  1565  00000E                     atoi@neg:
  1566                           	opt callstack 0
  1567  00000E                     ___flmul@grs:
  1568                           	opt callstack 0
  1569                           
  1570                           ; 4 bytes @ 0xD
  1571  00000E                     	ds	1
  1572  00000F                     fputs@i:
  1573                           	opt callstack 0
  1574  00000F                     UART_Init@baud:
  1575                           	opt callstack 0
  1576                           
  1577                           ; 4 bytes @ 0xE
  1578  00000F                     	ds	1
  1579  000010                     _atoi$1597:
  1580                           	opt callstack 0
  1581                           
  1582                           ; 2 bytes @ 0xF
  1583  000010                     	ds	1
  1584  000011                     ?_pad:
  1585                           	opt callstack 0
  1586  000011                     ___aodiv@counter:
  1587                           	opt callstack 0
  1588  000011                     ___aomod@counter:
  1589                           	opt callstack 0
  1590  000011                     ___fldiv@sign:
  1591                           	opt callstack 0
  1592  000011                     pad@fp:
  1593                           	opt callstack 0
  1594                           
  1595                           ; 2 bytes @ 0x10
  1596  000011                     	ds	1
  1597  000012                     ___aodiv@sign:
  1598                           	opt callstack 0
  1599  000012                     ___aomod@sign:
  1600                           	opt callstack 0
  1601  000012                     ___flmul@aexp:
  1602                           	opt callstack 0
  1603  000012                     ___fldiv@new_exp:
  1604                           	opt callstack 0
  1605  000012                     _atoi$1599:
  1606                           	opt callstack 0
  1607                           
  1608                           ; 2 bytes @ 0x11
  1609  000012                     	ds	1
  1610  000013                     ?_abs:
  1611                           	opt callstack 0
  1612  000013                     ___flmul@bexp:
  1613                           	opt callstack 0
  1614  000013                     pad@buf:
  1615                           	opt callstack 0
  1616  000013                     abs@a:
  1617                           	opt callstack 0
  1618  000013                     _UART_Init$1925:
  1619                           	opt callstack 0
  1620  000013                     ___aodiv@quotient:
  1621                           	opt callstack 0
  1622                           
  1623                           ; 8 bytes @ 0x12
  1624  000013                     	ds	1
  1625  000014                     _atoi$1598:
  1626                           	opt callstack 0
  1627  000014                     ___fldiv@grs:
  1628                           	opt callstack 0
  1629  000014                     ___flmul@prod:
  1630                           	opt callstack 0
  1631                           
  1632                           ; 4 bytes @ 0x13
  1633  000014                     	ds	1
  1634  000015                     ??_abs:
  1635  000015                     pad@p:
  1636                           	opt callstack 0
  1637  000015                     atoi@n:
  1638                           	opt callstack 0
  1639                           
  1640                           ; 2 bytes @ 0x14
  1641  000015                     	ds	2
  1642  000017                     ??_pad:
  1643                           
  1644                           ; 1 bytes @ 0x16
  1645  000017                     	ds	1
  1646  000018                     ___fldiv@bexp:
  1647                           	opt callstack 0
  1648  000018                     pad@i:
  1649                           	opt callstack 0
  1650  000018                     ___flmul@temp:
  1651                           	opt callstack 0
  1652                           
  1653                           ; 2 bytes @ 0x17
  1654  000018                     	ds	1
  1655  000019                     ___fldiv@aexp:
  1656                           	opt callstack 0
  1657                           
  1658                           ; 1 bytes @ 0x18
  1659  000019                     	ds	1
  1660  00001A                     ?_floorf:
  1661                           	opt callstack 0
  1662  00001A                     ?___fladd:
  1663                           	opt callstack 0
  1664  00001A                     pad@w:
  1665                           	opt callstack 0
  1666  00001A                     ___flge@ff1:
  1667                           	opt callstack 0
  1668  00001A                     ___fladd@b:
  1669                           	opt callstack 0
  1670  00001A                     floorf@x:
  1671                           	opt callstack 0
  1672                           
  1673                           ; 4 bytes @ 0x19
  1674  00001A                     	ds	2
  1675  00001C                     ?_ctoa:
  1676                           	opt callstack 0
  1677  00001C                     ?_dtoa:
  1678                           	opt callstack 0
  1679  00001C                     ctoa@fp:
  1680                           	opt callstack 0
  1681  00001C                     dtoa@fp:
  1682                           	opt callstack 0
  1683                           
  1684                           ; 2 bytes @ 0x1B
  1685  00001C                     	ds	2
  1686  00001E                     ??_floorf:
  1687  00001E                     ctoa@c:
  1688                           	opt callstack 0
  1689  00001E                     ___flge@ff2:
  1690                           	opt callstack 0
  1691  00001E                     ___fladd@a:
  1692                           	opt callstack 0
  1693  00001E                     dtoa@d:
  1694                           	opt callstack 0
  1695                           
  1696                           ; 8 bytes @ 0x1D
  1697  00001E                     	ds	1
  1698  00001F                     ctoa@w:
  1699                           	opt callstack 0
  1700                           
  1701                           ; 2 bytes @ 0x1E
  1702  00001F                     	ds	3
  1703  000022                     ??___fladd:
  1704  000022                     ??___flge:
  1705                           
  1706                           ; 1 bytes @ 0x21
  1707  000022                     	ds	2
  1708  000024                     floorf@m:
  1709                           	opt callstack 0
  1710                           
  1711                           ; 4 bytes @ 0x23
  1712  000024                     	ds	2
  1713  000026                     ??_dtoa:
  1714  000026                     ___fladd@signs:
  1715                           	opt callstack 0
  1716                           
  1717                           ; 1 bytes @ 0x25
  1718  000026                     	ds	1
  1719  000027                     ___fladd@aexp:
  1720                           	opt callstack 0
  1721                           
  1722                           ; 1 bytes @ 0x26
  1723  000027                     	ds	1
  1724  000028                     ___fladd@bexp:
  1725                           	opt callstack 0
  1726  000028                     floorf@e:
  1727                           	opt callstack 0
  1728                           
  1729                           ; 2 bytes @ 0x27
  1730  000028                     	ds	1
  1731  000029                     ___fladd@grs:
  1732                           	opt callstack 0
  1733                           
  1734                           ; 1 bytes @ 0x28
  1735  000029                     	ds	1
  1736  00002A                     ?___flsub:
  1737                           	opt callstack 0
  1738  00002A                     ___flsub@b:
  1739                           	opt callstack 0
  1740  00002A                     floorf@u:
  1741                           	opt callstack 0
  1742                           
  1743                           ; 4 bytes @ 0x29
  1744  00002A                     	ds	4
  1745  00002E                     _dtoa$1070:
  1746                           	opt callstack 0
  1747  00002E                     ___flsub@a:
  1748                           	opt callstack 0
  1749                           
  1750                           ; 4 bytes @ 0x2D
  1751  00002E                     	ds	2
  1752  000030                     dtoa@p:
  1753                           	opt callstack 0
  1754                           
  1755                           ; 2 bytes @ 0x2F
  1756  000030                     	ds	2
  1757  000032                     ?_efgtoa:
  1758                           	opt callstack 0
  1759  000032                     dtoa@w:
  1760                           	opt callstack 0
  1761  000032                     efgtoa@fp:
  1762                           	opt callstack 0
  1763                           
  1764                           ; 2 bytes @ 0x31
  1765  000032                     	ds	2
  1766  000034                     dtoa@s:
  1767                           	opt callstack 0
  1768  000034                     efgtoa@f:
  1769                           	opt callstack 0
  1770                           
  1771                           ; 4 bytes @ 0x33
  1772  000034                     	ds	2
  1773  000036                     dtoa@n:
  1774                           	opt callstack 0
  1775                           
  1776                           ; 8 bytes @ 0x35
  1777  000036                     	ds	2
  1778  000038                     efgtoa@c:
  1779                           	opt callstack 0
  1780                           
  1781                           ; 1 bytes @ 0x37
  1782  000038                     	ds	1
  1783  000039                     ??_efgtoa:
  1784                           
  1785                           ; 1 bytes @ 0x38
  1786  000039                     	ds	5
  1787  00003E                     dtoa@i:
  1788                           	opt callstack 0
  1789                           
  1790                           ; 2 bytes @ 0x3D
  1791  00003E                     	ds	2
  1792  000040                     ?_vfpfcnvrt:
  1793                           	opt callstack 0
  1794  000040                     vfpfcnvrt@fp:
  1795                           	opt callstack 0
  1796                           
  1797                           ; 2 bytes @ 0x3F
  1798  000040                     	ds	2
  1799  000042                     vfpfcnvrt@fmt:
  1800                           	opt callstack 0
  1801                           
  1802                           ; 2 bytes @ 0x41
  1803  000042                     	ds	2
  1804  000044                     vfpfcnvrt@ap:
  1805                           	opt callstack 0
  1806                           
  1807                           ; 2 bytes @ 0x43
  1808  000044                     	ds	2
  1809  000046                     ??_vfpfcnvrt:
  1810                           
  1811                           ; 1 bytes @ 0x45
  1812  000046                     	ds	4
  1813  00004A                     vfpfcnvrt@ll:
  1814                           	opt callstack 0
  1815                           
  1816                           ; 8 bytes @ 0x49
  1817  00004A                     	ds	8
  1818  000052                     _vfpfcnvrt$1118:
  1819                           	opt callstack 0
  1820                           
  1821                           ; 2 bytes @ 0x51
  1822  000052                     	ds	2
  1823  000054                     _vfpfcnvrt$1124:
  1824                           	opt callstack 0
  1825                           
  1826                           ; 2 bytes @ 0x53
  1827  000054                     	ds	2
  1828  000056                     vfpfcnvrt@f:
  1829                           	opt callstack 0
  1830                           
  1831                           ; 4 bytes @ 0x55
  1832  000056                     	ds	4
  1833  00005A                     vfpfcnvrt@ct:
  1834                           	opt callstack 0
  1835                           
  1836                           ; 3 bytes @ 0x59
  1837  00005A                     	ds	3
  1838  00005D                     vfpfcnvrt@c:
  1839                           	opt callstack 0
  1840                           
  1841                           ; 1 bytes @ 0x5C
  1842  00005D                     	ds	1
  1843  00005E                     
  1844                           ; 1 bytes @ 0x5D
  1845 ;;
  1846 ;;Main: autosize = 0, tempsize = 4, incstack = 0, save=0
  1847 ;;
  1848 ;; *************** function _main *****************
  1849 ;; Defined at:
  1850 ;;		line 30 in file "Proyecto_SSE1_13_05.c"
  1851 ;; Parameters:    Size  Location     Type
  1852 ;;		None
  1853 ;; Auto vars:     Size  Location     Type
  1854 ;;		None
  1855 ;; Return value:  Size  Location     Type
  1856 ;;                  1    wreg      void 
  1857 ;; Registers used:
  1858 ;;		wreg, fsr1l, fsr1h, fsr2l, fsr2h, status,2, status,0, tblptrl, tblptrh, tblptru, prodl, prodh, cstack
  1859 ;; Tracked objects:
  1860 ;;		On entry : 0/0
  1861 ;;		On exit  : 0/0
  1862 ;;		Unchanged: 0/0
  1863 ;; Data sizes:     COMRAM   BANK0   BANK1   BANK2   BANK3   BANK4   BANK5   BANK6   BANK7
  1864 ;;      Params:         0       0       0       0       0       0       0       0       0
  1865 ;;      Locals:         0       0       0       0       0       0       0       0       0
  1866 ;;      Temps:          0       4       0       0       0       0       0       0       0
  1867 ;;      Totals:         0       4       0       0       0       0       0       0       0
  1868 ;;Total ram usage:        4 bytes
  1869 ;; Hardware stack levels required when called:   12
  1870 ;; This function calls:
  1871 ;;		_Lcd_Cmd
  1872 ;;		_Lcd_Init
  1873 ;;		_Lcd_Out
  1874 ;;		_Lcd_Out2
  1875 ;;		_UART_Init
  1876 ;;		_UART_Tx
  1877 ;;		_clean_rooms
  1878 ;;		_envio_UART_Tx
  1879 ;;		_opciones
  1880 ;;		_pago_de_Habitaciones
  1881 ;;		_sprintf
  1882 ;;		_teclado
  1883 ;; This function is called by:
  1884 ;;		Startup code after reset
  1885 ;; This function uses a non-reentrant model
  1886 ;;
  1887                           
  1888                           	psect	text0
  1889  000012                     __ptext0:
  1890                           	opt callstack 0
  1891  000012                     _main:
  1892                           	opt callstack 19
  1893                           
  1894                           ;Proyecto_SSE1_13_05.c: 31:     UART_Init(9600);
  1895                           
  1896                           ;incstack = 0
  1897  000012  0E80               	movlw	128
  1898  000014  6E0F               	movwf	UART_Init@baud,c
  1899  000016  0E25               	movlw	37
  1900  000018  6E10               	movwf	UART_Init@baud+1,c
  1901  00001A  0E00               	movlw	0
  1902  00001C  6E11               	movwf	UART_Init@baud+2,c
  1903  00001E  0E00               	movlw	0
  1904  000020  6E12               	movwf	UART_Init@baud+3,c
  1905  000022  EC9E  F022         	call	_UART_Init	;wreg free
  1906                           
  1907                           ;Proyecto_SSE1_13_05.c: 32:     INTCON2bits.RBPU=0;
  1908  000026  9EF1               	bcf	4081,7,c	;volatile
  1909                           
  1910                           ;Proyecto_SSE1_13_05.c: 33:     ADCON1=0x0F;
  1911  000028  0E0F               	movlw	15
  1912  00002A  6EC1               	movwf	4033,c	;volatile
  1913                           
  1914                           ;Proyecto_SSE1_13_05.c: 34:     TRISDbits.RD6=1;
  1915  00002C  8C95               	bsf	3989,6,c	;volatile
  1916                           
  1917                           ;Proyecto_SSE1_13_05.c: 35:     TRISDbits.RD7=1;
  1918  00002E  8E95               	bsf	3989,7,c	;volatile
  1919                           
  1920                           ;Proyecto_SSE1_13_05.c: 36:     TRISCbits.TRISC0=0;
  1921  000030  9094               	bcf	3988,0,c	;volatile
  1922                           
  1923                           ;Proyecto_SSE1_13_05.c: 37:     TRISB=0xF0;
  1924  000032  0EF0               	movlw	240
  1925  000034  6E93               	movwf	3987,c	;volatile
  1926                           
  1927                           ;Proyecto_SSE1_13_05.c: 38:     TRISE=0;
  1928  000036  0E00               	movlw	0
  1929  000038  6E96               	movwf	3990,c	;volatile
  1930                           
  1931                           ;Proyecto_SSE1_13_05.c: 39:     TRISAbits.RA0=1;
  1932  00003A  8092               	bsf	3986,0,c	;volatile
  1933                           
  1934                           ;Proyecto_SSE1_13_05.c: 41:     Lcd_Init();
  1935  00003C  ECB7  F01E         	call	_Lcd_Init	;wreg free
  1936                           
  1937                           ;Proyecto_SSE1_13_05.c: 42:     Lcd_Cmd(1);
  1938  000040  0E01               	movlw	1
  1939  000042  EC28  F01E         	call	_Lcd_Cmd
  1940                           
  1941                           ;Proyecto_SSE1_13_05.c: 43:     Lcd_Cmd(12);
  1942  000046  0E0C               	movlw	12
  1943  000048  EC28  F01E         	call	_Lcd_Cmd
  1944                           
  1945                           ;Proyecto_SSE1_13_05.c: 44:     _delay((unsigned long)((100)*(12000000/4000.0)));
  1946  00004C  0E02               	movlw	2
  1947  00004E  0100               	movlb	0	; () banked
  1948  000050  6FE5               	movwf	(??_main+1)& (0+255),b
  1949  000052  0E86               	movlw	134
  1950  000054  6FE4               	movwf	??_main& (0+255),b
  1951  000056  0E99               	movlw	153
  1952  000058                     u7027:
  1953  000058  2EE8               	decfsz	wreg,f,c
  1954  00005A  D7FE               	bra	u7027
  1955  00005C  2FE4               	decfsz	??_main& (0+255),f,b
  1956  00005E  D7FC               	bra	u7027
  1957  000060  2FE5               	decfsz	(??_main+1)& (0+255),f,b
  1958  000062  D7FA               	bra	u7027
  1959                           
  1960                           ;Proyecto_SSE1_13_05.c: 46:     PORTDbits.RD6=0;
  1961  000064  9C83               	bcf	3971,6,c	;volatile
  1962                           
  1963                           ;Proyecto_SSE1_13_05.c: 47:     PORTDbits.RD7=0;
  1964  000066  9E83               	bcf	3971,7,c	;volatile
  1965                           
  1966                           ;Proyecto_SSE1_13_05.c: 48:     LATCbits.LATC0=0;
  1967  000068  908B               	bcf	3979,0,c	;volatile
  1968                           
  1969                           ;Proyecto_SSE1_13_05.c: 49:     PORTB=0x00;
  1970  00006A  0E00               	movlw	0
  1971  00006C  6E81               	movwf	3969,c	;volatile
  1972                           
  1973                           ;Proyecto_SSE1_13_05.c: 50:     LATE=0b000;
  1974  00006E  0E00               	movlw	0
  1975  000070  6E8D               	movwf	3981,c	;volatile
  1976                           
  1977                           ;Proyecto_SSE1_13_05.c: 51:     PORTAbits.RA0=0;
  1978  000072  9080               	bcf	3968,0,c	;volatile
  1979                           
  1980                           ;Proyecto_SSE1_13_05.c: 52:     r_jacuzzi=0;
  1981  000074  0E00               	movlw	0
  1982  000076  0100               	movlb	0	; () banked
  1983  000078  6FF7               	movwf	(_r_jacuzzi+1)& (0+255),b
  1984  00007A  0E00               	movlw	0
  1985  00007C  6FF6               	movwf	_r_jacuzzi& (0+255),b
  1986                           
  1987                           ; BSR set to: 0
  1988                           ;Proyecto_SSE1_13_05.c: 53:     r_master=0;
  1989  00007E  0E00               	movlw	0
  1990  000080  6FF5               	movwf	(_r_master+1)& (0+255),b
  1991  000082  0E00               	movlw	0
  1992  000084  6FF4               	movwf	_r_master& (0+255),b
  1993                           
  1994                           ; BSR set to: 0
  1995                           ;Proyecto_SSE1_13_05.c: 54:     r_nomal=0;
  1996  000086  0E00               	movlw	0
  1997  000088  6FF9               	movwf	(_r_nomal+1)& (0+255),b
  1998  00008A  0E00               	movlw	0
  1999  00008C  6FF8               	movwf	_r_nomal& (0+255),b
  2000  00008E                     l6420:
  2001                           
  2002                           ;Proyecto_SSE1_13_05.c: 57:         if(PORTDbits.RD7==0 || PORTDbits.RD6==0){
  2003  00008E  AE83               	btfss	3971,7,c	;volatile
  2004  000090  D003               	goto	u6720
  2005  000092  BC83               	btfsc	3971,6,c	;volatile
  2006  000094  EF17  F008         	goto	l6910
  2007  000098                     u6720:
  2008                           
  2009                           ;Proyecto_SSE1_13_05.c: 58:             if((r_nomal==0)&&(r_jacuzzi==0)&&(r_master==0)){
  2010  000098  0100               	movlb	0	; () banked
  2011  00009A  51F8               	movf	_r_nomal& (0+255),w,b
  2012  00009C  11F9               	iorwf	(_r_nomal+1)& (0+255),w,b
  2013  00009E  A4D8               	btfss	status,2,c
  2014  0000A0  D00B               	goto	l6432
  2015                           
  2016                           ; BSR set to: 0
  2017  0000A2  51F6               	movf	_r_jacuzzi& (0+255),w,b
  2018  0000A4  11F7               	iorwf	(_r_jacuzzi+1)& (0+255),w,b
  2019  0000A6  A4D8               	btfss	status,2,c
  2020  0000A8  D007               	goto	l6432
  2021                           
  2022                           ; BSR set to: 0
  2023  0000AA  51F4               	movf	_r_master& (0+255),w,b
  2024  0000AC  11F5               	iorwf	(_r_master+1)& (0+255),w,b
  2025  0000AE  A4D8               	btfss	status,2,c
  2026  0000B0  D003               	goto	l6432
  2027                           
  2028                           ; BSR set to: 0
  2029                           ;Proyecto_SSE1_13_05.c: 59:                 UART_Tx(250);
  2030  0000B2  0EFA               	movlw	250
  2031  0000B4  ECA6  F025         	call	_UART_Tx
  2032  0000B8                     l6432:
  2033                           
  2034                           ;Proyecto_SSE1_13_05.c: 61:             Lcd_Cmd(1);
  2035  0000B8  0E01               	movlw	1
  2036  0000BA  EC28  F01E         	call	_Lcd_Cmd
  2037                           
  2038                           ;Proyecto_SSE1_13_05.c: 62:             _delay((unsigned long)((100)*(12000000/4000.0)))
      +                          ;
  2039  0000BE  0E02               	movlw	2
  2040  0000C0  0100               	movlb	0	; () banked
  2041  0000C2  6FE5               	movwf	(??_main+1)& (0+255),b
  2042  0000C4  0E86               	movlw	134
  2043  0000C6  6FE4               	movwf	??_main& (0+255),b
  2044  0000C8  0E99               	movlw	153
  2045  0000CA                     u7037:
  2046  0000CA  2EE8               	decfsz	wreg,f,c
  2047  0000CC  D7FE               	bra	u7037
  2048  0000CE  2FE4               	decfsz	??_main& (0+255),f,b
  2049  0000D0  D7FC               	bra	u7037
  2050  0000D2  2FE5               	decfsz	(??_main+1)& (0+255),f,b
  2051  0000D4  D7FA               	bra	u7037
  2052                           
  2053                           ;Proyecto_SSE1_13_05.c: 63:             Lcd_Out(1,1,"Bienvenido al ");
  2054  0000D6  0E01               	movlw	1
  2055  0000D8  6E04               	movwf	Lcd_Out@x,c
  2056  0000DA  0ECF               	movlw	low STR_1
  2057  0000DC  6E05               	movwf	Lcd_Out@buffer,c
  2058  0000DE  0E7D               	movlw	high STR_1
  2059  0000E0  6E06               	movwf	Lcd_Out@buffer+1,c
  2060  0000E2  0E01               	movlw	1
  2061  0000E4  ECDA  F022         	call	_Lcd_Out
  2062                           
  2063                           ;Proyecto_SSE1_13_05.c: 64:             Lcd_Out(2,1,"MOTEL LA MILPA");
  2064  0000E8  0E01               	movlw	1
  2065  0000EA  6E04               	movwf	Lcd_Out@x,c
  2066  0000EC  0EDE               	movlw	low STR_2
  2067  0000EE  6E05               	movwf	Lcd_Out@buffer,c
  2068  0000F0  0E7D               	movlw	high STR_2
  2069  0000F2  6E06               	movwf	Lcd_Out@buffer+1,c
  2070  0000F4  0E02               	movlw	2
  2071  0000F6  ECDA  F022         	call	_Lcd_Out
  2072                           
  2073                           ;Proyecto_SSE1_13_05.c: 65:             _delay((unsigned long)((2000)*(12000000/4000.0))
      +                          );
  2074  0000FA  0E1F               	movlw	31
  2075  0000FC  0100               	movlb	0	; () banked
  2076  0000FE  6FE5               	movwf	(??_main+1)& (0+255),b
  2077  000100  0E71               	movlw	113
  2078  000102  6FE4               	movwf	??_main& (0+255),b
  2079  000104  0E1E               	movlw	30
  2080  000106                     u7047:
  2081  000106  2EE8               	decfsz	wreg,f,c
  2082  000108  D7FE               	bra	u7047
  2083  00010A  2FE4               	decfsz	??_main& (0+255),f,b
  2084  00010C  D7FC               	bra	u7047
  2085  00010E  2FE5               	decfsz	(??_main+1)& (0+255),f,b
  2086  000110  D7FA               	bra	u7047
  2087  000112  F000               	nop	
  2088                           
  2089                           ;Proyecto_SSE1_13_05.c: 66:             Lcd_Cmd(1);
  2090  000114  0E01               	movlw	1
  2091  000116  EC28  F01E         	call	_Lcd_Cmd
  2092                           
  2093                           ;Proyecto_SSE1_13_05.c: 67:             _delay((unsigned long)((100)*(12000000/4000.0)))
      +                          ;
  2094  00011A  0E02               	movlw	2
  2095  00011C  0100               	movlb	0	; () banked
  2096  00011E  6FE5               	movwf	(??_main+1)& (0+255),b
  2097  000120  0E86               	movlw	134
  2098  000122  6FE4               	movwf	??_main& (0+255),b
  2099  000124  0E99               	movlw	153
  2100  000126                     u7057:
  2101  000126  2EE8               	decfsz	wreg,f,c
  2102  000128  D7FE               	bra	u7057
  2103  00012A  2FE4               	decfsz	??_main& (0+255),f,b
  2104  00012C  D7FC               	bra	u7057
  2105  00012E  2FE5               	decfsz	(??_main+1)& (0+255),f,b
  2106  000130  D7FA               	bra	u7057
  2107                           
  2108                           ;Proyecto_SSE1_13_05.c: 68:             Lcd_Out(1,1,"Que habitacion ");
  2109  000132  0E01               	movlw	1
  2110  000134  6E04               	movwf	Lcd_Out@x,c
  2111  000136  0E80               	movlw	low STR_3
  2112  000138  6E05               	movwf	Lcd_Out@buffer,c
  2113  00013A  0E7D               	movlw	high STR_3
  2114  00013C  6E06               	movwf	Lcd_Out@buffer+1,c
  2115  00013E  0E01               	movlw	1
  2116  000140  ECDA  F022         	call	_Lcd_Out
  2117                           
  2118                           ;Proyecto_SSE1_13_05.c: 69:             Lcd_Out(2,4,"desea? ");
  2119  000144  0E04               	movlw	4
  2120  000146  6E04               	movwf	Lcd_Out@x,c
  2121  000148  0E90               	movlw	low STR_4
  2122  00014A  6E05               	movwf	Lcd_Out@buffer,c
  2123  00014C  0E7F               	movlw	high STR_4
  2124  00014E  6E06               	movwf	Lcd_Out@buffer+1,c
  2125  000150  0E02               	movlw	2
  2126  000152  ECDA  F022         	call	_Lcd_Out
  2127                           
  2128                           ;Proyecto_SSE1_13_05.c: 70:             _delay((unsigned long)((2000)*(12000000/4000.0))
      +                          );
  2129  000156  0E1F               	movlw	31
  2130  000158  0100               	movlb	0	; () banked
  2131  00015A  6FE5               	movwf	(??_main+1)& (0+255),b
  2132  00015C  0E71               	movlw	113
  2133  00015E  6FE4               	movwf	??_main& (0+255),b
  2134  000160  0E1E               	movlw	30
  2135  000162                     u7067:
  2136  000162  2EE8               	decfsz	wreg,f,c
  2137  000164  D7FE               	bra	u7067
  2138  000166  2FE4               	decfsz	??_main& (0+255),f,b
  2139  000168  D7FC               	bra	u7067
  2140  00016A  2FE5               	decfsz	(??_main+1)& (0+255),f,b
  2141  00016C  D7FA               	bra	u7067
  2142  00016E  F000               	nop	
  2143                           
  2144                           ;Proyecto_SSE1_13_05.c: 71:             Lcd_Cmd(1);
  2145  000170  0E01               	movlw	1
  2146  000172  EC28  F01E         	call	_Lcd_Cmd
  2147                           
  2148                           ;Proyecto_SSE1_13_05.c: 72:             _delay((unsigned long)((100)*(12000000/4000.0)))
      +                          ;
  2149  000176  0E02               	movlw	2
  2150  000178  0100               	movlb	0	; () banked
  2151  00017A  6FE5               	movwf	(??_main+1)& (0+255),b
  2152  00017C  0E86               	movlw	134
  2153  00017E  6FE4               	movwf	??_main& (0+255),b
  2154  000180  0E99               	movlw	153
  2155  000182                     u7077:
  2156  000182  2EE8               	decfsz	wreg,f,c
  2157  000184  D7FE               	bra	u7077
  2158  000186  2FE4               	decfsz	??_main& (0+255),f,b
  2159  000188  D7FC               	bra	u7077
  2160  00018A  2FE5               	decfsz	(??_main+1)& (0+255),f,b
  2161  00018C  D7FA               	bra	u7077
  2162                           
  2163                           ;Proyecto_SSE1_13_05.c: 73:             Lcd_Out(1,1,"Tenemos 3 tipos ");
  2164  00018E  0E01               	movlw	1
  2165  000190  6E04               	movwf	Lcd_Out@x,c
  2166  000192  0E5F               	movlw	low STR_5
  2167  000194  6E05               	movwf	Lcd_Out@buffer,c
  2168  000196  0E7D               	movlw	high STR_5
  2169  000198  6E06               	movwf	Lcd_Out@buffer+1,c
  2170  00019A  0E01               	movlw	1
  2171  00019C  ECDA  F022         	call	_Lcd_Out
  2172                           
  2173                           ;Proyecto_SSE1_13_05.c: 74:             Lcd_Out(2,1,"de habitaciones ");
  2174  0001A0  0E01               	movlw	1
  2175  0001A2  6E04               	movwf	Lcd_Out@x,c
  2176  0001A4  0E4E               	movlw	low STR_6
  2177  0001A6  6E05               	movwf	Lcd_Out@buffer,c
  2178  0001A8  0E7D               	movlw	high STR_6
  2179  0001AA  6E06               	movwf	Lcd_Out@buffer+1,c
  2180  0001AC  0E02               	movlw	2
  2181  0001AE  ECDA  F022         	call	_Lcd_Out
  2182                           
  2183                           ;Proyecto_SSE1_13_05.c: 75:             _delay((unsigned long)((2000)*(12000000/4000.0))
      +                          );
  2184  0001B2  0E1F               	movlw	31
  2185  0001B4  0100               	movlb	0	; () banked
  2186  0001B6  6FE5               	movwf	(??_main+1)& (0+255),b
  2187  0001B8  0E71               	movlw	113
  2188  0001BA  6FE4               	movwf	??_main& (0+255),b
  2189  0001BC  0E1E               	movlw	30
  2190  0001BE                     u7087:
  2191  0001BE  2EE8               	decfsz	wreg,f,c
  2192  0001C0  D7FE               	bra	u7087
  2193  0001C2  2FE4               	decfsz	??_main& (0+255),f,b
  2194  0001C4  D7FC               	bra	u7087
  2195  0001C6  2FE5               	decfsz	(??_main+1)& (0+255),f,b
  2196  0001C8  D7FA               	bra	u7087
  2197  0001CA  F000               	nop	
  2198                           
  2199                           ;Proyecto_SSE1_13_05.c: 76:              Lcd_Cmd(1);
  2200  0001CC  0E01               	movlw	1
  2201  0001CE  EC28  F01E         	call	_Lcd_Cmd
  2202                           
  2203                           ;Proyecto_SSE1_13_05.c: 77:             _delay((unsigned long)((100)*(12000000/4000.0)))
      +                          ;
  2204  0001D2  0E02               	movlw	2
  2205  0001D4  0100               	movlb	0	; () banked
  2206  0001D6  6FE5               	movwf	(??_main+1)& (0+255),b
  2207  0001D8  0E86               	movlw	134
  2208  0001DA  6FE4               	movwf	??_main& (0+255),b
  2209  0001DC  0E99               	movlw	153
  2210  0001DE                     u7097:
  2211  0001DE  2EE8               	decfsz	wreg,f,c
  2212  0001E0  D7FE               	bra	u7097
  2213  0001E2  2FE4               	decfsz	??_main& (0+255),f,b
  2214  0001E4  D7FC               	bra	u7097
  2215  0001E6  2FE5               	decfsz	(??_main+1)& (0+255),f,b
  2216  0001E8  D7FA               	bra	u7097
  2217                           
  2218                           ;Proyecto_SSE1_13_05.c: 78:             Lcd_Out(1,1,"Normal  jacuzzi ");
  2219  0001EA  0E01               	movlw	1
  2220  0001EC  6E04               	movwf	Lcd_Out@x,c
  2221  0001EE  0E3D               	movlw	low STR_7
  2222  0001F0  6E05               	movwf	Lcd_Out@buffer,c
  2223  0001F2  0E7D               	movlw	high STR_7
  2224  0001F4  6E06               	movwf	Lcd_Out@buffer+1,c
  2225  0001F6  0E01               	movlw	1
  2226  0001F8  ECDA  F022         	call	_Lcd_Out
  2227                           
  2228                           ;Proyecto_SSE1_13_05.c: 79:             Lcd_Out(2,2,"Master suite ");
  2229  0001FC  0E02               	movlw	2
  2230  0001FE  6E04               	movwf	Lcd_Out@x,c
  2231  000200  0E47               	movlw	low STR_8
  2232  000202  6E05               	movwf	Lcd_Out@buffer,c
  2233  000204  0E7E               	movlw	high STR_8
  2234  000206  6E06               	movwf	Lcd_Out@buffer+1,c
  2235  000208  0E02               	movlw	2
  2236  00020A  ECDA  F022         	call	_Lcd_Out
  2237                           
  2238                           ;Proyecto_SSE1_13_05.c: 80:             _delay((unsigned long)((2000)*(12000000/4000.0))
      +                          );
  2239  00020E  0E1F               	movlw	31
  2240  000210  0100               	movlb	0	; () banked
  2241  000212  6FE5               	movwf	(??_main+1)& (0+255),b
  2242  000214  0E71               	movlw	113
  2243  000216  6FE4               	movwf	??_main& (0+255),b
  2244  000218  0E1E               	movlw	30
  2245  00021A                     u7107:
  2246  00021A  2EE8               	decfsz	wreg,f,c
  2247  00021C  D7FE               	bra	u7107
  2248  00021E  2FE4               	decfsz	??_main& (0+255),f,b
  2249  000220  D7FC               	bra	u7107
  2250  000222  2FE5               	decfsz	(??_main+1)& (0+255),f,b
  2251  000224  D7FA               	bra	u7107
  2252  000226  F000               	nop	
  2253                           
  2254                           ;Proyecto_SSE1_13_05.c: 81:             Lcd_Cmd(1);
  2255  000228  0E01               	movlw	1
  2256  00022A  EC28  F01E         	call	_Lcd_Cmd
  2257                           
  2258                           ;Proyecto_SSE1_13_05.c: 82:             _delay((unsigned long)((100)*(12000000/4000.0)))
      +                          ;
  2259  00022E  0E02               	movlw	2
  2260  000230  0100               	movlb	0	; () banked
  2261  000232  6FE5               	movwf	(??_main+1)& (0+255),b
  2262  000234  0E86               	movlw	134
  2263  000236  6FE4               	movwf	??_main& (0+255),b
  2264  000238  0E99               	movlw	153
  2265  00023A                     u7117:
  2266  00023A  2EE8               	decfsz	wreg,f,c
  2267  00023C  D7FE               	bra	u7117
  2268  00023E  2FE4               	decfsz	??_main& (0+255),f,b
  2269  000240  D7FC               	bra	u7117
  2270  000242  2FE5               	decfsz	(??_main+1)& (0+255),f,b
  2271  000244  D7FA               	bra	u7117
  2272                           
  2273                           ;Proyecto_SSE1_13_05.c: 83:             Lcd_Out(1,1,"Normal a $250 ");
  2274  000246  0E01               	movlw	1
  2275  000248  6E04               	movwf	Lcd_Out@x,c
  2276  00024A  0EC0               	movlw	low STR_9
  2277  00024C  6E05               	movwf	Lcd_Out@buffer,c
  2278  00024E  0E7D               	movlw	high STR_9
  2279  000250  6E06               	movwf	Lcd_Out@buffer+1,c
  2280  000252  0E01               	movlw	1
  2281  000254  ECDA  F022         	call	_Lcd_Out
  2282                           
  2283                           ;Proyecto_SSE1_13_05.c: 84:             Lcd_Out(2,1,"Jacuzzi a $450 ");
  2284  000258  0E01               	movlw	1
  2285  00025A  6E04               	movwf	Lcd_Out@x,c
  2286  00025C  0E70               	movlw	low STR_10
  2287  00025E  6E05               	movwf	Lcd_Out@buffer,c
  2288  000260  0E7D               	movlw	high STR_10
  2289  000262  6E06               	movwf	Lcd_Out@buffer+1,c
  2290  000264  0E02               	movlw	2
  2291  000266  ECDA  F022         	call	_Lcd_Out
  2292                           
  2293                           ;Proyecto_SSE1_13_05.c: 85:             _delay((unsigned long)((2000)*(12000000/4000.0))
      +                          );
  2294  00026A  0E1F               	movlw	31
  2295  00026C  0100               	movlb	0	; () banked
  2296  00026E  6FE5               	movwf	(??_main+1)& (0+255),b
  2297  000270  0E71               	movlw	113
  2298  000272  6FE4               	movwf	??_main& (0+255),b
  2299  000274  0E1E               	movlw	30
  2300  000276                     u7127:
  2301  000276  2EE8               	decfsz	wreg,f,c
  2302  000278  D7FE               	bra	u7127
  2303  00027A  2FE4               	decfsz	??_main& (0+255),f,b
  2304  00027C  D7FC               	bra	u7127
  2305  00027E  2FE5               	decfsz	(??_main+1)& (0+255),f,b
  2306  000280  D7FA               	bra	u7127
  2307  000282  F000               	nop	
  2308                           
  2309                           ;Proyecto_SSE1_13_05.c: 86:             Lcd_Cmd(1);
  2310  000284  0E01               	movlw	1
  2311  000286  EC28  F01E         	call	_Lcd_Cmd
  2312                           
  2313                           ;Proyecto_SSE1_13_05.c: 87:             _delay((unsigned long)((100)*(12000000/4000.0)))
      +                          ;
  2314  00028A  0E02               	movlw	2
  2315  00028C  0100               	movlb	0	; () banked
  2316  00028E  6FE5               	movwf	(??_main+1)& (0+255),b
  2317  000290  0E86               	movlw	134
  2318  000292  6FE4               	movwf	??_main& (0+255),b
  2319  000294  0E99               	movlw	153
  2320  000296                     u7137:
  2321  000296  2EE8               	decfsz	wreg,f,c
  2322  000298  D7FE               	bra	u7137
  2323  00029A  2FE4               	decfsz	??_main& (0+255),f,b
  2324  00029C  D7FC               	bra	u7137
  2325  00029E  2FE5               	decfsz	(??_main+1)& (0+255),f,b
  2326  0002A0  D7FA               	bra	u7137
  2327                           
  2328                           ;Proyecto_SSE1_13_05.c: 88:             Lcd_Out(1,1,"Master suite a");
  2329  0002A2  0E01               	movlw	1
  2330  0002A4  6E04               	movwf	Lcd_Out@x,c
  2331  0002A6  0EFC               	movlw	low STR_11
  2332  0002A8  6E05               	movwf	Lcd_Out@buffer,c
  2333  0002AA  0E7D               	movlw	high STR_11
  2334  0002AC  6E06               	movwf	Lcd_Out@buffer+1,c
  2335  0002AE  0E01               	movlw	1
  2336  0002B0  ECDA  F022         	call	_Lcd_Out
  2337                           
  2338                           ;Proyecto_SSE1_13_05.c: 89:             Lcd_Out(2,4,"$600 ");
  2339  0002B4  0E04               	movlw	4
  2340  0002B6  6E04               	movwf	Lcd_Out@x,c
  2341  0002B8  0ECC               	movlw	low STR_12
  2342  0002BA  6E05               	movwf	Lcd_Out@buffer,c
  2343  0002BC  0E7F               	movlw	high STR_12
  2344  0002BE  6E06               	movwf	Lcd_Out@buffer+1,c
  2345  0002C0  0E02               	movlw	2
  2346  0002C2  ECDA  F022         	call	_Lcd_Out
  2347                           
  2348                           ;Proyecto_SSE1_13_05.c: 90:             _delay((unsigned long)((2000)*(12000000/4000.0))
      +                          );
  2349  0002C6  0E1F               	movlw	31
  2350  0002C8  0100               	movlb	0	; () banked
  2351  0002CA  6FE5               	movwf	(??_main+1)& (0+255),b
  2352  0002CC  0E71               	movlw	113
  2353  0002CE  6FE4               	movwf	??_main& (0+255),b
  2354  0002D0  0E1E               	movlw	30
  2355  0002D2                     u7147:
  2356  0002D2  2EE8               	decfsz	wreg,f,c
  2357  0002D4  D7FE               	bra	u7147
  2358  0002D6  2FE4               	decfsz	??_main& (0+255),f,b
  2359  0002D8  D7FC               	bra	u7147
  2360  0002DA  2FE5               	decfsz	(??_main+1)& (0+255),f,b
  2361  0002DC  D7FA               	bra	u7147
  2362  0002DE  F000               	nop	
  2363                           
  2364                           ;Proyecto_SSE1_13_05.c: 91:             Lcd_Cmd(1);
  2365  0002E0  0E01               	movlw	1
  2366  0002E2  EC28  F01E         	call	_Lcd_Cmd
  2367                           
  2368                           ;Proyecto_SSE1_13_05.c: 92:             _delay((unsigned long)((100)*(12000000/4000.0)))
      +                          ;
  2369  0002E6  0E02               	movlw	2
  2370  0002E8  0100               	movlb	0	; () banked
  2371  0002EA  6FE5               	movwf	(??_main+1)& (0+255),b
  2372  0002EC  0E86               	movlw	134
  2373  0002EE  6FE4               	movwf	??_main& (0+255),b
  2374  0002F0  0E99               	movlw	153
  2375  0002F2                     u7157:
  2376  0002F2  2EE8               	decfsz	wreg,f,c
  2377  0002F4  D7FE               	bra	u7157
  2378  0002F6  2FE4               	decfsz	??_main& (0+255),f,b
  2379  0002F8  D7FC               	bra	u7157
  2380  0002FA  2FE5               	decfsz	(??_main+1)& (0+255),f,b
  2381  0002FC  D7FA               	bra	u7157
  2382                           
  2383                           ;Proyecto_SSE1_13_05.c: 93:             Lcd_Out(1,1,"Habitaciones ");
  2384  0002FE  0E01               	movlw	1
  2385  000300  6E04               	movwf	Lcd_Out@x,c
  2386  000302  0E55               	movlw	low STR_13
  2387  000304  6E05               	movwf	Lcd_Out@buffer,c
  2388  000306  0E7E               	movlw	high STR_13
  2389  000308  6E06               	movwf	Lcd_Out@buffer+1,c
  2390  00030A  0E01               	movlw	1
  2391  00030C  ECDA  F022         	call	_Lcd_Out
  2392                           
  2393                           ;Proyecto_SSE1_13_05.c: 94:             Lcd_Out(2,4,"disponibles ");
  2394  000310  0E04               	movlw	4
  2395  000312  6E04               	movwf	Lcd_Out@x,c
  2396  000314  0E71               	movlw	low STR_14
  2397  000316  6E05               	movwf	Lcd_Out@buffer,c
  2398  000318  0E7E               	movlw	high STR_14
  2399  00031A  6E06               	movwf	Lcd_Out@buffer+1,c
  2400  00031C  0E02               	movlw	2
  2401  00031E  ECDA  F022         	call	_Lcd_Out
  2402                           
  2403                           ;Proyecto_SSE1_13_05.c: 95:             _delay((unsigned long)((2000)*(12000000/4000.0))
      +                          );
  2404  000322  0E1F               	movlw	31
  2405  000324  0100               	movlb	0	; () banked
  2406  000326  6FE5               	movwf	(??_main+1)& (0+255),b
  2407  000328  0E71               	movlw	113
  2408  00032A  6FE4               	movwf	??_main& (0+255),b
  2409  00032C  0E1E               	movlw	30
  2410  00032E                     u7167:
  2411  00032E  2EE8               	decfsz	wreg,f,c
  2412  000330  D7FE               	bra	u7167
  2413  000332  2FE4               	decfsz	??_main& (0+255),f,b
  2414  000334  D7FC               	bra	u7167
  2415  000336  2FE5               	decfsz	(??_main+1)& (0+255),f,b
  2416  000338  D7FA               	bra	u7167
  2417  00033A  F000               	nop	
  2418                           
  2419                           ;Proyecto_SSE1_13_05.c: 96:             Lcd_Cmd(1);
  2420  00033C  0E01               	movlw	1
  2421  00033E  EC28  F01E         	call	_Lcd_Cmd
  2422                           
  2423                           ;Proyecto_SSE1_13_05.c: 97:             Lcd_Out(1,1,"Habt Normal");
  2424  000342  0E01               	movlw	1
  2425  000344  6E04               	movwf	Lcd_Out@x,c
  2426  000346  0EF1               	movlw	low STR_15
  2427  000348  6E05               	movwf	Lcd_Out@buffer,c
  2428  00034A  0E7E               	movlw	high STR_15
  2429  00034C  6E06               	movwf	Lcd_Out@buffer+1,c
  2430  00034E  0E01               	movlw	1
  2431  000350  ECDA  F022         	call	_Lcd_Out
  2432                           
  2433                           ;Proyecto_SSE1_13_05.c: 99:             sprintf(palabra,"Displonible:%d",r_nomal);
  2434  000354  0E9D               	movlw	low _palabra
  2435  000356  0100               	movlb	0	; () banked
  2436  000358  6FA0               	movwf	sprintf@s& (0+255),b
  2437  00035A  0E01               	movlw	high _palabra
  2438  00035C  6FA1               	movwf	(sprintf@s+1)& (0+255),b
  2439  00035E  0E0B               	movlw	low STR_16
  2440  000360  6FA2               	movwf	sprintf@fmt& (0+255),b
  2441  000362  0E7E               	movlw	high STR_16
  2442  000364  6FA3               	movwf	(sprintf@fmt+1)& (0+255),b
  2443  000366  C0F8  F0A4         	movff	_r_nomal,?_sprintf+4
  2444  00036A  C0F9  F0A5         	movff	_r_nomal+1,?_sprintf+5
  2445  00036E  EC11  F024         	call	_sprintf	;wreg free
  2446                           
  2447                           ;Proyecto_SSE1_13_05.c: 100:             Lcd_Out2(2,1,palabra);
  2448  000372  0E01               	movlw	1
  2449  000374  6E04               	movwf	Lcd_Out2@x,c
  2450  000376  0E9D               	movlw	low _palabra
  2451  000378  6E05               	movwf	Lcd_Out2@buffer,c
  2452  00037A  0E01               	movlw	high _palabra
  2453  00037C  6E06               	movwf	Lcd_Out2@buffer+1,c
  2454  00037E  0E02               	movlw	2
  2455  000380  EC4D  F023         	call	_Lcd_Out2
  2456                           
  2457                           ;Proyecto_SSE1_13_05.c: 101:             _delay((unsigned long)((2000)*(12000000/4000.0)
      +                          ));
  2458  000384  0E1F               	movlw	31
  2459  000386  0100               	movlb	0	; () banked
  2460  000388  6FE5               	movwf	(??_main+1)& (0+255),b
  2461  00038A  0E71               	movlw	113
  2462  00038C  6FE4               	movwf	??_main& (0+255),b
  2463  00038E  0E1E               	movlw	30
  2464  000390                     u7177:
  2465  000390  2EE8               	decfsz	wreg,f,c
  2466  000392  D7FE               	bra	u7177
  2467  000394  2FE4               	decfsz	??_main& (0+255),f,b
  2468  000396  D7FC               	bra	u7177
  2469  000398  2FE5               	decfsz	(??_main+1)& (0+255),f,b
  2470  00039A  D7FA               	bra	u7177
  2471  00039C  F000               	nop	
  2472                           
  2473                           ;Proyecto_SSE1_13_05.c: 102:             Lcd_Cmd(1);
  2474  00039E  0E01               	movlw	1
  2475  0003A0  EC28  F01E         	call	_Lcd_Cmd
  2476                           
  2477                           ;Proyecto_SSE1_13_05.c: 103:             Lcd_Out(1,1,"Habt Jacuxxxi");
  2478  0003A4  0E01               	movlw	1
  2479  0003A6  6E04               	movwf	Lcd_Out@x,c
  2480  0003A8  0E63               	movlw	low STR_17
  2481  0003AA  6E05               	movwf	Lcd_Out@buffer,c
  2482  0003AC  0E7E               	movlw	high STR_17
  2483  0003AE  6E06               	movwf	Lcd_Out@buffer+1,c
  2484  0003B0  0E01               	movlw	1
  2485  0003B2  ECDA  F022         	call	_Lcd_Out
  2486                           
  2487                           ;Proyecto_SSE1_13_05.c: 105:             sprintf(palabra1,"Displonible:%d",r_jacuzzi);
  2488  0003B6  0E8C               	movlw	low _palabra1
  2489  0003B8  0100               	movlb	0	; () banked
  2490  0003BA  6FA0               	movwf	sprintf@s& (0+255),b
  2491  0003BC  0E01               	movlw	high _palabra1
  2492  0003BE  6FA1               	movwf	(sprintf@s+1)& (0+255),b
  2493  0003C0  0E0B               	movlw	low STR_16
  2494  0003C2  6FA2               	movwf	sprintf@fmt& (0+255),b
  2495  0003C4  0E7E               	movlw	high STR_16
  2496  0003C6  6FA3               	movwf	(sprintf@fmt+1)& (0+255),b
  2497  0003C8  C0F6  F0A4         	movff	_r_jacuzzi,?_sprintf+4
  2498  0003CC  C0F7  F0A5         	movff	_r_jacuzzi+1,?_sprintf+5
  2499  0003D0  EC11  F024         	call	_sprintf	;wreg free
  2500                           
  2501                           ;Proyecto_SSE1_13_05.c: 106:             Lcd_Out2(2,1,palabra1);
  2502  0003D4  0E01               	movlw	1
  2503  0003D6  6E04               	movwf	Lcd_Out2@x,c
  2504  0003D8  0E8C               	movlw	low _palabra1
  2505  0003DA  6E05               	movwf	Lcd_Out2@buffer,c
  2506  0003DC  0E01               	movlw	high _palabra1
  2507  0003DE  6E06               	movwf	Lcd_Out2@buffer+1,c
  2508  0003E0  0E02               	movlw	2
  2509  0003E2  EC4D  F023         	call	_Lcd_Out2
  2510                           
  2511                           ;Proyecto_SSE1_13_05.c: 107:             _delay((unsigned long)((2000)*(12000000/4000.0)
      +                          ));
  2512  0003E6  0E1F               	movlw	31
  2513  0003E8  0100               	movlb	0	; () banked
  2514  0003EA  6FE5               	movwf	(??_main+1)& (0+255),b
  2515  0003EC  0E71               	movlw	113
  2516  0003EE  6FE4               	movwf	??_main& (0+255),b
  2517  0003F0  0E1E               	movlw	30
  2518  0003F2                     u7187:
  2519  0003F2  2EE8               	decfsz	wreg,f,c
  2520  0003F4  D7FE               	bra	u7187
  2521  0003F6  2FE4               	decfsz	??_main& (0+255),f,b
  2522  0003F8  D7FC               	bra	u7187
  2523  0003FA  2FE5               	decfsz	(??_main+1)& (0+255),f,b
  2524  0003FC  D7FA               	bra	u7187
  2525  0003FE  F000               	nop	
  2526                           
  2527                           ;Proyecto_SSE1_13_05.c: 108:             Lcd_Cmd(1);
  2528  000400  0E01               	movlw	1
  2529  000402  EC28  F01E         	call	_Lcd_Cmd
  2530                           
  2531                           ;Proyecto_SSE1_13_05.c: 109:             Lcd_Out(1,1,"Master Suite");
  2532  000406  0E01               	movlw	1
  2533  000408  6E04               	movwf	Lcd_Out@x,c
  2534  00040A  0E98               	movlw	low STR_19
  2535  00040C  6E05               	movwf	Lcd_Out@buffer,c
  2536  00040E  0E7E               	movlw	high STR_19
  2537  000410  6E06               	movwf	Lcd_Out@buffer+1,c
  2538  000412  0E01               	movlw	1
  2539  000414  ECDA  F022         	call	_Lcd_Out
  2540                           
  2541                           ;Proyecto_SSE1_13_05.c: 111:             sprintf(palabra2,"Displonible:%d",r_master);
  2542  000418  0E7B               	movlw	low _palabra2
  2543  00041A  0100               	movlb	0	; () banked
  2544  00041C  6FA0               	movwf	sprintf@s& (0+255),b
  2545  00041E  0E01               	movlw	high _palabra2
  2546  000420  6FA1               	movwf	(sprintf@s+1)& (0+255),b
  2547  000422  0E0B               	movlw	low STR_16
  2548  000424  6FA2               	movwf	sprintf@fmt& (0+255),b
  2549  000426  0E7E               	movlw	high STR_16
  2550  000428  6FA3               	movwf	(sprintf@fmt+1)& (0+255),b
  2551  00042A  C0F4  F0A4         	movff	_r_master,?_sprintf+4
  2552  00042E  C0F5  F0A5         	movff	_r_master+1,?_sprintf+5
  2553  000432  EC11  F024         	call	_sprintf	;wreg free
  2554                           
  2555                           ;Proyecto_SSE1_13_05.c: 112:             Lcd_Out2(2,1,palabra2);
  2556  000436  0E01               	movlw	1
  2557  000438  6E04               	movwf	Lcd_Out2@x,c
  2558  00043A  0E7B               	movlw	low _palabra2
  2559  00043C  6E05               	movwf	Lcd_Out2@buffer,c
  2560  00043E  0E01               	movlw	high _palabra2
  2561  000440  6E06               	movwf	Lcd_Out2@buffer+1,c
  2562  000442  0E02               	movlw	2
  2563  000444  EC4D  F023         	call	_Lcd_Out2
  2564                           
  2565                           ;Proyecto_SSE1_13_05.c: 113:             _delay((unsigned long)((2000)*(12000000/4000.0)
      +                          ));
  2566  000448  0E1F               	movlw	31
  2567  00044A  0100               	movlb	0	; () banked
  2568  00044C  6FE5               	movwf	(??_main+1)& (0+255),b
  2569  00044E  0E71               	movlw	113
  2570  000450  6FE4               	movwf	??_main& (0+255),b
  2571  000452  0E1E               	movlw	30
  2572  000454                     u7197:
  2573  000454  2EE8               	decfsz	wreg,f,c
  2574  000456  D7FE               	bra	u7197
  2575  000458  2FE4               	decfsz	??_main& (0+255),f,b
  2576  00045A  D7FC               	bra	u7197
  2577  00045C  2FE5               	decfsz	(??_main+1)& (0+255),f,b
  2578  00045E  D7FA               	bra	u7197
  2579  000460  F000               	nop	
  2580                           
  2581                           ;Proyecto_SSE1_13_05.c: 114:             Lcd_Cmd(1);
  2582  000462  0E01               	movlw	1
  2583  000464  EC28  F01E         	call	_Lcd_Cmd
  2584                           
  2585                           ;Proyecto_SSE1_13_05.c: 115:             Lcd_Out(1,1,"Esc Habitacion");
  2586  000468  0E01               	movlw	1
  2587  00046A  6E04               	movwf	Lcd_Out@x,c
  2588  00046C  0E1A               	movlw	low STR_21
  2589  00046E  6E05               	movwf	Lcd_Out@buffer,c
  2590  000470  0E7E               	movlw	high STR_21
  2591  000472  6E06               	movwf	Lcd_Out@buffer+1,c
  2592  000474  0E01               	movlw	1
  2593  000476  ECDA  F022         	call	_Lcd_Out
  2594                           
  2595                           ;Proyecto_SSE1_13_05.c: 116:             valor=0;
  2596  00047A  0E00               	movlw	0
  2597  00047C  0100               	movlb	0	; () banked
  2598  00047E  6FFF               	movwf	_valor& (0+255),b
  2599                           
  2600                           ;Proyecto_SSE1_13_05.c: 117:             while(valor!='*'){
  2601  000480  D02B               	goto	l6552
  2602  000482                     l6538:
  2603                           
  2604                           ; BSR set to: 0
  2605                           ;Proyecto_SSE1_13_05.c: 118:                 teclado();
  2606  000482  ECD1  F020         	call	_teclado	;wreg free
  2607                           
  2608                           ;Proyecto_SSE1_13_05.c: 119:                 if(valor=='1' || valor=='2' || valor=='3' |
      +                          | valor== 'A'){
  2609  000486  0E31               	movlw	49
  2610  000488  0100               	movlb	0	; () banked
  2611  00048A  19FF               	xorwf	_valor& (0+255),w,b
  2612  00048C  B4D8               	btfsc	status,2,c
  2613  00048E  D00C               	goto	u6790
  2614                           
  2615                           ; BSR set to: 0
  2616  000490  0E32               	movlw	50
  2617  000492  19FF               	xorwf	_valor& (0+255),w,b
  2618  000494  B4D8               	btfsc	status,2,c
  2619  000496  D008               	goto	u6790
  2620                           
  2621                           ; BSR set to: 0
  2622  000498  0E33               	movlw	51
  2623  00049A  19FF               	xorwf	_valor& (0+255),w,b
  2624  00049C  B4D8               	btfsc	status,2,c
  2625  00049E  D004               	goto	u6790
  2626                           
  2627                           ; BSR set to: 0
  2628  0004A0  0E41               	movlw	65
  2629  0004A2  19FF               	xorwf	_valor& (0+255),w,b
  2630  0004A4  A4D8               	btfss	status,2,c
  2631  0004A6  D018               	goto	l6552
  2632  0004A8                     u6790:
  2633                           
  2634                           ; BSR set to: 0
  2635                           ;Proyecto_SSE1_13_05.c: 120:                     ptr_valor=valor;
  2636  0004A8  C0FF  F0FE         	movff	_valor,_ptr_valor
  2637                           
  2638                           ; BSR set to: 0
  2639                           ;Proyecto_SSE1_13_05.c: 121:                     sprintf(palabra,"Tipo:%c",ptr_valor);
  2640  0004AC  0E9D               	movlw	low _palabra
  2641  0004AE  6FA0               	movwf	sprintf@s& (0+255),b
  2642  0004B0  0E01               	movlw	high _palabra
  2643  0004B2  6FA1               	movwf	(sprintf@s+1)& (0+255),b
  2644  0004B4  0E98               	movlw	low STR_22
  2645  0004B6  6FA2               	movwf	sprintf@fmt& (0+255),b
  2646  0004B8  0E7F               	movlw	high STR_22
  2647  0004BA  6FA3               	movwf	(sprintf@fmt+1)& (0+255),b
  2648  0004BC  C0FE  F0A4         	movff	_ptr_valor,?_sprintf+4
  2649  0004C0  6BA5               	clrf	(?_sprintf+5)& (0+255),b
  2650  0004C2  EC11  F024         	call	_sprintf	;wreg free
  2651                           
  2652                           ;Proyecto_SSE1_13_05.c: 122:                     Lcd_Out2(2,1,palabra);
  2653  0004C6  0E01               	movlw	1
  2654  0004C8  6E04               	movwf	Lcd_Out2@x,c
  2655  0004CA  0E9D               	movlw	low _palabra
  2656  0004CC  6E05               	movwf	Lcd_Out2@buffer,c
  2657  0004CE  0E01               	movlw	high _palabra
  2658  0004D0  6E06               	movwf	Lcd_Out2@buffer+1,c
  2659  0004D2  0E02               	movlw	2
  2660  0004D4  EC4D  F023         	call	_Lcd_Out2
  2661  0004D8                     l6552:
  2662                           
  2663                           ;Proyecto_SSE1_13_05.c: 117:             while(valor!='*'){
  2664  0004D8  0E2A               	movlw	42
  2665  0004DA  0100               	movlb	0	; () banked
  2666  0004DC  19FF               	xorwf	_valor& (0+255),w,b
  2667  0004DE  A4D8               	btfss	status,2,c
  2668  0004E0  D7D0               	goto	l6538
  2669                           
  2670                           ; BSR set to: 0
  2671                           ;Proyecto_SSE1_13_05.c: 125:             valor=0;
  2672  0004E2  0E00               	movlw	0
  2673  0004E4  6FFF               	movwf	_valor& (0+255),b
  2674                           
  2675                           ; BSR set to: 0
  2676                           ;Proyecto_SSE1_13_05.c: 126:             if((r_nomal==0)&&(r_jacuzzi==0)&&(r_master==0))
      +                          {
  2677  0004E6  51F8               	movf	_r_nomal& (0+255),w,b
  2678  0004E8  11F9               	iorwf	(_r_nomal+1)& (0+255),w,b
  2679  0004EA  A4D8               	btfss	status,2,c
  2680  0004EC  EFEC  F007         	goto	l6900
  2681                           
  2682                           ; BSR set to: 0
  2683  0004F0  51F6               	movf	_r_jacuzzi& (0+255),w,b
  2684  0004F2  11F7               	iorwf	(_r_jacuzzi+1)& (0+255),w,b
  2685  0004F4  A4D8               	btfss	status,2,c
  2686  0004F6  EFEC  F007         	goto	l6900
  2687                           
  2688                           ; BSR set to: 0
  2689  0004FA  51F4               	movf	_r_master& (0+255),w,b
  2690  0004FC  11F5               	iorwf	(_r_master+1)& (0+255),w,b
  2691  0004FE  A4D8               	btfss	status,2,c
  2692  000500  EFEC  F007         	goto	l6900
  2693                           
  2694                           ; BSR set to: 0
  2695                           ;Proyecto_SSE1_13_05.c: 127:                 valor=0;
  2696  000504  0E00               	movlw	0
  2697  000506  6FFF               	movwf	_valor& (0+255),b
  2698                           
  2699                           ; BSR set to: 0
  2700                           ;Proyecto_SSE1_13_05.c: 128:                 Lcd_Cmd(1);
  2701  000508  0E01               	movlw	1
  2702  00050A  EC28  F01E         	call	_Lcd_Cmd
  2703                           
  2704                           ;Proyecto_SSE1_13_05.c: 129:                 _delay((unsigned long)((100)*(12000000/4000
      +                          .0)));
  2705  00050E  0E02               	movlw	2
  2706  000510  0100               	movlb	0	; () banked
  2707  000512  6FE5               	movwf	(??_main+1)& (0+255),b
  2708  000514  0E86               	movlw	134
  2709  000516  6FE4               	movwf	??_main& (0+255),b
  2710  000518  0E99               	movlw	153
  2711  00051A                     u7207:
  2712  00051A  2EE8               	decfsz	wreg,f,c
  2713  00051C  D7FE               	bra	u7207
  2714  00051E  2FE4               	decfsz	??_main& (0+255),f,b
  2715  000520  D7FC               	bra	u7207
  2716  000522  2FE5               	decfsz	(??_main+1)& (0+255),f,b
  2717  000524  D7FA               	bra	u7207
  2718                           
  2719                           ;Proyecto_SSE1_13_05.c: 130:                 Lcd_Out(1,1,"Todo lleno");
  2720  000526  0E01               	movlw	1
  2721  000528  6E04               	movwf	Lcd_Out@x,c
  2722  00052A  0E41               	movlw	low STR_23
  2723  00052C  6E05               	movwf	Lcd_Out@buffer,c
  2724  00052E  0E7F               	movlw	high STR_23
  2725  000530  6E06               	movwf	Lcd_Out@buffer+1,c
  2726  000532  0E01               	movlw	1
  2727  000534  ECDA  F022         	call	_Lcd_Out
  2728                           
  2729                           ;Proyecto_SSE1_13_05.c: 131:                 Lcd_Out(2,1,"***************");
  2730  000538  0E01               	movlw	1
  2731  00053A  6E04               	movwf	Lcd_Out@x,c
  2732  00053C  0E90               	movlw	low STR_24
  2733  00053E  6E05               	movwf	Lcd_Out@buffer,c
  2734  000540  0E7D               	movlw	high STR_24
  2735  000542  6E06               	movwf	Lcd_Out@buffer+1,c
  2736  000544  0E02               	movlw	2
  2737  000546  ECDA  F022         	call	_Lcd_Out
  2738                           
  2739                           ;Proyecto_SSE1_13_05.c: 132:                 _delay((unsigned long)((2000)*(12000000/400
      +                          0.0)));
  2740  00054A  0E1F               	movlw	31
  2741  00054C  0100               	movlb	0	; () banked
  2742  00054E  6FE5               	movwf	(??_main+1)& (0+255),b
  2743  000550  0E71               	movlw	113
  2744  000552  6FE4               	movwf	??_main& (0+255),b
  2745  000554  0E1E               	movlw	30
  2746  000556                     u7217:
  2747  000556  2EE8               	decfsz	wreg,f,c
  2748  000558  D7FE               	bra	u7217
  2749  00055A  2FE4               	decfsz	??_main& (0+255),f,b
  2750  00055C  D7FC               	bra	u7217
  2751  00055E  2FE5               	decfsz	(??_main+1)& (0+255),f,b
  2752  000560  D7FA               	bra	u7217
  2753  000562  F000               	nop	
  2754                           
  2755                           ;Proyecto_SSE1_13_05.c: 133:                 Lcd_Cmd(1);
  2756  000564  0E01               	movlw	1
  2757  000566  EC28  F01E         	call	_Lcd_Cmd
  2758                           
  2759                           ;Proyecto_SSE1_13_05.c: 134:                 _delay((unsigned long)((100)*(12000000/4000
      +                          .0)));
  2760  00056A  0E02               	movlw	2
  2761  00056C  0100               	movlb	0	; () banked
  2762  00056E  6FE5               	movwf	(??_main+1)& (0+255),b
  2763  000570  0E86               	movlw	134
  2764  000572  6FE4               	movwf	??_main& (0+255),b
  2765  000574  0E99               	movlw	153
  2766  000576                     u7227:
  2767  000576  2EE8               	decfsz	wreg,f,c
  2768  000578  D7FE               	bra	u7227
  2769  00057A  2FE4               	decfsz	??_main& (0+255),f,b
  2770  00057C  D7FC               	bra	u7227
  2771  00057E  2FE5               	decfsz	(??_main+1)& (0+255),f,b
  2772  000580  D7FA               	bra	u7227
  2773                           
  2774                           ;Proyecto_SSE1_13_05.c: 135:                 Lcd_Out(1,1,"Opciones");
  2775  000582  0E01               	movlw	1
  2776  000584  6E04               	movwf	Lcd_Out@x,c
  2777  000586  0E87               	movlw	low STR_25
  2778  000588  6E05               	movwf	Lcd_Out@buffer,c
  2779  00058A  0E7F               	movlw	high STR_25
  2780  00058C  6E06               	movwf	Lcd_Out@buffer+1,c
  2781  00058E  0E01               	movlw	1
  2782  000590  ECDA  F022         	call	_Lcd_Out
  2783                           
  2784                           ;Proyecto_SSE1_13_05.c: 136:                 Lcd_Out(2,1,"***************");
  2785  000594  0E01               	movlw	1
  2786  000596  6E04               	movwf	Lcd_Out@x,c
  2787  000598  0E90               	movlw	low STR_24
  2788  00059A  6E05               	movwf	Lcd_Out@buffer,c
  2789  00059C  0E7D               	movlw	high STR_24
  2790  00059E  6E06               	movwf	Lcd_Out@buffer+1,c
  2791  0005A0  0E02               	movlw	2
  2792  0005A2  ECDA  F022         	call	_Lcd_Out
  2793                           
  2794                           ;Proyecto_SSE1_13_05.c: 137:                 _delay((unsigned long)((2000)*(12000000/400
      +                          0.0)));
  2795  0005A6  0E1F               	movlw	31
  2796  0005A8  0100               	movlb	0	; () banked
  2797  0005AA  6FE5               	movwf	(??_main+1)& (0+255),b
  2798  0005AC  0E71               	movlw	113
  2799  0005AE  6FE4               	movwf	??_main& (0+255),b
  2800  0005B0  0E1E               	movlw	30
  2801  0005B2                     u7237:
  2802  0005B2  2EE8               	decfsz	wreg,f,c
  2803  0005B4  D7FE               	bra	u7237
  2804  0005B6  2FE4               	decfsz	??_main& (0+255),f,b
  2805  0005B8  D7FC               	bra	u7237
  2806  0005BA  2FE5               	decfsz	(??_main+1)& (0+255),f,b
  2807  0005BC  D7FA               	bra	u7237
  2808  0005BE  F000               	nop	
  2809                           
  2810                           ;Proyecto_SSE1_13_05.c: 138:                 Lcd_Cmd(1);
  2811  0005C0  0E01               	movlw	1
  2812  0005C2  EC28  F01E         	call	_Lcd_Cmd
  2813                           
  2814                           ;Proyecto_SSE1_13_05.c: 139:                 _delay((unsigned long)((100)*(12000000/4000
      +                          .0)));
  2815  0005C6  0E02               	movlw	2
  2816  0005C8  0100               	movlb	0	; () banked
  2817  0005CA  6FE5               	movwf	(??_main+1)& (0+255),b
  2818  0005CC  0E86               	movlw	134
  2819  0005CE  6FE4               	movwf	??_main& (0+255),b
  2820  0005D0  0E99               	movlw	153
  2821  0005D2                     u7247:
  2822  0005D2  2EE8               	decfsz	wreg,f,c
  2823  0005D4  D7FE               	bra	u7247
  2824  0005D6  2FE4               	decfsz	??_main& (0+255),f,b
  2825  0005D8  D7FC               	bra	u7247
  2826  0005DA  2FE5               	decfsz	(??_main+1)& (0+255),f,b
  2827  0005DC  D7FA               	bra	u7247
  2828                           
  2829                           ;Proyecto_SSE1_13_05.c: 140:                 Lcd_Out(1,1,"A:Admin");
  2830  0005DE  0E01               	movlw	1
  2831  0005E0  6E04               	movwf	Lcd_Out@x,c
  2832  0005E2  0EA8               	movlw	low STR_27
  2833  0005E4  6E05               	movwf	Lcd_Out@buffer,c
  2834  0005E6  0E7F               	movlw	high STR_27
  2835  0005E8  6E06               	movwf	Lcd_Out@buffer+1,c
  2836  0005EA  0E01               	movlw	1
  2837  0005EC  ECDA  F022         	call	_Lcd_Out
  2838                           
  2839                           ;Proyecto_SSE1_13_05.c: 141:                 Lcd_Out(2,1,"B:Esperar");
  2840  0005F0  0E01               	movlw	1
  2841  0005F2  6E04               	movwf	Lcd_Out@x,c
  2842  0005F4  0E74               	movlw	low STR_28
  2843  0005F6  6E05               	movwf	Lcd_Out@buffer,c
  2844  0005F8  0E7F               	movlw	high STR_28
  2845  0005FA  6E06               	movwf	Lcd_Out@buffer+1,c
  2846  0005FC  0E02               	movlw	2
  2847  0005FE  ECDA  F022         	call	_Lcd_Out
  2848                           
  2849                           ;Proyecto_SSE1_13_05.c: 142:                 _delay((unsigned long)((2000)*(12000000/400
      +                          0.0)));
  2850  000602  0E1F               	movlw	31
  2851  000604  0100               	movlb	0	; () banked
  2852  000606  6FE5               	movwf	(??_main+1)& (0+255),b
  2853  000608  0E71               	movlw	113
  2854  00060A  6FE4               	movwf	??_main& (0+255),b
  2855  00060C  0E1E               	movlw	30
  2856  00060E                     u7257:
  2857  00060E  2EE8               	decfsz	wreg,f,c
  2858  000610  D7FE               	bra	u7257
  2859  000612  2FE4               	decfsz	??_main& (0+255),f,b
  2860  000614  D7FC               	bra	u7257
  2861  000616  2FE5               	decfsz	(??_main+1)& (0+255),f,b
  2862  000618  D7FA               	bra	u7257
  2863  00061A  F000               	nop	
  2864                           
  2865                           ;Proyecto_SSE1_13_05.c: 143:                 Lcd_Cmd(1);
  2866  00061C  0E01               	movlw	1
  2867  00061E  EC28  F01E         	call	_Lcd_Cmd
  2868                           
  2869                           ;Proyecto_SSE1_13_05.c: 144:                 _delay((unsigned long)((100)*(12000000/4000
      +                          .0)));
  2870  000622  0E02               	movlw	2
  2871  000624  0100               	movlb	0	; () banked
  2872  000626  6FE5               	movwf	(??_main+1)& (0+255),b
  2873  000628  0E86               	movlw	134
  2874  00062A  6FE4               	movwf	??_main& (0+255),b
  2875  00062C  0E99               	movlw	153
  2876  00062E                     u7267:
  2877  00062E  2EE8               	decfsz	wreg,f,c
  2878  000630  D7FE               	bra	u7267
  2879  000632  2FE4               	decfsz	??_main& (0+255),f,b
  2880  000634  D7FC               	bra	u7267
  2881  000636  2FE5               	decfsz	(??_main+1)& (0+255),f,b
  2882  000638  D7FA               	bra	u7267
  2883                           
  2884                           ;Proyecto_SSE1_13_05.c: 145:                 Lcd_Out(1,1,"C:Retirarse");
  2885  00063A  0E01               	movlw	1
  2886  00063C  6E04               	movwf	Lcd_Out@x,c
  2887  00063E  0EE5               	movlw	low STR_29
  2888  000640  6E05               	movwf	Lcd_Out@buffer,c
  2889  000642  0E7E               	movlw	high STR_29
  2890  000644  6E06               	movwf	Lcd_Out@buffer+1,c
  2891  000646  0E01               	movlw	1
  2892  000648  ECDA  F022         	call	_Lcd_Out
  2893                           
  2894                           ;Proyecto_SSE1_13_05.c: 146:                 Lcd_Out(2,1,"***************");
  2895  00064C  0E01               	movlw	1
  2896  00064E  6E04               	movwf	Lcd_Out@x,c
  2897  000650  0E90               	movlw	low STR_24
  2898  000652  6E05               	movwf	Lcd_Out@buffer,c
  2899  000654  0E7D               	movlw	high STR_24
  2900  000656  6E06               	movwf	Lcd_Out@buffer+1,c
  2901  000658  0E02               	movlw	2
  2902  00065A  ECDA  F022         	call	_Lcd_Out
  2903                           
  2904                           ;Proyecto_SSE1_13_05.c: 147:                 _delay((unsigned long)((2000)*(12000000/400
      +                          0.0)));
  2905  00065E  0E1F               	movlw	31
  2906  000660  0100               	movlb	0	; () banked
  2907  000662  6FE5               	movwf	(??_main+1)& (0+255),b
  2908  000664  0E71               	movlw	113
  2909  000666  6FE4               	movwf	??_main& (0+255),b
  2910  000668  0E1E               	movlw	30
  2911  00066A                     u7277:
  2912  00066A  2EE8               	decfsz	wreg,f,c
  2913  00066C  D7FE               	bra	u7277
  2914  00066E  2FE4               	decfsz	??_main& (0+255),f,b
  2915  000670  D7FC               	bra	u7277
  2916  000672  2FE5               	decfsz	(??_main+1)& (0+255),f,b
  2917  000674  D7FA               	bra	u7277
  2918  000676  F000               	nop	
  2919                           
  2920                           ;Proyecto_SSE1_13_05.c: 148:                 Lcd_Cmd(1);
  2921  000678  0E01               	movlw	1
  2922  00067A  EC28  F01E         	call	_Lcd_Cmd
  2923                           
  2924                           ;Proyecto_SSE1_13_05.c: 149:                 _delay((unsigned long)((100)*(12000000/4000
      +                          .0)));
  2925  00067E  0E02               	movlw	2
  2926  000680  0100               	movlb	0	; () banked
  2927  000682  6FE5               	movwf	(??_main+1)& (0+255),b
  2928  000684  0E86               	movlw	134
  2929  000686  6FE4               	movwf	??_main& (0+255),b
  2930  000688  0E99               	movlw	153
  2931  00068A                     u7287:
  2932  00068A  2EE8               	decfsz	wreg,f,c
  2933  00068C  D7FE               	bra	u7287
  2934  00068E  2FE4               	decfsz	??_main& (0+255),f,b
  2935  000690  D7FC               	bra	u7287
  2936  000692  2FE5               	decfsz	(??_main+1)& (0+255),f,b
  2937  000694  D7FA               	bra	u7287
  2938                           
  2939                           ;Proyecto_SSE1_13_05.c: 150:                 while(valor!='*'){
  2940  000696  D02F               	goto	l6622
  2941  000698                     l6608:
  2942                           
  2943                           ; BSR set to: 0
  2944                           ;Proyecto_SSE1_13_05.c: 151:                     teclado();
  2945  000698  ECD1  F020         	call	_teclado	;wreg free
  2946                           
  2947                           ;Proyecto_SSE1_13_05.c: 152:                     if((valor=='A')||(valor=='B')||(valor==
      +                          'C')){
  2948  00069C  0E41               	movlw	65
  2949  00069E  0100               	movlb	0	; () banked
  2950  0006A0  19FF               	xorwf	_valor& (0+255),w,b
  2951  0006A2  B4D8               	btfsc	status,2,c
  2952  0006A4  D008               	goto	u6860
  2953                           
  2954                           ; BSR set to: 0
  2955  0006A6  0E42               	movlw	66
  2956  0006A8  19FF               	xorwf	_valor& (0+255),w,b
  2957  0006AA  B4D8               	btfsc	status,2,c
  2958  0006AC  D004               	goto	u6860
  2959                           
  2960                           ; BSR set to: 0
  2961  0006AE  0E43               	movlw	67
  2962  0006B0  19FF               	xorwf	_valor& (0+255),w,b
  2963  0006B2  A4D8               	btfss	status,2,c
  2964  0006B4  D020               	goto	l6622
  2965  0006B6                     u6860:
  2966                           
  2967                           ; BSR set to: 0
  2968                           ;Proyecto_SSE1_13_05.c: 153:                         fill_room=valor;
  2969  0006B6  51FF               	movf	_valor& (0+255),w,b
  2970  0006B8  6FE8               	movwf	_fill_room& (0+255),b
  2971  0006BA  6BE9               	clrf	(_fill_room+1)& (0+255),b
  2972  0006BC  6BEA               	clrf	(_fill_room+2)& (0+255),b
  2973  0006BE  6BEB               	clrf	(_fill_room+3)& (0+255),b
  2974                           
  2975                           ; BSR set to: 0
  2976                           ;Proyecto_SSE1_13_05.c: 154:                         sprintf(palabra2,"Opcion:%c",fill_r
      +                          oom);
  2977  0006C0  0E7B               	movlw	low _palabra2
  2978  0006C2  6FA0               	movwf	sprintf@s& (0+255),b
  2979  0006C4  0E01               	movlw	high _palabra2
  2980  0006C6  6FA1               	movwf	(sprintf@s+1)& (0+255),b
  2981  0006C8  0E60               	movlw	low STR_31
  2982  0006CA  6FA2               	movwf	sprintf@fmt& (0+255),b
  2983  0006CC  0E7F               	movlw	high STR_31
  2984  0006CE  6FA3               	movwf	(sprintf@fmt+1)& (0+255),b
  2985  0006D0  C0E8  F0A4         	movff	_fill_room,?_sprintf+4
  2986  0006D4  C0E9  F0A5         	movff	_fill_room+1,?_sprintf+5
  2987  0006D8  C0EA  F0A6         	movff	_fill_room+2,?_sprintf+6
  2988  0006DC  C0EB  F0A7         	movff	_fill_room+3,?_sprintf+7
  2989  0006E0  EC11  F024         	call	_sprintf	;wreg free
  2990                           
  2991                           ;Proyecto_SSE1_13_05.c: 155:                         Lcd_Out2(2,1,palabra2);
  2992  0006E4  0E01               	movlw	1
  2993  0006E6  6E04               	movwf	Lcd_Out2@x,c
  2994  0006E8  0E7B               	movlw	low _palabra2
  2995  0006EA  6E05               	movwf	Lcd_Out2@buffer,c
  2996  0006EC  0E01               	movlw	high _palabra2
  2997  0006EE  6E06               	movwf	Lcd_Out2@buffer+1,c
  2998  0006F0  0E02               	movlw	2
  2999  0006F2  EC4D  F023         	call	_Lcd_Out2
  3000  0006F6                     l6622:
  3001                           
  3002                           ;Proyecto_SSE1_13_05.c: 150:                 while(valor!='*'){
  3003  0006F6  0E2A               	movlw	42
  3004  0006F8  0100               	movlb	0	; () banked
  3005  0006FA  19FF               	xorwf	_valor& (0+255),w,b
  3006  0006FC  B4D8               	btfsc	status,2,c
  3007  0006FE  D14B               	goto	l6700
  3008  000700  D7CB               	goto	l6608
  3009  000702                     l6624:
  3010                           
  3011                           ; BSR set to: 0
  3012                           ;Proyecto_SSE1_13_05.c: 160:                         valor=0;
  3013  000702  0E00               	movlw	0
  3014  000704  6FFF               	movwf	_valor& (0+255),b
  3015                           
  3016                           ; BSR set to: 0
  3017                           ;Proyecto_SSE1_13_05.c: 161:                         Lcd_Cmd(1);
  3018  000706  0E01               	movlw	1
  3019  000708  EC28  F01E         	call	_Lcd_Cmd
  3020                           
  3021                           ;Proyecto_SSE1_13_05.c: 162:                         _delay((unsigned long)((100)*(12000
      +                          000/4000.0)));
  3022  00070C  0E02               	movlw	2
  3023  00070E  0100               	movlb	0	; () banked
  3024  000710  6FE5               	movwf	(??_main+1)& (0+255),b
  3025  000712  0E86               	movlw	134
  3026  000714  6FE4               	movwf	??_main& (0+255),b
  3027  000716  0E99               	movlw	153
  3028  000718                     u7297:
  3029  000718  2EE8               	decfsz	wreg,f,c
  3030  00071A  D7FE               	bra	u7297
  3031  00071C  2FE4               	decfsz	??_main& (0+255),f,b
  3032  00071E  D7FC               	bra	u7297
  3033  000720  2FE5               	decfsz	(??_main+1)& (0+255),f,b
  3034  000722  D7FA               	bra	u7297
  3035                           
  3036                           ;Proyecto_SSE1_13_05.c: 163:                         Lcd_Out(1,1,"Permitame ir");
  3037  000724  0E01               	movlw	1
  3038  000726  6E04               	movwf	Lcd_Out@x,c
  3039  000728  0EA5               	movlw	low STR_32
  3040  00072A  6E05               	movwf	Lcd_Out@buffer,c
  3041  00072C  0E7E               	movlw	high STR_32
  3042  00072E  6E06               	movwf	Lcd_Out@buffer+1,c
  3043  000730  0E01               	movlw	1
  3044  000732  ECDA  F022         	call	_Lcd_Out
  3045                           
  3046                           ;Proyecto_SSE1_13_05.c: 164:                         Lcd_Out(2,1,"con el ADMIN");
  3047  000736  0E01               	movlw	1
  3048  000738  6E04               	movwf	Lcd_Out@x,c
  3049  00073A  0E8B               	movlw	low STR_33
  3050  00073C  6E05               	movwf	Lcd_Out@buffer,c
  3051  00073E  0E7E               	movlw	high STR_33
  3052  000740  6E06               	movwf	Lcd_Out@buffer+1,c
  3053  000742  0E02               	movlw	2
  3054  000744  ECDA  F022         	call	_Lcd_Out
  3055                           
  3056                           ;Proyecto_SSE1_13_05.c: 165:                         _delay((unsigned long)((1500)*(1200
      +                          0000/4000.0)));
  3057  000748  0E17               	movlw	23
  3058  00074A  0100               	movlb	0	; () banked
  3059  00074C  6FE5               	movwf	(??_main+1)& (0+255),b
  3060  00074E  0ED5               	movlw	213
  3061  000750  6FE4               	movwf	??_main& (0+255),b
  3062  000752  0E16               	movlw	22
  3063  000754                     u7307:
  3064  000754  2EE8               	decfsz	wreg,f,c
  3065  000756  D7FE               	bra	u7307
  3066  000758  2FE4               	decfsz	??_main& (0+255),f,b
  3067  00075A  D7FC               	bra	u7307
  3068  00075C  2FE5               	decfsz	(??_main+1)& (0+255),f,b
  3069  00075E  D7FA               	bra	u7307
  3070  000760  F000               	nop	
  3071                           
  3072                           ;Proyecto_SSE1_13_05.c: 166:                         Lcd_Cmd(1);
  3073  000762  0E01               	movlw	1
  3074  000764  EC28  F01E         	call	_Lcd_Cmd
  3075                           
  3076                           ;Proyecto_SSE1_13_05.c: 167:                         _delay((unsigned long)((100)*(12000
      +                          000/4000.0)));
  3077  000768  0E02               	movlw	2
  3078  00076A  0100               	movlb	0	; () banked
  3079  00076C  6FE5               	movwf	(??_main+1)& (0+255),b
  3080  00076E  0E86               	movlw	134
  3081  000770  6FE4               	movwf	??_main& (0+255),b
  3082  000772  0E99               	movlw	153
  3083  000774                     u7317:
  3084  000774  2EE8               	decfsz	wreg,f,c
  3085  000776  D7FE               	bra	u7317
  3086  000778  2FE4               	decfsz	??_main& (0+255),f,b
  3087  00077A  D7FC               	bra	u7317
  3088  00077C  2FE5               	decfsz	(??_main+1)& (0+255),f,b
  3089  00077E  D7FA               	bra	u7317
  3090                           
  3091                           ;Proyecto_SSE1_13_05.c: 168:                         Lcd_Out(1,1,"Checaremos las");
  3092  000780  0E01               	movlw	1
  3093  000782  6E04               	movwf	Lcd_Out@x,c
  3094  000784  0E29               	movlw	low STR_34
  3095  000786  6E05               	movwf	Lcd_Out@buffer,c
  3096  000788  0E7E               	movlw	high STR_34
  3097  00078A  6E06               	movwf	Lcd_Out@buffer+1,c
  3098  00078C  0E01               	movlw	1
  3099  00078E  ECDA  F022         	call	_Lcd_Out
  3100                           
  3101                           ;Proyecto_SSE1_13_05.c: 169:                         Lcd_Out(2,1,"habitaciones");
  3102  000792  0E01               	movlw	1
  3103  000794  6E04               	movwf	Lcd_Out@x,c
  3104  000796  0ECC               	movlw	low STR_35
  3105  000798  6E05               	movwf	Lcd_Out@buffer,c
  3106  00079A  0E7E               	movlw	high STR_35
  3107  00079C  6E06               	movwf	Lcd_Out@buffer+1,c
  3108  00079E  0E02               	movlw	2
  3109  0007A0  ECDA  F022         	call	_Lcd_Out
  3110                           
  3111                           ;Proyecto_SSE1_13_05.c: 170:                         _delay((unsigned long)((1500)*(1200
      +                          0000/4000.0)));
  3112  0007A4  0E17               	movlw	23
  3113  0007A6  0100               	movlb	0	; () banked
  3114  0007A8  6FE5               	movwf	(??_main+1)& (0+255),b
  3115  0007AA  0ED5               	movlw	213
  3116  0007AC  6FE4               	movwf	??_main& (0+255),b
  3117  0007AE  0E16               	movlw	22
  3118  0007B0                     u7327:
  3119  0007B0  2EE8               	decfsz	wreg,f,c
  3120  0007B2  D7FE               	bra	u7327
  3121  0007B4  2FE4               	decfsz	??_main& (0+255),f,b
  3122  0007B6  D7FC               	bra	u7327
  3123  0007B8  2FE5               	decfsz	(??_main+1)& (0+255),f,b
  3124  0007BA  D7FA               	bra	u7327
  3125  0007BC  F000               	nop	
  3126                           
  3127                           ;Proyecto_SSE1_13_05.c: 171:                         Lcd_Cmd(1);
  3128  0007BE  0E01               	movlw	1
  3129  0007C0  EC28  F01E         	call	_Lcd_Cmd
  3130                           
  3131                           ;Proyecto_SSE1_13_05.c: 172:                         _delay((unsigned long)((100)*(12000
      +                          000/4000.0)));
  3132  0007C4  0E02               	movlw	2
  3133  0007C6  0100               	movlb	0	; () banked
  3134  0007C8  6FE5               	movwf	(??_main+1)& (0+255),b
  3135  0007CA  0E86               	movlw	134
  3136  0007CC  6FE4               	movwf	??_main& (0+255),b
  3137  0007CE  0E99               	movlw	153
  3138  0007D0                     u7337:
  3139  0007D0  2EE8               	decfsz	wreg,f,c
  3140  0007D2  D7FE               	bra	u7337
  3141  0007D4  2FE4               	decfsz	??_main& (0+255),f,b
  3142  0007D6  D7FC               	bra	u7337
  3143  0007D8  2FE5               	decfsz	(??_main+1)& (0+255),f,b
  3144  0007DA  D7FA               	bra	u7337
  3145                           
  3146                           ;Proyecto_SSE1_13_05.c: 173:                         Lcd_Out(1,1,"***************");
  3147  0007DC  0E01               	movlw	1
  3148  0007DE  6E04               	movwf	Lcd_Out@x,c
  3149  0007E0  0E90               	movlw	low STR_24
  3150  0007E2  6E05               	movwf	Lcd_Out@buffer,c
  3151  0007E4  0E7D               	movlw	high STR_24
  3152  0007E6  6E06               	movwf	Lcd_Out@buffer+1,c
  3153  0007E8  0E01               	movlw	1
  3154  0007EA  ECDA  F022         	call	_Lcd_Out
  3155                           
  3156                           ;Proyecto_SSE1_13_05.c: 174:                         Lcd_Out(2,1,"***************");
  3157  0007EE  0E01               	movlw	1
  3158  0007F0  6E04               	movwf	Lcd_Out@x,c
  3159  0007F2  0E90               	movlw	low STR_24
  3160  0007F4  6E05               	movwf	Lcd_Out@buffer,c
  3161  0007F6  0E7D               	movlw	high STR_24
  3162  0007F8  6E06               	movwf	Lcd_Out@buffer+1,c
  3163  0007FA  0E02               	movlw	2
  3164  0007FC  ECDA  F022         	call	_Lcd_Out
  3165                           
  3166                           ;Proyecto_SSE1_13_05.c: 175:                         _delay((unsigned long)((1500)*(1200
      +                          0000/4000.0)));
  3167  000800  0E17               	movlw	23
  3168  000802  0100               	movlb	0	; () banked
  3169  000804  6FE5               	movwf	(??_main+1)& (0+255),b
  3170  000806  0ED5               	movlw	213
  3171  000808  6FE4               	movwf	??_main& (0+255),b
  3172  00080A  0E16               	movlw	22
  3173  00080C                     u7347:
  3174  00080C  2EE8               	decfsz	wreg,f,c
  3175  00080E  D7FE               	bra	u7347
  3176  000810  2FE4               	decfsz	??_main& (0+255),f,b
  3177  000812  D7FC               	bra	u7347
  3178  000814  2FE5               	decfsz	(??_main+1)& (0+255),f,b
  3179  000816  D7FA               	bra	u7347
  3180  000818  F000               	nop	
  3181                           
  3182                           ;Proyecto_SSE1_13_05.c: 176:                         Lcd_Cmd(1);
  3183  00081A  0E01               	movlw	1
  3184  00081C  EC28  F01E         	call	_Lcd_Cmd
  3185                           
  3186                           ;Proyecto_SSE1_13_05.c: 177:                         _delay((unsigned long)((100)*(12000
      +                          000/4000.0)));
  3187  000820  0E02               	movlw	2
  3188  000822  0100               	movlb	0	; () banked
  3189  000824  6FE5               	movwf	(??_main+1)& (0+255),b
  3190  000826  0E86               	movlw	134
  3191  000828  6FE4               	movwf	??_main& (0+255),b
  3192  00082A  0E99               	movlw	153
  3193  00082C                     u7357:
  3194  00082C  2EE8               	decfsz	wreg,f,c
  3195  00082E  D7FE               	bra	u7357
  3196  000830  2FE4               	decfsz	??_main& (0+255),f,b
  3197  000832  D7FC               	bra	u7357
  3198  000834  2FE5               	decfsz	(??_main+1)& (0+255),f,b
  3199  000836  D7FA               	bra	u7357
  3200                           
  3201                           ;Proyecto_SSE1_13_05.c: 178:                         clean_rooms();
  3202  000838  EC77  F01A         	call	_clean_rooms	;wreg free
  3203                           
  3204                           ;Proyecto_SSE1_13_05.c: 179:                         _delay((unsigned long)((1000)*(1200
      +                          0000/4000.0)));
  3205  00083C  0E10               	movlw	16
  3206  00083E  0100               	movlb	0	; () banked
  3207  000840  6FE5               	movwf	(??_main+1)& (0+255),b
  3208  000842  0E39               	movlw	57
  3209  000844  6FE4               	movwf	??_main& (0+255),b
  3210  000846  0E0D               	movlw	13
  3211  000848                     u7367:
  3212  000848  2EE8               	decfsz	wreg,f,c
  3213  00084A  D7FE               	bra	u7367
  3214  00084C  2FE4               	decfsz	??_main& (0+255),f,b
  3215  00084E  D7FC               	bra	u7367
  3216  000850  2FE5               	decfsz	(??_main+1)& (0+255),f,b
  3217  000852  D7FA               	bra	u7367
  3218  000854  D000               	nop2	
  3219                           
  3220                           ;Proyecto_SSE1_13_05.c: 180:                         break;
  3221  000856  D3C0               	goto	l6900
  3222  000858                     l6664:
  3223                           
  3224                           ; BSR set to: 0
  3225                           ;Proyecto_SSE1_13_05.c: 183:                         Lcd_Cmd(1);
  3226  000858  0E01               	movlw	1
  3227  00085A  EC28  F01E         	call	_Lcd_Cmd
  3228                           
  3229                           ;Proyecto_SSE1_13_05.c: 184:                         _delay((unsigned long)((100)*(12000
      +                          000/4000.0)));
  3230  00085E  0E02               	movlw	2
  3231  000860  0100               	movlb	0	; () banked
  3232  000862  6FE5               	movwf	(??_main+1)& (0+255),b
  3233  000864  0E86               	movlw	134
  3234  000866  6FE4               	movwf	??_main& (0+255),b
  3235  000868  0E99               	movlw	153
  3236  00086A                     u7377:
  3237  00086A  2EE8               	decfsz	wreg,f,c
  3238  00086C  D7FE               	bra	u7377
  3239  00086E  2FE4               	decfsz	??_main& (0+255),f,b
  3240  000870  D7FC               	bra	u7377
  3241  000872  2FE5               	decfsz	(??_main+1)& (0+255),f,b
  3242  000874  D7FA               	bra	u7377
  3243                           
  3244                           ;Proyecto_SSE1_13_05.c: 185:                         Lcd_Out(1,1,"PASE A LA");
  3245  000876  0E01               	movlw	1
  3246  000878  6E04               	movwf	Lcd_Out@x,c
  3247  00087A  0E56               	movlw	low STR_38
  3248  00087C  6E05               	movwf	Lcd_Out@buffer,c
  3249  00087E  0E7F               	movlw	high STR_38
  3250  000880  6E06               	movwf	Lcd_Out@buffer+1,c
  3251  000882  0E01               	movlw	1
  3252  000884  ECDA  F022         	call	_Lcd_Out
  3253                           
  3254                           ;Proyecto_SSE1_13_05.c: 186:                         Lcd_Out(2,1,"SALA DE ESPERA");
  3255  000888  0E01               	movlw	1
  3256  00088A  6E04               	movwf	Lcd_Out@x,c
  3257  00088C  0EED               	movlw	low STR_39
  3258  00088E  6E05               	movwf	Lcd_Out@buffer,c
  3259  000890  0E7D               	movlw	high STR_39
  3260  000892  6E06               	movwf	Lcd_Out@buffer+1,c
  3261  000894  0E02               	movlw	2
  3262  000896  ECDA  F022         	call	_Lcd_Out
  3263                           
  3264                           ;Proyecto_SSE1_13_05.c: 187:                         _delay((unsigned long)((1500)*(1200
      +                          0000/4000.0)));
  3265  00089A  0E17               	movlw	23
  3266  00089C  0100               	movlb	0	; () banked
  3267  00089E  6FE5               	movwf	(??_main+1)& (0+255),b
  3268  0008A0  0ED5               	movlw	213
  3269  0008A2  6FE4               	movwf	??_main& (0+255),b
  3270  0008A4  0E16               	movlw	22
  3271  0008A6                     u7387:
  3272  0008A6  2EE8               	decfsz	wreg,f,c
  3273  0008A8  D7FE               	bra	u7387
  3274  0008AA  2FE4               	decfsz	??_main& (0+255),f,b
  3275  0008AC  D7FC               	bra	u7387
  3276  0008AE  2FE5               	decfsz	(??_main+1)& (0+255),f,b
  3277  0008B0  D7FA               	bra	u7387
  3278  0008B2  F000               	nop	
  3279                           
  3280                           ;Proyecto_SSE1_13_05.c: 188:                         Lcd_Cmd(1);
  3281  0008B4  0E01               	movlw	1
  3282  0008B6  EC28  F01E         	call	_Lcd_Cmd
  3283                           
  3284                           ;Proyecto_SSE1_13_05.c: 189:                         _delay((unsigned long)((100)*(12000
      +                          000/4000.0)));
  3285  0008BA  0E02               	movlw	2
  3286  0008BC  0100               	movlb	0	; () banked
  3287  0008BE  6FE5               	movwf	(??_main+1)& (0+255),b
  3288  0008C0  0E86               	movlw	134
  3289  0008C2  6FE4               	movwf	??_main& (0+255),b
  3290  0008C4  0E99               	movlw	153
  3291  0008C6                     u7397:
  3292  0008C6  2EE8               	decfsz	wreg,f,c
  3293  0008C8  D7FE               	bra	u7397
  3294  0008CA  2FE4               	decfsz	??_main& (0+255),f,b
  3295  0008CC  D7FC               	bra	u7397
  3296  0008CE  2FE5               	decfsz	(??_main+1)& (0+255),f,b
  3297  0008D0  D7FA               	bra	u7397
  3298                           
  3299                           ;Proyecto_SSE1_13_05.c: 190:                         Lcd_Out(1,1,"***************");
  3300  0008D2  0E01               	movlw	1
  3301  0008D4  6E04               	movwf	Lcd_Out@x,c
  3302  0008D6  0E90               	movlw	low STR_24
  3303  0008D8  6E05               	movwf	Lcd_Out@buffer,c
  3304  0008DA  0E7D               	movlw	high STR_24
  3305  0008DC  6E06               	movwf	Lcd_Out@buffer+1,c
  3306  0008DE  0E01               	movlw	1
  3307  0008E0  ECDA  F022         	call	_Lcd_Out
  3308                           
  3309                           ;Proyecto_SSE1_13_05.c: 191:                         Lcd_Out(2,1,"***************");
  3310  0008E4  0E01               	movlw	1
  3311  0008E6  6E04               	movwf	Lcd_Out@x,c
  3312  0008E8  0E90               	movlw	low STR_24
  3313  0008EA  6E05               	movwf	Lcd_Out@buffer,c
  3314  0008EC  0E7D               	movlw	high STR_24
  3315  0008EE  6E06               	movwf	Lcd_Out@buffer+1,c
  3316  0008F0  0E02               	movlw	2
  3317  0008F2  ECDA  F022         	call	_Lcd_Out
  3318                           
  3319                           ;Proyecto_SSE1_13_05.c: 192:                         _delay((unsigned long)((1500)*(1200
      +                          0000/4000.0)));
  3320  0008F6  0E17               	movlw	23
  3321  0008F8  0100               	movlb	0	; () banked
  3322  0008FA  6FE5               	movwf	(??_main+1)& (0+255),b
  3323  0008FC  0ED5               	movlw	213
  3324  0008FE  6FE4               	movwf	??_main& (0+255),b
  3325  000900  0E16               	movlw	22
  3326  000902                     u7407:
  3327  000902  2EE8               	decfsz	wreg,f,c
  3328  000904  D7FE               	bra	u7407
  3329  000906  2FE4               	decfsz	??_main& (0+255),f,b
  3330  000908  D7FC               	bra	u7407
  3331  00090A  2FE5               	decfsz	(??_main+1)& (0+255),f,b
  3332  00090C  D7FA               	bra	u7407
  3333  00090E  F000               	nop	
  3334                           
  3335                           ;Proyecto_SSE1_13_05.c: 193:                         Lcd_Cmd(1);
  3336  000910  0E01               	movlw	1
  3337  000912  EC28  F01E         	call	_Lcd_Cmd
  3338                           
  3339                           ;Proyecto_SSE1_13_05.c: 194:                         _delay((unsigned long)((100)*(12000
      +                          000/4000.0)));
  3340  000916  0E02               	movlw	2
  3341  000918  0100               	movlb	0	; () banked
  3342  00091A  6FE5               	movwf	(??_main+1)& (0+255),b
  3343  00091C  0E86               	movlw	134
  3344  00091E  6FE4               	movwf	??_main& (0+255),b
  3345  000920  0E99               	movlw	153
  3346  000922                     u7417:
  3347  000922  2EE8               	decfsz	wreg,f,c
  3348  000924  D7FE               	bra	u7417
  3349  000926  2FE4               	decfsz	??_main& (0+255),f,b
  3350  000928  D7FC               	bra	u7417
  3351  00092A  2FE5               	decfsz	(??_main+1)& (0+255),f,b
  3352  00092C  D7FA               	bra	u7417
  3353                           
  3354                           ;Proyecto_SSE1_13_05.c: 195:                         count=0;
  3355  00092E  0E00               	movlw	0
  3356  000930  0100               	movlb	0	; () banked
  3357  000932  6FFB               	movwf	(_count+1)& (0+255),b
  3358  000934  0E00               	movlw	0
  3359  000936  6FFA               	movwf	_count& (0+255),b
  3360                           
  3361                           ;Proyecto_SSE1_13_05.c: 196:                         while(count!=100){
  3362  000938  D016               	goto	l175
  3363  00093A                     l176:
  3364                           
  3365                           ; BSR set to: 0
  3366                           ;Proyecto_SSE1_13_05.c: 197:                             LATCbits.LATC0=1;
  3367  00093A  808B               	bsf	3979,0,c	;volatile
  3368                           
  3369                           ; BSR set to: 0
  3370                           ;Proyecto_SSE1_13_05.c: 198:                             _delay((unsigned long)((1)*(120
      +                          00000/4000.0)));
  3371  00093C  0E04               	movlw	4
  3372  00093E  0100               	movlb	0	; () banked
  3373  000940  6FE4               	movwf	??_main& (0+255),b
  3374  000942  0EE4               	movlw	228
  3375  000944                     u7427:
  3376  000944  2EE8               	decfsz	wreg,f,c
  3377  000946  D7FE               	bra	u7427
  3378  000948  2FE4               	decfsz	??_main& (0+255),f,b
  3379  00094A  D7FC               	bra	u7427
  3380  00094C  F000               	nop	
  3381                           
  3382                           ;Proyecto_SSE1_13_05.c: 199:                             LATCbits.LATC0=0;
  3383  00094E  908B               	bcf	3979,0,c	;volatile
  3384                           
  3385                           ;Proyecto_SSE1_13_05.c: 200:                             _delay((unsigned long)((19)*(12
      +                          000000/4000.0)));
  3386  000950  0E4B               	movlw	75
  3387  000952  0100               	movlb	0	; () banked
  3388  000954  6FE4               	movwf	??_main& (0+255),b
  3389  000956  0E05               	movlw	5
  3390  000958                     u7437:
  3391  000958  2EE8               	decfsz	wreg,f,c
  3392  00095A  D7FE               	bra	u7437
  3393  00095C  2FE4               	decfsz	??_main& (0+255),f,b
  3394  00095E  D7FC               	bra	u7437
  3395                           
  3396                           ;Proyecto_SSE1_13_05.c: 201:                             count++;
  3397  000960  0100               	movlb	0	; () banked
  3398  000962  4BFA               	infsnz	_count& (0+255),f,b
  3399  000964  2BFB               	incf	(_count+1)& (0+255),f,b
  3400  000966                     l175:
  3401                           
  3402                           ; BSR set to: 0
  3403                           ;Proyecto_SSE1_13_05.c: 196:                         while(count!=100){
  3404  000966  0E64               	movlw	100
  3405  000968  19FA               	xorwf	_count& (0+255),w,b
  3406  00096A  11FB               	iorwf	(_count+1)& (0+255),w,b
  3407  00096C  A4D8               	btfss	status,2,c
  3408  00096E  D7E5               	goto	l176
  3409                           
  3410                           ; BSR set to: 0
  3411                           ;Proyecto_SSE1_13_05.c: 203:                         _delay((unsigned long)((5000)*(1200
      +                          0000/4000.0)));
  3412  000970  0E4D               	movlw	77
  3413  000972  0100               	movlb	0	; () banked
  3414  000974  6FE5               	movwf	(??_main+1)& (0+255),b
  3415  000976  0E19               	movlw	25
  3416  000978  6FE4               	movwf	??_main& (0+255),b
  3417  00097A  0E4F               	movlw	79
  3418  00097C                     u7447:
  3419  00097C  2EE8               	decfsz	wreg,f,c
  3420  00097E  D7FE               	bra	u7447
  3421  000980  2FE4               	decfsz	??_main& (0+255),f,b
  3422  000982  D7FC               	bra	u7447
  3423  000984  2FE5               	decfsz	(??_main+1)& (0+255),f,b
  3424  000986  D7FA               	bra	u7447
  3425  000988  D000               	nop2	
  3426                           
  3427                           ;Proyecto_SSE1_13_05.c: 204:                         ptr_valor=0;
  3428  00098A  0E00               	movlw	0
  3429  00098C  0100               	movlb	0	; () banked
  3430  00098E  D001               	goto	L1
  3431  000990                     l6696:
  3432                           
  3433                           ; BSR set to: 0
  3434                           ;Proyecto_SSE1_13_05.c: 208:                         ptr_valor='A';
  3435  000990  0E41               	movlw	65
  3436  000992                     L1:
  3437  000992  6FFE               	movwf	_ptr_valor& (0+255),b
  3438                           
  3439                           ;Proyecto_SSE1_13_05.c: 209:                         break;
  3440  000994  D321               	goto	l6900
  3441  000996                     l6700:
  3442                           
  3443                           ; BSR set to: 0
  3444  000996  C0E8  F0E4         	movff	_fill_room,??_main
  3445  00099A  C0E9  F0E5         	movff	_fill_room+1,??_main+1
  3446  00099E  C0EA  F0E6         	movff	_fill_room+2,??_main+2
  3447  0009A2  C0EB  F0E7         	movff	_fill_room+3,??_main+3
  3448                           
  3449                           ; Switch on 2 bytes has been partitioned into a top level switch of size 1, and 2 sub-sw
      +                          itches
  3450                           ; Switch size 1, requested type "simple"
  3451                           ; Number of cases is 1, Range of values is 0 to 0
  3452                           ; switch strategies available:
  3453                           ; Name         Instructions Cycles
  3454                           ; simple_byte            4     3 (average)
  3455                           ;	Chosen strategy is simple_byte
  3456  0009A6  51E7               	movf	(??_main+3)& (0+255),w,b
  3457  0009A8  0A00               	xorlw	0	; case 0
  3458  0009AA  B4D8               	btfsc	status,2,c
  3459  0009AC  D010               	goto	l7268
  3460  0009AE  D314               	goto	l6900
  3461  0009B0                     l7266:
  3462                           
  3463                           ; BSR set to: 0
  3464                           ; Switch on 2 bytes has been partitioned into a top level switch of size 1, and 1 sub-sw
      +                          itches
  3465                           ; Switch size 1, requested type "simple"
  3466                           ; Number of cases is 1, Range of values is 0 to 0
  3467                           ; switch strategies available:
  3468                           ; Name         Instructions Cycles
  3469                           ; simple_byte            4     3 (average)
  3470                           ;	Chosen strategy is simple_byte
  3471  0009B0  51E5               	movf	(??_main+1)& (0+255),w,b
  3472  0009B2  0A00               	xorlw	0	; case 0
  3473  0009B4  A4D8               	btfss	status,2,c
  3474  0009B6  D310               	goto	l6900
  3475                           
  3476                           ; BSR set to: 0
  3477                           ; Switch size 1, requested type "simple"
  3478                           ; Number of cases is 3, Range of values is 65 to 67
  3479                           ; switch strategies available:
  3480                           ; Name         Instructions Cycles
  3481                           ; simple_byte           10     6 (average)
  3482                           ;	Chosen strategy is simple_byte
  3483  0009B8  51E4               	movf	??_main& (0+255),w,b
  3484  0009BA  0A41               	xorlw	65	; case 65
  3485  0009BC  B4D8               	btfsc	status,2,c
  3486  0009BE  D6A1               	goto	l6624
  3487  0009C0  0A03               	xorlw	3	; case 66
  3488  0009C2  B4D8               	btfsc	status,2,c
  3489  0009C4  D749               	goto	l6664
  3490  0009C6  0A01               	xorlw	1	; case 67
  3491  0009C8  B4D8               	btfsc	status,2,c
  3492  0009CA  D7E2               	goto	l6696
  3493  0009CC  D305               	goto	l6900
  3494  0009CE                     l7268:
  3495                           
  3496                           ; BSR set to: 0
  3497                           ; Switch size 1, requested type "simple"
  3498                           ; Number of cases is 1, Range of values is 0 to 0
  3499                           ; switch strategies available:
  3500                           ; Name         Instructions Cycles
  3501                           ; simple_byte            4     3 (average)
  3502                           ;	Chosen strategy is simple_byte
  3503  0009CE  51E6               	movf	(??_main+2)& (0+255),w,b
  3504  0009D0  0A00               	xorlw	0	; case 0
  3505  0009D2  B4D8               	btfsc	status,2,c
  3506  0009D4  D7ED               	goto	l7266
  3507  0009D6  D300               	goto	l6900
  3508  0009D8                     l6702:
  3509                           
  3510                           ; BSR set to: 0
  3511  0009D8  0E00               	movlw	0
  3512  0009DA  6FFF               	movwf	_valor& (0+255),b
  3513                           
  3514                           ; BSR set to: 0
  3515                           ;Proyecto_SSE1_13_05.c: 215:                     if(r_nomal!=0){
  3516  0009DC  51F8               	movf	_r_nomal& (0+255),w,b
  3517  0009DE  11F9               	iorwf	(_r_nomal+1)& (0+255),w,b
  3518  0009E0  B4D8               	btfsc	status,2,c
  3519  0009E2  D076               	goto	l6734
  3520                           
  3521                           ; BSR set to: 0
  3522                           ;Proyecto_SSE1_13_05.c: 216:                         room_normal[r_nomal]='F';
  3523  0009E4  0E0C               	movlw	low _room_normal
  3524  0009E6  25F8               	addwf	_r_nomal& (0+255),w,b
  3525  0009E8  6ED9               	movwf	fsr2l,c
  3526  0009EA  0E01               	movlw	high _room_normal
  3527  0009EC  21F9               	addwfc	(_r_nomal+1)& (0+255),w,b
  3528  0009EE  6EDA               	movwf	fsr2h,c
  3529  0009F0  0E46               	movlw	70
  3530  0009F2  6EDF               	movwf	indf2,c
  3531                           
  3532                           ; BSR set to: 0
  3533                           ;Proyecto_SSE1_13_05.c: 217:                         Lcd_Cmd(1);
  3534  0009F4  0E01               	movlw	1
  3535  0009F6  EC28  F01E         	call	_Lcd_Cmd
  3536                           
  3537                           ;Proyecto_SSE1_13_05.c: 218:                         _delay((unsigned long)((100)*(12000
      +                          000/4000.0)));
  3538  0009FA  0E02               	movlw	2
  3539  0009FC  0100               	movlb	0	; () banked
  3540  0009FE  6FE5               	movwf	(??_main+1)& (0+255),b
  3541  000A00  0E86               	movlw	134
  3542  000A02  6FE4               	movwf	??_main& (0+255),b
  3543  000A04  0E99               	movlw	153
  3544  000A06                     u7457:
  3545  000A06  2EE8               	decfsz	wreg,f,c
  3546  000A08  D7FE               	bra	u7457
  3547  000A0A  2FE4               	decfsz	??_main& (0+255),f,b
  3548  000A0C  D7FC               	bra	u7457
  3549  000A0E  2FE5               	decfsz	(??_main+1)& (0+255),f,b
  3550  000A10  D7FA               	bra	u7457
  3551                           
  3552                           ;Proyecto_SSE1_13_05.c: 219:                         Lcd_Out(1,1,"Habitacion");
  3553  000A12  0E01               	movlw	1
  3554  000A14  6E04               	movwf	Lcd_Out@x,c
  3555  000A16  0E1E               	movlw	low (STR_21+4)
  3556  000A18  6E05               	movwf	Lcd_Out@buffer,c
  3557  000A1A  0E7E               	movlw	high (STR_21+4)
  3558  000A1C  6E06               	movwf	Lcd_Out@buffer+1,c
  3559  000A1E  0E01               	movlw	1
  3560  000A20  ECDA  F022         	call	_Lcd_Out
  3561                           
  3562                           ;Proyecto_SSE1_13_05.c: 220:                         Lcd_Out(2,1,"Normal");
  3563  000A24  0E01               	movlw	1
  3564  000A26  6E04               	movwf	Lcd_Out@x,c
  3565  000A28  0EF6               	movlw	low (STR_15+5)
  3566  000A2A  6E05               	movwf	Lcd_Out@buffer,c
  3567  000A2C  0E7E               	movlw	high (STR_15+5)
  3568  000A2E  6E06               	movwf	Lcd_Out@buffer+1,c
  3569  000A30  0E02               	movlw	2
  3570  000A32  ECDA  F022         	call	_Lcd_Out
  3571                           
  3572                           ;Proyecto_SSE1_13_05.c: 221:                         _delay((unsigned long)((2000)*(1200
      +                          0000/4000.0)));
  3573  000A36  0E1F               	movlw	31
  3574  000A38  0100               	movlb	0	; () banked
  3575  000A3A  6FE5               	movwf	(??_main+1)& (0+255),b
  3576  000A3C  0E71               	movlw	113
  3577  000A3E  6FE4               	movwf	??_main& (0+255),b
  3578  000A40  0E1E               	movlw	30
  3579  000A42                     u7467:
  3580  000A42  2EE8               	decfsz	wreg,f,c
  3581  000A44  D7FE               	bra	u7467
  3582  000A46  2FE4               	decfsz	??_main& (0+255),f,b
  3583  000A48  D7FC               	bra	u7467
  3584  000A4A  2FE5               	decfsz	(??_main+1)& (0+255),f,b
  3585  000A4C  D7FA               	bra	u7467
  3586  000A4E  F000               	nop	
  3587                           
  3588                           ;Proyecto_SSE1_13_05.c: 222:                         Lcd_Cmd(1);
  3589  000A50  0E01               	movlw	1
  3590  000A52  EC28  F01E         	call	_Lcd_Cmd
  3591                           
  3592                           ;Proyecto_SSE1_13_05.c: 223:                         _delay((unsigned long)((100)*(12000
      +                          000/4000.0)));
  3593  000A56  0E02               	movlw	2
  3594  000A58  0100               	movlb	0	; () banked
  3595  000A5A  6FE5               	movwf	(??_main+1)& (0+255),b
  3596  000A5C  0E86               	movlw	134
  3597  000A5E  6FE4               	movwf	??_main& (0+255),b
  3598  000A60  0E99               	movlw	153
  3599  000A62                     u7477:
  3600  000A62  2EE8               	decfsz	wreg,f,c
  3601  000A64  D7FE               	bra	u7477
  3602  000A66  2FE4               	decfsz	??_main& (0+255),f,b
  3603  000A68  D7FC               	bra	u7477
  3604  000A6A  2FE5               	decfsz	(??_main+1)& (0+255),f,b
  3605  000A6C  D7FA               	bra	u7477
  3606                           
  3607                           ;Proyecto_SSE1_13_05.c: 224:                         pago_de_Habitaciones(250);
  3608  000A6E  0E00               	movlw	0
  3609  000A70  0100               	movlb	0	; () banked
  3610  000A72  6FB3               	movwf	(pago_de_Habitaciones@price+1)& (0+255),b
  3611  000A74  0EFA               	movlw	250
  3612  000A76  6FB2               	movwf	pago_de_Habitaciones@price& (0+255),b
  3613  000A78  ECEF  F011         	call	_pago_de_Habitaciones	;wreg free
  3614                           
  3615                           ;Proyecto_SSE1_13_05.c: 225:                         envio_UART_Tx(10,r_nomal,0);
  3616  000A7C  C0F8  F002         	movff	_r_nomal,envio_UART_Tx@informacion
  3617  000A80  0E00               	movlw	0
  3618  000A82  6E04               	movwf	envio_UART_Tx@lugar+1,c
  3619  000A84  0E00               	movlw	0
  3620  000A86  6E03               	movwf	envio_UART_Tx@lugar,c
  3621  000A88  0E0A               	movlw	10
  3622  000A8A  EC85  F023         	call	_envio_UART_Tx
  3623                           
  3624                           ;Proyecto_SSE1_13_05.c: 226:                          while(count!=100){
  3625  000A8E  D016               	goto	l182
  3626  000A90                     l183:
  3627                           
  3628                           ; BSR set to: 0
  3629                           ;Proyecto_SSE1_13_05.c: 227:                             LATCbits.LATC0=1;
  3630  000A90  808B               	bsf	3979,0,c	;volatile
  3631                           
  3632                           ; BSR set to: 0
  3633                           ;Proyecto_SSE1_13_05.c: 228:                             _delay((unsigned long)((1)*(120
      +                          00000/4000.0)));
  3634  000A92  0E04               	movlw	4
  3635  000A94  0100               	movlb	0	; () banked
  3636  000A96  6FE4               	movwf	??_main& (0+255),b
  3637  000A98  0EE4               	movlw	228
  3638  000A9A                     u7487:
  3639  000A9A  2EE8               	decfsz	wreg,f,c
  3640  000A9C  D7FE               	bra	u7487
  3641  000A9E  2FE4               	decfsz	??_main& (0+255),f,b
  3642  000AA0  D7FC               	bra	u7487
  3643  000AA2  F000               	nop	
  3644                           
  3645                           ;Proyecto_SSE1_13_05.c: 229:                             LATCbits.LATC0=0;
  3646  000AA4  908B               	bcf	3979,0,c	;volatile
  3647                           
  3648                           ;Proyecto_SSE1_13_05.c: 230:                             _delay((unsigned long)((19)*(12
      +                          000000/4000.0)));
  3649  000AA6  0E4B               	movlw	75
  3650  000AA8  0100               	movlb	0	; () banked
  3651  000AAA  6FE4               	movwf	??_main& (0+255),b
  3652  000AAC  0E05               	movlw	5
  3653  000AAE                     u7497:
  3654  000AAE  2EE8               	decfsz	wreg,f,c
  3655  000AB0  D7FE               	bra	u7497
  3656  000AB2  2FE4               	decfsz	??_main& (0+255),f,b
  3657  000AB4  D7FC               	bra	u7497
  3658                           
  3659                           ;Proyecto_SSE1_13_05.c: 231:                             count++;
  3660  000AB6  0100               	movlb	0	; () banked
  3661  000AB8  4BFA               	infsnz	_count& (0+255),f,b
  3662  000ABA  2BFB               	incf	(_count+1)& (0+255),f,b
  3663  000ABC                     l182:
  3664                           
  3665                           ;Proyecto_SSE1_13_05.c: 226:                          while(count!=100){
  3666  000ABC  0E64               	movlw	100
  3667  000ABE  0100               	movlb	0	; () banked
  3668  000AC0  19FA               	xorwf	_count& (0+255),w,b
  3669  000AC2  11FB               	iorwf	(_count+1)& (0+255),w,b
  3670  000AC4  A4D8               	btfss	status,2,c
  3671  000AC6  D7E4               	goto	l183
  3672                           
  3673                           ; BSR set to: 0
  3674                           ;Proyecto_SSE1_13_05.c: 233:                         r_nomal--;
  3675  000AC8  07F8               	decf	_r_nomal& (0+255),f,b
  3676  000ACA  A0D8               	btfss	status,0,c
  3677  000ACC  07F9               	decf	(_r_nomal+1)& (0+255),f,b
  3678                           
  3679                           ;Proyecto_SSE1_13_05.c: 234:                     }
  3680  000ACE  D29A               	goto	l6902
  3681  000AD0                     l6734:
  3682                           
  3683                           ; BSR set to: 0
  3684                           ;Proyecto_SSE1_13_05.c: 236:                         Lcd_Cmd(1);
  3685  000AD0  0E01               	movlw	1
  3686  000AD2  EC28  F01E         	call	_Lcd_Cmd
  3687                           
  3688                           ;Proyecto_SSE1_13_05.c: 237:                         _delay((unsigned long)((100)*(12000
      +                          000/4000.0)));
  3689  000AD6  0E02               	movlw	2
  3690  000AD8  0100               	movlb	0	; () banked
  3691  000ADA  6FE5               	movwf	(??_main+1)& (0+255),b
  3692  000ADC  0E86               	movlw	134
  3693  000ADE  6FE4               	movwf	??_main& (0+255),b
  3694  000AE0  0E99               	movlw	153
  3695  000AE2                     u7507:
  3696  000AE2  2EE8               	decfsz	wreg,f,c
  3697  000AE4  D7FE               	bra	u7507
  3698  000AE6  2FE4               	decfsz	??_main& (0+255),f,b
  3699  000AE8  D7FC               	bra	u7507
  3700  000AEA  2FE5               	decfsz	(??_main+1)& (0+255),f,b
  3701  000AEC  D7FA               	bra	u7507
  3702                           
  3703                           ;Proyecto_SSE1_13_05.c: 238:                         Lcd_Out(1,5,"Sin ");
  3704  000AEE  0E05               	movlw	5
  3705  000AF0  6E04               	movwf	Lcd_Out@x,c
  3706  000AF2  0ED8               	movlw	low STR_44
  3707  000AF4  6E05               	movwf	Lcd_Out@buffer,c
  3708  000AF6  0E7F               	movlw	high STR_44
  3709  000AF8  6E06               	movwf	Lcd_Out@buffer+1,c
  3710  000AFA  0E01               	movlw	1
  3711  000AFC  ECDA  F022         	call	_Lcd_Out
  3712                           
  3713                           ;Proyecto_SSE1_13_05.c: 239:                         Lcd_Out(2,1,"Habitaciones de");
  3714  000B00  0E01               	movlw	1
  3715  000B02  6E04               	movwf	Lcd_Out@x,c
  3716  000B04  0EA0               	movlw	low STR_45
  3717  000B06  6E05               	movwf	Lcd_Out@buffer,c
  3718  000B08  0E7D               	movlw	high STR_45
  3719  000B0A  6E06               	movwf	Lcd_Out@buffer+1,c
  3720  000B0C  0E02               	movlw	2
  3721  000B0E  ECDA  F022         	call	_Lcd_Out
  3722                           
  3723                           ;Proyecto_SSE1_13_05.c: 240:                         Lcd_Cmd(1);
  3724  000B12  0E01               	movlw	1
  3725  000B14  EC28  F01E         	call	_Lcd_Cmd
  3726                           
  3727                           ;Proyecto_SSE1_13_05.c: 241:                         _delay((unsigned long)((100)*(12000
      +                          000/4000.0)));
  3728  000B18  0E02               	movlw	2
  3729  000B1A  0100               	movlb	0	; () banked
  3730  000B1C  6FE5               	movwf	(??_main+1)& (0+255),b
  3731  000B1E  0E86               	movlw	134
  3732  000B20  6FE4               	movwf	??_main& (0+255),b
  3733  000B22  0E99               	movlw	153
  3734  000B24                     u7517:
  3735  000B24  2EE8               	decfsz	wreg,f,c
  3736  000B26  D7FE               	bra	u7517
  3737  000B28  2FE4               	decfsz	??_main& (0+255),f,b
  3738  000B2A  D7FC               	bra	u7517
  3739  000B2C  2FE5               	decfsz	(??_main+1)& (0+255),f,b
  3740  000B2E  D7FA               	bra	u7517
  3741                           
  3742                           ;Proyecto_SSE1_13_05.c: 242:                         Lcd_Out(1,5,"ese tipo ");
  3743  000B30  0E05               	movlw	5
  3744  000B32  6E04               	movwf	Lcd_Out@x,c
  3745  000B34  0E4C               	movlw	low STR_46
  3746  000B36  6E05               	movwf	Lcd_Out@buffer,c
  3747  000B38  0E7F               	movlw	high STR_46
  3748  000B3A  6E06               	movwf	Lcd_Out@buffer+1,c
  3749  000B3C  0E01               	movlw	1
  3750  000B3E  ECDA  F022         	call	_Lcd_Out
  3751                           
  3752                           ;Proyecto_SSE1_13_05.c: 243:                         Lcd_Out(2,1,"disponibles");
  3753  000B42  0E01               	movlw	1
  3754  000B44  6E04               	movwf	Lcd_Out@x,c
  3755  000B46  0E09               	movlw	low STR_47
  3756  000B48  6E05               	movwf	Lcd_Out@buffer,c
  3757  000B4A  0E7F               	movlw	high STR_47
  3758  000B4C  6E06               	movwf	Lcd_Out@buffer+1,c
  3759  000B4E  0E02               	movlw	2
  3760  000B50  ECDA  F022         	call	_Lcd_Out
  3761                           
  3762                           ;Proyecto_SSE1_13_05.c: 244:                         Lcd_Cmd(1);
  3763  000B54  0E01               	movlw	1
  3764  000B56  EC28  F01E         	call	_Lcd_Cmd
  3765  000B5A                     l6750:
  3766                           
  3767                           ;Proyecto_SSE1_13_05.c: 245:                         _delay((unsigned long)((100)*(12000
      +                          000/4000.0)));
  3768  000B5A  0E02               	movlw	2
  3769  000B5C  0100               	movlb	0	; () banked
  3770  000B5E  6FE5               	movwf	(??_main+1)& (0+255),b
  3771  000B60  0E86               	movlw	134
  3772  000B62  6FE4               	movwf	??_main& (0+255),b
  3773  000B64  0E99               	movlw	153
  3774  000B66                     u7527:
  3775  000B66  2EE8               	decfsz	wreg,f,c
  3776  000B68  D7FE               	bra	u7527
  3777  000B6A  2FE4               	decfsz	??_main& (0+255),f,b
  3778  000B6C  D7FC               	bra	u7527
  3779  000B6E  2FE5               	decfsz	(??_main+1)& (0+255),f,b
  3780  000B70  D7FA               	bra	u7527
  3781                           
  3782                           ;Proyecto_SSE1_13_05.c: 246:                         opciones();
  3783  000B72  EC28  F00D         	call	_opciones	;wreg free
  3784                           
  3785                           ;Proyecto_SSE1_13_05.c: 247:                         break;
  3786  000B76  D246               	goto	l6902
  3787  000B78                     l6754:
  3788                           
  3789                           ; BSR set to: 0
  3790  000B78  0E00               	movlw	0
  3791  000B7A  6FFF               	movwf	_valor& (0+255),b
  3792                           
  3793                           ; BSR set to: 0
  3794                           ;Proyecto_SSE1_13_05.c: 252:                     if(r_jacuzzi!=0){
  3795  000B7C  51F6               	movf	_r_jacuzzi& (0+255),w,b
  3796  000B7E  11F7               	iorwf	(_r_jacuzzi+1)& (0+255),w,b
  3797  000B80  B4D8               	btfsc	status,2,c
  3798  000B82  D076               	goto	l6786
  3799                           
  3800                           ; BSR set to: 0
  3801                           ;Proyecto_SSE1_13_05.c: 253:                         room_jacuzzi[r_jacuzzi]='F';
  3802  000B84  0E06               	movlw	low _room_jacuzzi
  3803  000B86  25F6               	addwf	_r_jacuzzi& (0+255),w,b
  3804  000B88  6ED9               	movwf	fsr2l,c
  3805  000B8A  0E01               	movlw	high _room_jacuzzi
  3806  000B8C  21F7               	addwfc	(_r_jacuzzi+1)& (0+255),w,b
  3807  000B8E  6EDA               	movwf	fsr2h,c
  3808  000B90  0E46               	movlw	70
  3809  000B92  6EDF               	movwf	indf2,c
  3810                           
  3811                           ; BSR set to: 0
  3812                           ;Proyecto_SSE1_13_05.c: 254:                         Lcd_Cmd(1);
  3813  000B94  0E01               	movlw	1
  3814  000B96  EC28  F01E         	call	_Lcd_Cmd
  3815                           
  3816                           ;Proyecto_SSE1_13_05.c: 255:                         _delay((unsigned long)((100)*(12000
      +                          000/4000.0)));
  3817  000B9A  0E02               	movlw	2
  3818  000B9C  0100               	movlb	0	; () banked
  3819  000B9E  6FE5               	movwf	(??_main+1)& (0+255),b
  3820  000BA0  0E86               	movlw	134
  3821  000BA2  6FE4               	movwf	??_main& (0+255),b
  3822  000BA4  0E99               	movlw	153
  3823  000BA6                     u7537:
  3824  000BA6  2EE8               	decfsz	wreg,f,c
  3825  000BA8  D7FE               	bra	u7537
  3826  000BAA  2FE4               	decfsz	??_main& (0+255),f,b
  3827  000BAC  D7FC               	bra	u7537
  3828  000BAE  2FE5               	decfsz	(??_main+1)& (0+255),f,b
  3829  000BB0  D7FA               	bra	u7537
  3830                           
  3831                           ;Proyecto_SSE1_13_05.c: 256:                         Lcd_Out(1,1,"Habitacion");
  3832  000BB2  0E01               	movlw	1
  3833  000BB4  6E04               	movwf	Lcd_Out@x,c
  3834  000BB6  0E1E               	movlw	low (STR_21+4)
  3835  000BB8  6E05               	movwf	Lcd_Out@buffer,c
  3836  000BBA  0E7E               	movlw	high (STR_21+4)
  3837  000BBC  6E06               	movwf	Lcd_Out@buffer+1,c
  3838  000BBE  0E01               	movlw	1
  3839  000BC0  ECDA  F022         	call	_Lcd_Out
  3840                           
  3841                           ;Proyecto_SSE1_13_05.c: 257:                         Lcd_Out(2,1,"Jacuxxxi");
  3842  000BC4  0E01               	movlw	1
  3843  000BC6  6E04               	movwf	Lcd_Out@x,c
  3844  000BC8  0E68               	movlw	low (STR_17+5)
  3845  000BCA  6E05               	movwf	Lcd_Out@buffer,c
  3846  000BCC  0E7E               	movlw	high (STR_17+5)
  3847  000BCE  6E06               	movwf	Lcd_Out@buffer+1,c
  3848  000BD0  0E02               	movlw	2
  3849  000BD2  ECDA  F022         	call	_Lcd_Out
  3850                           
  3851                           ;Proyecto_SSE1_13_05.c: 258:                         _delay((unsigned long)((2000)*(1200
      +                          0000/4000.0)));
  3852  000BD6  0E1F               	movlw	31
  3853  000BD8  0100               	movlb	0	; () banked
  3854  000BDA  6FE5               	movwf	(??_main+1)& (0+255),b
  3855  000BDC  0E71               	movlw	113
  3856  000BDE  6FE4               	movwf	??_main& (0+255),b
  3857  000BE0  0E1E               	movlw	30
  3858  000BE2                     u7547:
  3859  000BE2  2EE8               	decfsz	wreg,f,c
  3860  000BE4  D7FE               	bra	u7547
  3861  000BE6  2FE4               	decfsz	??_main& (0+255),f,b
  3862  000BE8  D7FC               	bra	u7547
  3863  000BEA  2FE5               	decfsz	(??_main+1)& (0+255),f,b
  3864  000BEC  D7FA               	bra	u7547
  3865  000BEE  F000               	nop	
  3866                           
  3867                           ;Proyecto_SSE1_13_05.c: 259:                         Lcd_Cmd(1);
  3868  000BF0  0E01               	movlw	1
  3869  000BF2  EC28  F01E         	call	_Lcd_Cmd
  3870                           
  3871                           ;Proyecto_SSE1_13_05.c: 260:                         _delay((unsigned long)((100)*(12000
      +                          000/4000.0)));
  3872  000BF6  0E02               	movlw	2
  3873  000BF8  0100               	movlb	0	; () banked
  3874  000BFA  6FE5               	movwf	(??_main+1)& (0+255),b
  3875  000BFC  0E86               	movlw	134
  3876  000BFE  6FE4               	movwf	??_main& (0+255),b
  3877  000C00  0E99               	movlw	153
  3878  000C02                     u7557:
  3879  000C02  2EE8               	decfsz	wreg,f,c
  3880  000C04  D7FE               	bra	u7557
  3881  000C06  2FE4               	decfsz	??_main& (0+255),f,b
  3882  000C08  D7FC               	bra	u7557
  3883  000C0A  2FE5               	decfsz	(??_main+1)& (0+255),f,b
  3884  000C0C  D7FA               	bra	u7557
  3885                           
  3886                           ;Proyecto_SSE1_13_05.c: 261:                         pago_de_Habitaciones(450);
  3887  000C0E  0E01               	movlw	1
  3888  000C10  0100               	movlb	0	; () banked
  3889  000C12  6FB3               	movwf	(pago_de_Habitaciones@price+1)& (0+255),b
  3890  000C14  0EC2               	movlw	194
  3891  000C16  6FB2               	movwf	pago_de_Habitaciones@price& (0+255),b
  3892  000C18  ECEF  F011         	call	_pago_de_Habitaciones	;wreg free
  3893                           
  3894                           ;Proyecto_SSE1_13_05.c: 262:                         envio_UART_Tx(20,r_jacuzzi,0);
  3895  000C1C  C0F6  F002         	movff	_r_jacuzzi,envio_UART_Tx@informacion
  3896  000C20  0E00               	movlw	0
  3897  000C22  6E04               	movwf	envio_UART_Tx@lugar+1,c
  3898  000C24  0E00               	movlw	0
  3899  000C26  6E03               	movwf	envio_UART_Tx@lugar,c
  3900  000C28  0E14               	movlw	20
  3901  000C2A  EC85  F023         	call	_envio_UART_Tx
  3902                           
  3903                           ;Proyecto_SSE1_13_05.c: 263:                          while(count!=100){
  3904  000C2E  D016               	goto	l189
  3905  000C30                     l190:
  3906                           
  3907                           ; BSR set to: 0
  3908                           ;Proyecto_SSE1_13_05.c: 264:                             LATCbits.LATC0=1;
  3909  000C30  808B               	bsf	3979,0,c	;volatile
  3910                           
  3911                           ; BSR set to: 0
  3912                           ;Proyecto_SSE1_13_05.c: 265:                             _delay((unsigned long)((1)*(120
      +                          00000/4000.0)));
  3913  000C32  0E04               	movlw	4
  3914  000C34  0100               	movlb	0	; () banked
  3915  000C36  6FE4               	movwf	??_main& (0+255),b
  3916  000C38  0EE4               	movlw	228
  3917  000C3A                     u7567:
  3918  000C3A  2EE8               	decfsz	wreg,f,c
  3919  000C3C  D7FE               	bra	u7567
  3920  000C3E  2FE4               	decfsz	??_main& (0+255),f,b
  3921  000C40  D7FC               	bra	u7567
  3922  000C42  F000               	nop	
  3923                           
  3924                           ;Proyecto_SSE1_13_05.c: 266:                             LATCbits.LATC0=0;
  3925  000C44  908B               	bcf	3979,0,c	;volatile
  3926                           
  3927                           ;Proyecto_SSE1_13_05.c: 267:                             _delay((unsigned long)((19)*(12
      +                          000000/4000.0)));
  3928  000C46  0E4B               	movlw	75
  3929  000C48  0100               	movlb	0	; () banked
  3930  000C4A  6FE4               	movwf	??_main& (0+255),b
  3931  000C4C  0E05               	movlw	5
  3932  000C4E                     u7577:
  3933  000C4E  2EE8               	decfsz	wreg,f,c
  3934  000C50  D7FE               	bra	u7577
  3935  000C52  2FE4               	decfsz	??_main& (0+255),f,b
  3936  000C54  D7FC               	bra	u7577
  3937                           
  3938                           ;Proyecto_SSE1_13_05.c: 268:                             count++;
  3939  000C56  0100               	movlb	0	; () banked
  3940  000C58  4BFA               	infsnz	_count& (0+255),f,b
  3941  000C5A  2BFB               	incf	(_count+1)& (0+255),f,b
  3942  000C5C                     l189:
  3943                           
  3944                           ;Proyecto_SSE1_13_05.c: 263:                          while(count!=100){
  3945  000C5C  0E64               	movlw	100
  3946  000C5E  0100               	movlb	0	; () banked
  3947  000C60  19FA               	xorwf	_count& (0+255),w,b
  3948  000C62  11FB               	iorwf	(_count+1)& (0+255),w,b
  3949  000C64  A4D8               	btfss	status,2,c
  3950  000C66  D7E4               	goto	l190
  3951                           
  3952                           ; BSR set to: 0
  3953                           ;Proyecto_SSE1_13_05.c: 270:                         r_jacuzzi--;
  3954  000C68  07F6               	decf	_r_jacuzzi& (0+255),f,b
  3955  000C6A  A0D8               	btfss	status,0,c
  3956  000C6C  07F7               	decf	(_r_jacuzzi+1)& (0+255),f,b
  3957                           
  3958                           ;Proyecto_SSE1_13_05.c: 271:                     }
  3959  000C6E  D1CA               	goto	l6902
  3960  000C70                     l6786:
  3961                           
  3962                           ; BSR set to: 0
  3963                           ;Proyecto_SSE1_13_05.c: 273:                         Lcd_Cmd(1);
  3964  000C70  0E01               	movlw	1
  3965  000C72  EC28  F01E         	call	_Lcd_Cmd
  3966                           
  3967                           ;Proyecto_SSE1_13_05.c: 274:                         _delay((unsigned long)((100)*(12000
      +                          000/4000.0)));
  3968  000C76  0E02               	movlw	2
  3969  000C78  0100               	movlb	0	; () banked
  3970  000C7A  6FE5               	movwf	(??_main+1)& (0+255),b
  3971  000C7C  0E86               	movlw	134
  3972  000C7E  6FE4               	movwf	??_main& (0+255),b
  3973  000C80  0E99               	movlw	153
  3974  000C82                     u7587:
  3975  000C82  2EE8               	decfsz	wreg,f,c
  3976  000C84  D7FE               	bra	u7587
  3977  000C86  2FE4               	decfsz	??_main& (0+255),f,b
  3978  000C88  D7FC               	bra	u7587
  3979  000C8A  2FE5               	decfsz	(??_main+1)& (0+255),f,b
  3980  000C8C  D7FA               	bra	u7587
  3981                           
  3982                           ;Proyecto_SSE1_13_05.c: 275:                         Lcd_Out(1,5,"Sin ");
  3983  000C8E  0E05               	movlw	5
  3984  000C90  6E04               	movwf	Lcd_Out@x,c
  3985  000C92  0ED8               	movlw	low STR_44
  3986  000C94  6E05               	movwf	Lcd_Out@buffer,c
  3987  000C96  0E7F               	movlw	high STR_44
  3988  000C98  6E06               	movwf	Lcd_Out@buffer+1,c
  3989  000C9A  0E01               	movlw	1
  3990  000C9C  ECDA  F022         	call	_Lcd_Out
  3991                           
  3992                           ;Proyecto_SSE1_13_05.c: 276:                         Lcd_Out(2,1,"Habitaciones de");
  3993  000CA0  0E01               	movlw	1
  3994  000CA2  6E04               	movwf	Lcd_Out@x,c
  3995  000CA4  0EA0               	movlw	low STR_45
  3996  000CA6  6E05               	movwf	Lcd_Out@buffer,c
  3997  000CA8  0E7D               	movlw	high STR_45
  3998  000CAA  6E06               	movwf	Lcd_Out@buffer+1,c
  3999  000CAC  0E02               	movlw	2
  4000  000CAE  ECDA  F022         	call	_Lcd_Out
  4001                           
  4002                           ;Proyecto_SSE1_13_05.c: 277:                         Lcd_Cmd(1);
  4003  000CB2  0E01               	movlw	1
  4004  000CB4  EC28  F01E         	call	_Lcd_Cmd
  4005                           
  4006                           ;Proyecto_SSE1_13_05.c: 278:                         _delay((unsigned long)((100)*(12000
      +                          000/4000.0)));
  4007  000CB8  0E02               	movlw	2
  4008  000CBA  0100               	movlb	0	; () banked
  4009  000CBC  6FE5               	movwf	(??_main+1)& (0+255),b
  4010  000CBE  0E86               	movlw	134
  4011  000CC0  6FE4               	movwf	??_main& (0+255),b
  4012  000CC2  0E99               	movlw	153
  4013  000CC4                     u7597:
  4014  000CC4  2EE8               	decfsz	wreg,f,c
  4015  000CC6  D7FE               	bra	u7597
  4016  000CC8  2FE4               	decfsz	??_main& (0+255),f,b
  4017  000CCA  D7FC               	bra	u7597
  4018  000CCC  2FE5               	decfsz	(??_main+1)& (0+255),f,b
  4019  000CCE  D7FA               	bra	u7597
  4020                           
  4021                           ;Proyecto_SSE1_13_05.c: 279:                         Lcd_Out(1,5,"ese tipo ");
  4022  000CD0  0E05               	movlw	5
  4023  000CD2  6E04               	movwf	Lcd_Out@x,c
  4024  000CD4  0E4C               	movlw	low STR_46
  4025  000CD6  6E05               	movwf	Lcd_Out@buffer,c
  4026  000CD8  0E7F               	movlw	high STR_46
  4027  000CDA  6E06               	movwf	Lcd_Out@buffer+1,c
  4028  000CDC  0E01               	movlw	1
  4029  000CDE  ECDA  F022         	call	_Lcd_Out
  4030                           
  4031                           ;Proyecto_SSE1_13_05.c: 280:                         Lcd_Out(2,1,"disponibles");
  4032  000CE2  0E01               	movlw	1
  4033  000CE4  6E04               	movwf	Lcd_Out@x,c
  4034  000CE6  0E09               	movlw	low STR_47
  4035  000CE8  6E05               	movwf	Lcd_Out@buffer,c
  4036  000CEA  0E7F               	movlw	high STR_47
  4037  000CEC  6E06               	movwf	Lcd_Out@buffer+1,c
  4038  000CEE  0E02               	movlw	2
  4039  000CF0  ECDA  F022         	call	_Lcd_Out
  4040                           
  4041                           ;Proyecto_SSE1_13_05.c: 281:                         Lcd_Cmd(1);
  4042  000CF4  0E01               	movlw	1
  4043  000CF6  EC28  F01E         	call	_Lcd_Cmd
  4044  000CFA  D72F               	goto	l6750
  4045  000CFC                     l6806:
  4046                           
  4047                           ; BSR set to: 0
  4048  000CFC  0E00               	movlw	0
  4049  000CFE  6FFF               	movwf	_valor& (0+255),b
  4050                           
  4051                           ; BSR set to: 0
  4052                           ;Proyecto_SSE1_13_05.c: 289:                     if(r_master!=0){
  4053  000D00  51F4               	movf	_r_master& (0+255),w,b
  4054  000D02  11F5               	iorwf	(_r_master+1)& (0+255),w,b
  4055  000D04  B4D8               	btfsc	status,2,c
  4056  000D06  D076               	goto	l6838
  4057                           
  4058                           ; BSR set to: 0
  4059                           ;Proyecto_SSE1_13_05.c: 290:                         room_master[r_master]='F';
  4060  000D08  0E00               	movlw	low _room_master
  4061  000D0A  25F4               	addwf	_r_master& (0+255),w,b
  4062  000D0C  6ED9               	movwf	fsr2l,c
  4063  000D0E  0E01               	movlw	high _room_master
  4064  000D10  21F5               	addwfc	(_r_master+1)& (0+255),w,b
  4065  000D12  6EDA               	movwf	fsr2h,c
  4066  000D14  0E46               	movlw	70
  4067  000D16  6EDF               	movwf	indf2,c
  4068                           
  4069                           ; BSR set to: 0
  4070                           ;Proyecto_SSE1_13_05.c: 291:                         Lcd_Cmd(1);
  4071  000D18  0E01               	movlw	1
  4072  000D1A  EC28  F01E         	call	_Lcd_Cmd
  4073                           
  4074                           ;Proyecto_SSE1_13_05.c: 292:                         _delay((unsigned long)((100)*(12000
      +                          000/4000.0)));
  4075  000D1E  0E02               	movlw	2
  4076  000D20  0100               	movlb	0	; () banked
  4077  000D22  6FE5               	movwf	(??_main+1)& (0+255),b
  4078  000D24  0E86               	movlw	134
  4079  000D26  6FE4               	movwf	??_main& (0+255),b
  4080  000D28  0E99               	movlw	153
  4081  000D2A                     u7607:
  4082  000D2A  2EE8               	decfsz	wreg,f,c
  4083  000D2C  D7FE               	bra	u7607
  4084  000D2E  2FE4               	decfsz	??_main& (0+255),f,b
  4085  000D30  D7FC               	bra	u7607
  4086  000D32  2FE5               	decfsz	(??_main+1)& (0+255),f,b
  4087  000D34  D7FA               	bra	u7607
  4088                           
  4089                           ;Proyecto_SSE1_13_05.c: 293:                         Lcd_Out(1,1,"Habitacion");
  4090  000D36  0E01               	movlw	1
  4091  000D38  6E04               	movwf	Lcd_Out@x,c
  4092  000D3A  0E1E               	movlw	low (STR_21+4)
  4093  000D3C  6E05               	movwf	Lcd_Out@buffer,c
  4094  000D3E  0E7E               	movlw	high (STR_21+4)
  4095  000D40  6E06               	movwf	Lcd_Out@buffer+1,c
  4096  000D42  0E01               	movlw	1
  4097  000D44  ECDA  F022         	call	_Lcd_Out
  4098                           
  4099                           ;Proyecto_SSE1_13_05.c: 294:                         Lcd_Out(2,1,"Master");
  4100  000D48  0E01               	movlw	1
  4101  000D4A  6E04               	movwf	Lcd_Out@x,c
  4102  000D4C  0EC5               	movlw	low STR_55
  4103  000D4E  6E05               	movwf	Lcd_Out@buffer,c
  4104  000D50  0E7F               	movlw	high STR_55
  4105  000D52  6E06               	movwf	Lcd_Out@buffer+1,c
  4106  000D54  0E02               	movlw	2
  4107  000D56  ECDA  F022         	call	_Lcd_Out
  4108                           
  4109                           ;Proyecto_SSE1_13_05.c: 295:                         _delay((unsigned long)((2000)*(1200
      +                          0000/4000.0)));
  4110  000D5A  0E1F               	movlw	31
  4111  000D5C  0100               	movlb	0	; () banked
  4112  000D5E  6FE5               	movwf	(??_main+1)& (0+255),b
  4113  000D60  0E71               	movlw	113
  4114  000D62  6FE4               	movwf	??_main& (0+255),b
  4115  000D64  0E1E               	movlw	30
  4116  000D66                     u7617:
  4117  000D66  2EE8               	decfsz	wreg,f,c
  4118  000D68  D7FE               	bra	u7617
  4119  000D6A  2FE4               	decfsz	??_main& (0+255),f,b
  4120  000D6C  D7FC               	bra	u7617
  4121  000D6E  2FE5               	decfsz	(??_main+1)& (0+255),f,b
  4122  000D70  D7FA               	bra	u7617
  4123  000D72  F000               	nop	
  4124                           
  4125                           ;Proyecto_SSE1_13_05.c: 296:                         Lcd_Cmd(1);
  4126  000D74  0E01               	movlw	1
  4127  000D76  EC28  F01E         	call	_Lcd_Cmd
  4128                           
  4129                           ;Proyecto_SSE1_13_05.c: 297:                         _delay((unsigned long)((100)*(12000
      +                          000/4000.0)));
  4130  000D7A  0E02               	movlw	2
  4131  000D7C  0100               	movlb	0	; () banked
  4132  000D7E  6FE5               	movwf	(??_main+1)& (0+255),b
  4133  000D80  0E86               	movlw	134
  4134  000D82  6FE4               	movwf	??_main& (0+255),b
  4135  000D84  0E99               	movlw	153
  4136  000D86                     u7627:
  4137  000D86  2EE8               	decfsz	wreg,f,c
  4138  000D88  D7FE               	bra	u7627
  4139  000D8A  2FE4               	decfsz	??_main& (0+255),f,b
  4140  000D8C  D7FC               	bra	u7627
  4141  000D8E  2FE5               	decfsz	(??_main+1)& (0+255),f,b
  4142  000D90  D7FA               	bra	u7627
  4143                           
  4144                           ;Proyecto_SSE1_13_05.c: 298:                         pago_de_Habitaciones(600);
  4145  000D92  0E02               	movlw	2
  4146  000D94  0100               	movlb	0	; () banked
  4147  000D96  6FB3               	movwf	(pago_de_Habitaciones@price+1)& (0+255),b
  4148  000D98  0E58               	movlw	88
  4149  000D9A  6FB2               	movwf	pago_de_Habitaciones@price& (0+255),b
  4150  000D9C  ECEF  F011         	call	_pago_de_Habitaciones	;wreg free
  4151                           
  4152                           ;Proyecto_SSE1_13_05.c: 299:                         envio_UART_Tx(30,r_master,0);
  4153  000DA0  C0F4  F002         	movff	_r_master,envio_UART_Tx@informacion
  4154  000DA4  0E00               	movlw	0
  4155  000DA6  6E04               	movwf	envio_UART_Tx@lugar+1,c
  4156  000DA8  0E00               	movlw	0
  4157  000DAA  6E03               	movwf	envio_UART_Tx@lugar,c
  4158  000DAC  0E1E               	movlw	30
  4159  000DAE  EC85  F023         	call	_envio_UART_Tx
  4160                           
  4161                           ;Proyecto_SSE1_13_05.c: 300:                          while(count!=100){
  4162  000DB2  D016               	goto	l195
  4163  000DB4                     l196:
  4164                           
  4165                           ; BSR set to: 0
  4166                           ;Proyecto_SSE1_13_05.c: 301:                             LATCbits.LATC0=1;
  4167  000DB4  808B               	bsf	3979,0,c	;volatile
  4168                           
  4169                           ; BSR set to: 0
  4170                           ;Proyecto_SSE1_13_05.c: 302:                             _delay((unsigned long)((1)*(120
      +                          00000/4000.0)));
  4171  000DB6  0E04               	movlw	4
  4172  000DB8  0100               	movlb	0	; () banked
  4173  000DBA  6FE4               	movwf	??_main& (0+255),b
  4174  000DBC  0EE4               	movlw	228
  4175  000DBE                     u7637:
  4176  000DBE  2EE8               	decfsz	wreg,f,c
  4177  000DC0  D7FE               	bra	u7637
  4178  000DC2  2FE4               	decfsz	??_main& (0+255),f,b
  4179  000DC4  D7FC               	bra	u7637
  4180  000DC6  F000               	nop	
  4181                           
  4182                           ;Proyecto_SSE1_13_05.c: 303:                             LATCbits.LATC0=0;
  4183  000DC8  908B               	bcf	3979,0,c	;volatile
  4184                           
  4185                           ;Proyecto_SSE1_13_05.c: 304:                             _delay((unsigned long)((19)*(12
      +                          000000/4000.0)));
  4186  000DCA  0E4B               	movlw	75
  4187  000DCC  0100               	movlb	0	; () banked
  4188  000DCE  6FE4               	movwf	??_main& (0+255),b
  4189  000DD0  0E05               	movlw	5
  4190  000DD2                     u7647:
  4191  000DD2  2EE8               	decfsz	wreg,f,c
  4192  000DD4  D7FE               	bra	u7647
  4193  000DD6  2FE4               	decfsz	??_main& (0+255),f,b
  4194  000DD8  D7FC               	bra	u7647
  4195                           
  4196                           ;Proyecto_SSE1_13_05.c: 305:                             count++;
  4197  000DDA  0100               	movlb	0	; () banked
  4198  000DDC  4BFA               	infsnz	_count& (0+255),f,b
  4199  000DDE  2BFB               	incf	(_count+1)& (0+255),f,b
  4200  000DE0                     l195:
  4201                           
  4202                           ;Proyecto_SSE1_13_05.c: 300:                          while(count!=100){
  4203  000DE0  0E64               	movlw	100
  4204  000DE2  0100               	movlb	0	; () banked
  4205  000DE4  19FA               	xorwf	_count& (0+255),w,b
  4206  000DE6  11FB               	iorwf	(_count+1)& (0+255),w,b
  4207  000DE8  A4D8               	btfss	status,2,c
  4208  000DEA  D7E4               	goto	l196
  4209                           
  4210                           ; BSR set to: 0
  4211                           ;Proyecto_SSE1_13_05.c: 307:                         r_master--;
  4212  000DEC  07F4               	decf	_r_master& (0+255),f,b
  4213  000DEE  A0D8               	btfss	status,0,c
  4214  000DF0  07F5               	decf	(_r_master+1)& (0+255),f,b
  4215                           
  4216                           ;Proyecto_SSE1_13_05.c: 308:                     }
  4217  000DF2  D108               	goto	l6902
  4218  000DF4                     l6838:
  4219                           
  4220                           ; BSR set to: 0
  4221                           ;Proyecto_SSE1_13_05.c: 310:                         Lcd_Cmd(1);
  4222  000DF4  0E01               	movlw	1
  4223  000DF6  EC28  F01E         	call	_Lcd_Cmd
  4224                           
  4225                           ;Proyecto_SSE1_13_05.c: 311:                         _delay((unsigned long)((100)*(12000
      +                          000/4000.0)));
  4226  000DFA  0E02               	movlw	2
  4227  000DFC  0100               	movlb	0	; () banked
  4228  000DFE  6FE5               	movwf	(??_main+1)& (0+255),b
  4229  000E00  0E86               	movlw	134
  4230  000E02  6FE4               	movwf	??_main& (0+255),b
  4231  000E04  0E99               	movlw	153
  4232  000E06                     u7657:
  4233  000E06  2EE8               	decfsz	wreg,f,c
  4234  000E08  D7FE               	bra	u7657
  4235  000E0A  2FE4               	decfsz	??_main& (0+255),f,b
  4236  000E0C  D7FC               	bra	u7657
  4237  000E0E  2FE5               	decfsz	(??_main+1)& (0+255),f,b
  4238  000E10  D7FA               	bra	u7657
  4239                           
  4240                           ;Proyecto_SSE1_13_05.c: 312:                         Lcd_Out(1,5,"Sin ");
  4241  000E12  0E05               	movlw	5
  4242  000E14  6E04               	movwf	Lcd_Out@x,c
  4243  000E16  0ED8               	movlw	low STR_44
  4244  000E18  6E05               	movwf	Lcd_Out@buffer,c
  4245  000E1A  0E7F               	movlw	high STR_44
  4246  000E1C  6E06               	movwf	Lcd_Out@buffer+1,c
  4247  000E1E  0E01               	movlw	1
  4248  000E20  ECDA  F022         	call	_Lcd_Out
  4249                           
  4250                           ;Proyecto_SSE1_13_05.c: 313:                         Lcd_Out(2,1,"Habitaciones de");
  4251  000E24  0E01               	movlw	1
  4252  000E26  6E04               	movwf	Lcd_Out@x,c
  4253  000E28  0EA0               	movlw	low STR_45
  4254  000E2A  6E05               	movwf	Lcd_Out@buffer,c
  4255  000E2C  0E7D               	movlw	high STR_45
  4256  000E2E  6E06               	movwf	Lcd_Out@buffer+1,c
  4257  000E30  0E02               	movlw	2
  4258  000E32  ECDA  F022         	call	_Lcd_Out
  4259                           
  4260                           ;Proyecto_SSE1_13_05.c: 314:                         Lcd_Cmd(1);
  4261  000E36  0E01               	movlw	1
  4262  000E38  EC28  F01E         	call	_Lcd_Cmd
  4263                           
  4264                           ;Proyecto_SSE1_13_05.c: 315:                         _delay((unsigned long)((100)*(12000
      +                          000/4000.0)));
  4265  000E3C  0E02               	movlw	2
  4266  000E3E  0100               	movlb	0	; () banked
  4267  000E40  6FE5               	movwf	(??_main+1)& (0+255),b
  4268  000E42  0E86               	movlw	134
  4269  000E44  6FE4               	movwf	??_main& (0+255),b
  4270  000E46  0E99               	movlw	153
  4271  000E48                     u7667:
  4272  000E48  2EE8               	decfsz	wreg,f,c
  4273  000E4A  D7FE               	bra	u7667
  4274  000E4C  2FE4               	decfsz	??_main& (0+255),f,b
  4275  000E4E  D7FC               	bra	u7667
  4276  000E50  2FE5               	decfsz	(??_main+1)& (0+255),f,b
  4277  000E52  D7FA               	bra	u7667
  4278                           
  4279                           ;Proyecto_SSE1_13_05.c: 316:                         Lcd_Out(1,5,"ese tipo ");
  4280  000E54  0E05               	movlw	5
  4281  000E56  6E04               	movwf	Lcd_Out@x,c
  4282  000E58  0E4C               	movlw	low STR_46
  4283  000E5A  6E05               	movwf	Lcd_Out@buffer,c
  4284  000E5C  0E7F               	movlw	high STR_46
  4285  000E5E  6E06               	movwf	Lcd_Out@buffer+1,c
  4286  000E60  0E01               	movlw	1
  4287  000E62  ECDA  F022         	call	_Lcd_Out
  4288                           
  4289                           ;Proyecto_SSE1_13_05.c: 317:                         Lcd_Out(2,1,"disponibles");
  4290  000E66  0E01               	movlw	1
  4291  000E68  6E04               	movwf	Lcd_Out@x,c
  4292  000E6A  0E09               	movlw	low STR_47
  4293  000E6C  6E05               	movwf	Lcd_Out@buffer,c
  4294  000E6E  0E7F               	movlw	high STR_47
  4295  000E70  6E06               	movwf	Lcd_Out@buffer+1,c
  4296  000E72  0E02               	movlw	2
  4297  000E74  ECDA  F022         	call	_Lcd_Out
  4298                           
  4299                           ;Proyecto_SSE1_13_05.c: 318:                         Lcd_Cmd(1);
  4300  000E78  0E01               	movlw	1
  4301  000E7A  EC28  F01E         	call	_Lcd_Cmd
  4302  000E7E  D66D               	goto	l6750
  4303  000E80                     l6858:
  4304                           
  4305                           ; BSR set to: 0
  4306  000E80  0E00               	movlw	0
  4307  000E82  6FFF               	movwf	_valor& (0+255),b
  4308                           
  4309                           ; BSR set to: 0
  4310                           ;Proyecto_SSE1_13_05.c: 326:                     Lcd_Cmd(1);
  4311  000E84  0E01               	movlw	1
  4312  000E86  EC28  F01E         	call	_Lcd_Cmd
  4313                           
  4314                           ;Proyecto_SSE1_13_05.c: 327:                     _delay((unsigned long)((100)*(12000000/
      +                          4000.0)));
  4315  000E8A  0E02               	movlw	2
  4316  000E8C  0100               	movlb	0	; () banked
  4317  000E8E  6FE5               	movwf	(??_main+1)& (0+255),b
  4318  000E90  0E86               	movlw	134
  4319  000E92  6FE4               	movwf	??_main& (0+255),b
  4320  000E94  0E99               	movlw	153
  4321  000E96                     u7677:
  4322  000E96  2EE8               	decfsz	wreg,f,c
  4323  000E98  D7FE               	bra	u7677
  4324  000E9A  2FE4               	decfsz	??_main& (0+255),f,b
  4325  000E9C  D7FC               	bra	u7677
  4326  000E9E  2FE5               	decfsz	(??_main+1)& (0+255),f,b
  4327  000EA0  D7FA               	bra	u7677
  4328                           
  4329                           ;Proyecto_SSE1_13_05.c: 328:                     Lcd_Out(1,3,"Que le vaya");
  4330  000EA2  0E03               	movlw	3
  4331  000EA4  6E04               	movwf	Lcd_Out@x,c
  4332  000EA6  0ED9               	movlw	low STR_60
  4333  000EA8  6E05               	movwf	Lcd_Out@buffer,c
  4334  000EAA  0E7E               	movlw	high STR_60
  4335  000EAC  6E06               	movwf	Lcd_Out@buffer+1,c
  4336  000EAE  0E01               	movlw	1
  4337  000EB0  ECDA  F022         	call	_Lcd_Out
  4338                           
  4339                           ;Proyecto_SSE1_13_05.c: 329:                     Lcd_Out(2,5,"bien");
  4340  000EB4  0E05               	movlw	5
  4341  000EB6  6E04               	movwf	Lcd_Out@x,c
  4342  000EB8  0EE2               	movlw	low STR_61
  4343  000EBA  6E05               	movwf	Lcd_Out@buffer,c
  4344  000EBC  0E7F               	movlw	high STR_61
  4345  000EBE  6E06               	movwf	Lcd_Out@buffer+1,c
  4346  000EC0  0E02               	movlw	2
  4347  000EC2  ECDA  F022         	call	_Lcd_Out
  4348                           
  4349                           ;Proyecto_SSE1_13_05.c: 330:                     _delay((unsigned long)((2000)*(12000000
      +                          /4000.0)));
  4350  000EC6  0E1F               	movlw	31
  4351  000EC8  0100               	movlb	0	; () banked
  4352  000ECA  6FE5               	movwf	(??_main+1)& (0+255),b
  4353  000ECC  0E71               	movlw	113
  4354  000ECE  6FE4               	movwf	??_main& (0+255),b
  4355  000ED0  0E1E               	movlw	30
  4356  000ED2                     u7687:
  4357  000ED2  2EE8               	decfsz	wreg,f,c
  4358  000ED4  D7FE               	bra	u7687
  4359  000ED6  2FE4               	decfsz	??_main& (0+255),f,b
  4360  000ED8  D7FC               	bra	u7687
  4361  000EDA  2FE5               	decfsz	(??_main+1)& (0+255),f,b
  4362  000EDC  D7FA               	bra	u7687
  4363  000EDE  F000               	nop	
  4364                           
  4365                           ;Proyecto_SSE1_13_05.c: 331:                     Lcd_Cmd(1);
  4366  000EE0  0E01               	movlw	1
  4367  000EE2  EC28  F01E         	call	_Lcd_Cmd
  4368                           
  4369                           ;Proyecto_SSE1_13_05.c: 332:                     _delay((unsigned long)((100)*(12000000/
      +                          4000.0)));
  4370  000EE6  0E02               	movlw	2
  4371  000EE8  0100               	movlb	0	; () banked
  4372  000EEA  6FE5               	movwf	(??_main+1)& (0+255),b
  4373  000EEC  0E86               	movlw	134
  4374  000EEE  6FE4               	movwf	??_main& (0+255),b
  4375  000EF0  0E99               	movlw	153
  4376  000EF2                     u7697:
  4377  000EF2  2EE8               	decfsz	wreg,f,c
  4378  000EF4  D7FE               	bra	u7697
  4379  000EF6  2FE4               	decfsz	??_main& (0+255),f,b
  4380  000EF8  D7FC               	bra	u7697
  4381  000EFA  2FE5               	decfsz	(??_main+1)& (0+255),f,b
  4382  000EFC  D7FA               	bra	u7697
  4383                           
  4384                           ;Proyecto_SSE1_13_05.c: 333:                     Lcd_Out(1,1,"Vuelva");
  4385  000EFE  0E01               	movlw	1
  4386  000F00  6E04               	movwf	Lcd_Out@x,c
  4387  000F02  0EB0               	movlw	low STR_62
  4388  000F04  6E05               	movwf	Lcd_Out@buffer,c
  4389  000F06  0E7F               	movlw	high STR_62
  4390  000F08  6E06               	movwf	Lcd_Out@buffer+1,c
  4391  000F0A  0E01               	movlw	1
  4392  000F0C  ECDA  F022         	call	_Lcd_Out
  4393                           
  4394                           ;Proyecto_SSE1_13_05.c: 334:                     Lcd_Out(2,5,"Pronto");
  4395  000F10  0E05               	movlw	5
  4396  000F12  6E04               	movwf	Lcd_Out@x,c
  4397  000F14  0EBE               	movlw	low STR_63
  4398  000F16  6E05               	movwf	Lcd_Out@buffer,c
  4399  000F18  0E7F               	movlw	high STR_63
  4400  000F1A  6E06               	movwf	Lcd_Out@buffer+1,c
  4401  000F1C  0E02               	movlw	2
  4402  000F1E  ECDA  F022         	call	_Lcd_Out
  4403                           
  4404                           ;Proyecto_SSE1_13_05.c: 335:                     _delay((unsigned long)((2000)*(12000000
      +                          /4000.0)));
  4405  000F22  0E1F               	movlw	31
  4406  000F24  0100               	movlb	0	; () banked
  4407  000F26  6FE5               	movwf	(??_main+1)& (0+255),b
  4408  000F28  0E71               	movlw	113
  4409  000F2A  6FE4               	movwf	??_main& (0+255),b
  4410  000F2C  0E1E               	movlw	30
  4411  000F2E                     u7707:
  4412  000F2E  2EE8               	decfsz	wreg,f,c
  4413  000F30  D7FE               	bra	u7707
  4414  000F32  2FE4               	decfsz	??_main& (0+255),f,b
  4415  000F34  D7FC               	bra	u7707
  4416  000F36  2FE5               	decfsz	(??_main+1)& (0+255),f,b
  4417  000F38  D7FA               	bra	u7707
  4418  000F3A  F000               	nop	
  4419                           
  4420                           ;Proyecto_SSE1_13_05.c: 336:                     Lcd_Cmd(1);
  4421  000F3C  0E01               	movlw	1
  4422  000F3E  EC28  F01E         	call	_Lcd_Cmd
  4423                           
  4424                           ;Proyecto_SSE1_13_05.c: 337:                     _delay((unsigned long)((100)*(12000000/
      +                          4000.0)));
  4425  000F42  0E02               	movlw	2
  4426  000F44  0100               	movlb	0	; () banked
  4427  000F46  6FE5               	movwf	(??_main+1)& (0+255),b
  4428  000F48  0E86               	movlw	134
  4429  000F4A  6FE4               	movwf	??_main& (0+255),b
  4430  000F4C  0E99               	movlw	153
  4431  000F4E                     u7717:
  4432  000F4E  2EE8               	decfsz	wreg,f,c
  4433  000F50  D7FE               	bra	u7717
  4434  000F52  2FE4               	decfsz	??_main& (0+255),f,b
  4435  000F54  D7FC               	bra	u7717
  4436  000F56  2FE5               	decfsz	(??_main+1)& (0+255),f,b
  4437  000F58  D7FA               	bra	u7717
  4438                           
  4439                           ;Proyecto_SSE1_13_05.c: 338:                     count=0;
  4440  000F5A  0E00               	movlw	0
  4441  000F5C  0100               	movlb	0	; () banked
  4442  000F5E  6FFB               	movwf	(_count+1)& (0+255),b
  4443  000F60  0E00               	movlw	0
  4444  000F62  6FFA               	movwf	_count& (0+255),b
  4445                           
  4446                           ;Proyecto_SSE1_13_05.c: 339:                     while(count!=100){
  4447  000F64  D016               	goto	l200
  4448  000F66                     l201:
  4449                           
  4450                           ; BSR set to: 0
  4451                           ;Proyecto_SSE1_13_05.c: 340:                         LATCbits.LATC0=1;
  4452  000F66  808B               	bsf	3979,0,c	;volatile
  4453                           
  4454                           ; BSR set to: 0
  4455                           ;Proyecto_SSE1_13_05.c: 341:                         _delay((unsigned long)((1)*(1200000
      +                          0/4000.0)));
  4456  000F68  0E04               	movlw	4
  4457  000F6A  0100               	movlb	0	; () banked
  4458  000F6C  6FE4               	movwf	??_main& (0+255),b
  4459  000F6E  0EE4               	movlw	228
  4460  000F70                     u7727:
  4461  000F70  2EE8               	decfsz	wreg,f,c
  4462  000F72  D7FE               	bra	u7727
  4463  000F74  2FE4               	decfsz	??_main& (0+255),f,b
  4464  000F76  D7FC               	bra	u7727
  4465  000F78  F000               	nop	
  4466                           
  4467                           ;Proyecto_SSE1_13_05.c: 342:                         LATCbits.LATC0=0;
  4468  000F7A  908B               	bcf	3979,0,c	;volatile
  4469                           
  4470                           ;Proyecto_SSE1_13_05.c: 343:                         _delay((unsigned long)((19)*(120000
      +                          00/4000.0)));
  4471  000F7C  0E4B               	movlw	75
  4472  000F7E  0100               	movlb	0	; () banked
  4473  000F80  6FE4               	movwf	??_main& (0+255),b
  4474  000F82  0E05               	movlw	5
  4475  000F84                     u7737:
  4476  000F84  2EE8               	decfsz	wreg,f,c
  4477  000F86  D7FE               	bra	u7737
  4478  000F88  2FE4               	decfsz	??_main& (0+255),f,b
  4479  000F8A  D7FC               	bra	u7737
  4480                           
  4481                           ;Proyecto_SSE1_13_05.c: 344:                         count++;
  4482  000F8C  0100               	movlb	0	; () banked
  4483  000F8E  4BFA               	infsnz	_count& (0+255),f,b
  4484  000F90  2BFB               	incf	(_count+1)& (0+255),f,b
  4485  000F92                     l200:
  4486                           
  4487                           ; BSR set to: 0
  4488                           ;Proyecto_SSE1_13_05.c: 339:                     while(count!=100){
  4489  000F92  0E64               	movlw	100
  4490  000F94  19FA               	xorwf	_count& (0+255),w,b
  4491  000F96  11FB               	iorwf	(_count+1)& (0+255),w,b
  4492  000F98  A4D8               	btfss	status,2,c
  4493  000F9A  D7E5               	goto	l201
  4494                           
  4495                           ; BSR set to: 0
  4496                           ;Proyecto_SSE1_13_05.c: 346:                     _delay((unsigned long)((5000)*(12000000
      +                          /4000.0)));
  4497  000F9C  0E4D               	movlw	77
  4498  000F9E  0100               	movlb	0	; () banked
  4499  000FA0  6FE5               	movwf	(??_main+1)& (0+255),b
  4500  000FA2  0E19               	movlw	25
  4501  000FA4  6FE4               	movwf	??_main& (0+255),b
  4502  000FA6  0E4F               	movlw	79
  4503  000FA8                     u7747:
  4504  000FA8  2EE8               	decfsz	wreg,f,c
  4505  000FAA  D7FE               	bra	u7747
  4506  000FAC  2FE4               	decfsz	??_main& (0+255),f,b
  4507  000FAE  D7FC               	bra	u7747
  4508  000FB0  2FE5               	decfsz	(??_main+1)& (0+255),f,b
  4509  000FB2  D7FA               	bra	u7747
  4510  000FB4  D000               	nop2	
  4511                           
  4512                           ;Proyecto_SSE1_13_05.c: 347:                     break;
  4513  000FB6  D026               	goto	l6902
  4514  000FB8                     l6894:
  4515                           
  4516                           ; BSR set to: 0
  4517                           ;Proyecto_SSE1_13_05.c: 350:                     Lcd_Cmd(1);
  4518  000FB8  0E01               	movlw	1
  4519  000FBA  EC28  F01E         	call	_Lcd_Cmd
  4520                           
  4521                           ;Proyecto_SSE1_13_05.c: 351:                     _delay((unsigned long)((100)*(12000000/
      +                          4000.0)));
  4522  000FBE  0E02               	movlw	2
  4523  000FC0  0100               	movlb	0	; () banked
  4524  000FC2  6FE5               	movwf	(??_main+1)& (0+255),b
  4525  000FC4  0E86               	movlw	134
  4526  000FC6  6FE4               	movwf	??_main& (0+255),b
  4527  000FC8  0E99               	movlw	153
  4528  000FCA                     u7757:
  4529  000FCA  2EE8               	decfsz	wreg,f,c
  4530  000FCC  D7FE               	bra	u7757
  4531  000FCE  2FE4               	decfsz	??_main& (0+255),f,b
  4532  000FD0  D7FC               	bra	u7757
  4533  000FD2  2FE5               	decfsz	(??_main+1)& (0+255),f,b
  4534  000FD4  D7FA               	bra	u7757
  4535                           
  4536                           ;Proyecto_SSE1_13_05.c: 352:                     break;
  4537  000FD6  D016               	goto	l6902
  4538  000FD8                     l6900:
  4539  000FD8  0100               	movlb	0	; () banked
  4540  000FDA  51FE               	movf	_ptr_valor& (0+255),w,b
  4541  000FDC  6FE4               	movwf	??_main& (0+255),b
  4542  000FDE  6BE5               	clrf	(??_main+1)& (0+255),b
  4543                           
  4544                           ; Switch on 2 bytes has been partitioned into a top level switch of size 1, and 1 sub-sw
      +                          itches
  4545                           ; Switch size 1, requested type "simple"
  4546                           ; Number of cases is 1, Range of values is 0 to 0
  4547                           ; switch strategies available:
  4548                           ; Name         Instructions Cycles
  4549                           ; simple_byte            4     3 (average)
  4550                           ;	Chosen strategy is simple_byte
  4551  000FE0  51E5               	movf	(??_main+1)& (0+255),w,b
  4552  000FE2  0A00               	xorlw	0	; case 0
  4553  000FE4  A4D8               	btfss	status,2,c
  4554  000FE6  D7E8               	goto	l6894
  4555                           
  4556                           ; BSR set to: 0
  4557                           ; Switch size 1, requested type "simple"
  4558                           ; Number of cases is 4, Range of values is 49 to 65
  4559                           ; switch strategies available:
  4560                           ; Name         Instructions Cycles
  4561                           ; simple_byte           13     7 (average)
  4562                           ;	Chosen strategy is simple_byte
  4563  000FE8  51E4               	movf	??_main& (0+255),w,b
  4564  000FEA  0A31               	xorlw	49	; case 49
  4565  000FEC  B4D8               	btfsc	status,2,c
  4566  000FEE  D4F4               	goto	l6702
  4567  000FF0  0A03               	xorlw	3	; case 50
  4568  000FF2  B4D8               	btfsc	status,2,c
  4569  000FF4  D5C1               	goto	l6754
  4570  000FF6  0A01               	xorlw	1	; case 51
  4571  000FF8  B4D8               	btfsc	status,2,c
  4572  000FFA  D680               	goto	l6806
  4573  000FFC  0A72               	xorlw	114	; case 65
  4574  000FFE  B4D8               	btfsc	status,2,c
  4575  001000  D73F               	goto	l6858
  4576  001002  D7DA               	goto	l6894
  4577  001004                     l6902:
  4578                           
  4579                           ;Proyecto_SSE1_13_05.c: 355:             if((r_nomal==0)&&(r_jacuzzi==0)&&(r_master==0))
      +                          {
  4580  001004  0100               	movlb	0	; () banked
  4581  001006  51F8               	movf	_r_nomal& (0+255),w,b
  4582  001008  11F9               	iorwf	(_r_nomal+1)& (0+255),w,b
  4583  00100A  A4D8               	btfss	status,2,c
  4584  00100C  EF47  F000         	goto	l6420
  4585                           
  4586                           ; BSR set to: 0
  4587  001010  51F6               	movf	_r_jacuzzi& (0+255),w,b
  4588  001012  11F7               	iorwf	(_r_jacuzzi+1)& (0+255),w,b
  4589  001014  A4D8               	btfss	status,2,c
  4590  001016  EF47  F000         	goto	l6420
  4591                           
  4592                           ; BSR set to: 0
  4593  00101A  51F4               	movf	_r_master& (0+255),w,b
  4594  00101C  11F5               	iorwf	(_r_master+1)& (0+255),w,b
  4595  00101E  A4D8               	btfss	status,2,c
  4596  001020  EF47  F000         	goto	l6420
  4597                           
  4598                           ; BSR set to: 0
  4599                           ;Proyecto_SSE1_13_05.c: 356:                 UART_Tx(250);
  4600  001024  0EFA               	movlw	250
  4601  001026  ECA6  F025         	call	_UART_Tx
  4602  00102A  EF47  F000         	goto	l6420
  4603  00102E                     l6910:
  4604                           
  4605                           ;Proyecto_SSE1_13_05.c: 360:             Lcd_Out(1,2,"BIENVENIDO");
  4606  00102E  0E02               	movlw	2
  4607  001030  6E04               	movwf	Lcd_Out@x,c
  4608  001032  0E20               	movlw	low STR_64
  4609  001034  6E05               	movwf	Lcd_Out@buffer,c
  4610  001036  0E7F               	movlw	high STR_64
  4611  001038  6E06               	movwf	Lcd_Out@buffer+1,c
  4612  00103A  0E01               	movlw	1
  4613  00103C  ECDA  F022         	call	_Lcd_Out
  4614                           
  4615                           ;Proyecto_SSE1_13_05.c: 361:             Lcd_Out(2,2,"PASE USTED");
  4616  001040  0E02               	movlw	2
  4617  001042  6E04               	movwf	Lcd_Out@x,c
  4618  001044  0E15               	movlw	low STR_65
  4619  001046  6E05               	movwf	Lcd_Out@buffer,c
  4620  001048  0E7F               	movlw	high STR_65
  4621  00104A  6E06               	movwf	Lcd_Out@buffer+1,c
  4622  00104C  0E02               	movlw	2
  4623  00104E  ECDA  F022         	call	_Lcd_Out
  4624                           
  4625                           ;Proyecto_SSE1_13_05.c: 362:             while(PORTDbits.RD7==1 && PORTDbits.RD6==1){
  4626  001052  D02B               	goto	l206
  4627  001054                     l207:
  4628                           
  4629                           ;Proyecto_SSE1_13_05.c: 363:                 LATCbits.LATC0=1;
  4630  001054  808B               	bsf	3979,0,c	;volatile
  4631                           
  4632                           ;Proyecto_SSE1_13_05.c: 364:                 _delay((unsigned long)((2)*(12000000/4000.0
      +                          )));
  4633  001056  0E08               	movlw	8
  4634  001058  0100               	movlb	0	; () banked
  4635  00105A  6FE4               	movwf	??_main& (0+255),b
  4636  00105C  0EC9               	movlw	201
  4637  00105E                     u7767:
  4638  00105E  2EE8               	decfsz	wreg,f,c
  4639  001060  D7FE               	bra	u7767
  4640  001062  2FE4               	decfsz	??_main& (0+255),f,b
  4641  001064  D7FC               	bra	u7767
  4642  001066  D000               	nop2	
  4643                           
  4644                           ;Proyecto_SSE1_13_05.c: 365:                 LATCbits.LATC0=0;
  4645  001068  908B               	bcf	3979,0,c	;volatile
  4646                           
  4647                           ;Proyecto_SSE1_13_05.c: 366:                 _delay((unsigned long)((18)*(12000000/4000.
      +                          0)));
  4648  00106A  0E47               	movlw	71
  4649  00106C  0100               	movlb	0	; () banked
  4650  00106E  6FE4               	movwf	??_main& (0+255),b
  4651  001070  0E1F               	movlw	31
  4652  001072                     u7777:
  4653  001072  2EE8               	decfsz	wreg,f,c
  4654  001074  D7FE               	bra	u7777
  4655  001076  2FE4               	decfsz	??_main& (0+255),f,b
  4656  001078  D7FC               	bra	u7777
  4657  00107A  D000               	nop2	
  4658                           
  4659                           ;Proyecto_SSE1_13_05.c: 367:                 if(PORTAbits.RA0==0){
  4660  00107C  B080               	btfsc	3968,0,c	;volatile
  4661  00107E  D015               	goto	l206
  4662                           
  4663                           ;Proyecto_SSE1_13_05.c: 368:                     Lcd_Cmd(1);
  4664  001080  0E01               	movlw	1
  4665  001082  EC28  F01E         	call	_Lcd_Cmd
  4666                           
  4667                           ;Proyecto_SSE1_13_05.c: 369:                     _delay((unsigned long)((100)*(12000000/
      +                          4000.0)));
  4668  001086  0E02               	movlw	2
  4669  001088  0100               	movlb	0	; () banked
  4670  00108A  6FE5               	movwf	(??_main+1)& (0+255),b
  4671  00108C  0E86               	movlw	134
  4672  00108E  6FE4               	movwf	??_main& (0+255),b
  4673  001090  0E99               	movlw	153
  4674  001092                     u7787:
  4675  001092  2EE8               	decfsz	wreg,f,c
  4676  001094  D7FE               	bra	u7787
  4677  001096  2FE4               	decfsz	??_main& (0+255),f,b
  4678  001098  D7FC               	bra	u7787
  4679  00109A  2FE5               	decfsz	(??_main+1)& (0+255),f,b
  4680  00109C  D7FA               	bra	u7787
  4681                           
  4682                           ;Proyecto_SSE1_13_05.c: 370:                     clean_rooms();
  4683  00109E  EC77  F01A         	call	_clean_rooms	;wreg free
  4684                           
  4685                           ;Proyecto_SSE1_13_05.c: 371:                     UART_Tx(249);
  4686  0010A2  0EF9               	movlw	249
  4687  0010A4  ECA6  F025         	call	_UART_Tx
  4688                           
  4689                           ;Proyecto_SSE1_13_05.c: 372:                     break;
  4690  0010A8  D004               	goto	u7010
  4691  0010AA                     l206:
  4692                           
  4693                           ;Proyecto_SSE1_13_05.c: 362:             while(PORTDbits.RD7==1 && PORTDbits.RD6==1){
  4694  0010AA  AE83               	btfss	3971,7,c	;volatile
  4695  0010AC  D002               	goto	u7010
  4696  0010AE  BC83               	btfsc	3971,6,c	;volatile
  4697  0010B0  D7D1               	goto	l207
  4698  0010B2                     u7010:
  4699                           
  4700                           ;Proyecto_SSE1_13_05.c: 375:             Lcd_Cmd(1);
  4701  0010B2  0E01               	movlw	1
  4702  0010B4  EC28  F01E         	call	_Lcd_Cmd
  4703                           
  4704                           ;Proyecto_SSE1_13_05.c: 376:             _delay((unsigned long)((100)*(12000000/4000.0))
      +                          );
  4705  0010B8  0E02               	movlw	2
  4706  0010BA  0100               	movlb	0	; () banked
  4707  0010BC  6FE5               	movwf	(??_main+1)& (0+255),b
  4708  0010BE  0E86               	movlw	134
  4709  0010C0  6FE4               	movwf	??_main& (0+255),b
  4710  0010C2  0E99               	movlw	153
  4711  0010C4                     u7797:
  4712  0010C4  2EE8               	decfsz	wreg,f,c
  4713  0010C6  D7FE               	bra	u7797
  4714  0010C8  2FE4               	decfsz	??_main& (0+255),f,b
  4715  0010CA  D7FC               	bra	u7797
  4716  0010CC  2FE5               	decfsz	(??_main+1)& (0+255),f,b
  4717  0010CE  D7FA               	bra	u7797
  4718  0010D0  EF47  F000         	goto	l6420
  4719  0010D4                     __end_of_main:
  4720                           	opt callstack 0
  4721                           
  4722 ;; *************** function _pago_de_Habitaciones *****************
  4723 ;; Defined at:
  4724 ;;		line 428 in file "Proyecto_SSE1_13_05.c"
  4725 ;; Parameters:    Size  Location     Type
  4726 ;;  price           2   82[BANK0 ] int 
  4727 ;; Auto vars:     Size  Location     Type
  4728 ;;  uso_local      17  105[BANK0 ] unsigned char [17]
  4729 ;;  uso_local2     17   88[BANK0 ] unsigned char [17]
  4730 ;;  money           4  128[BANK0 ] float 
  4731 ;;  cambio          4  122[BANK0 ] float 
  4732 ;;  circle          2  126[BANK0 ] short 
  4733 ;; Return value:  Size  Location     Type
  4734 ;;                  1    wreg      void 
  4735 ;; Registers used:
  4736 ;;		wreg, fsr1l, fsr1h, fsr2l, fsr2h, status,2, status,0, tblptrl, tblptrh, tblptru, prodl, prodh, cstack
  4737 ;; Tracked objects:
  4738 ;;		On entry : 0/0
  4739 ;;		On exit  : 0/0
  4740 ;;		Unchanged: 0/0
  4741 ;; Data sizes:     COMRAM   BANK0   BANK1   BANK2   BANK3   BANK4   BANK5   BANK6   BANK7
  4742 ;;      Params:         0       2       0       0       0       0       0       0       0
  4743 ;;      Locals:         0      44       0       0       0       0       0       0       0
  4744 ;;      Temps:          0       4       0       0       0       0       0       0       0
  4745 ;;      Totals:         0      50       0       0       0       0       0       0       0
  4746 ;;Total ram usage:       50 bytes
  4747 ;; Hardware stack levels used:    1
  4748 ;; Hardware stack levels required when called:   10
  4749 ;; This function calls:
  4750 ;;		_Lcd_Cmd
  4751 ;;		_Lcd_Out
  4752 ;;		_Lcd_Out2
  4753 ;;		___fladd
  4754 ;;		___flge
  4755 ;;		___flmul
  4756 ;;		___flsub
  4757 ;;		___xxtofl
  4758 ;;		_sprintf
  4759 ;;		_teclado
  4760 ;; This function is called by:
  4761 ;;		_main
  4762 ;; This function uses a non-reentrant model
  4763 ;;
  4764                           
  4765                           	psect	text1
  4766  0023DE                     __ptext1:
  4767                           	opt callstack 0
  4768  0023DE                     _pago_de_Habitaciones:
  4769                           	opt callstack 20
  4770                           
  4771                           ;Proyecto_SSE1_13_05.c: 429:     unsigned char uso_local[17],uso_local2[17];;Proyecto_SS
      +                          E1_13_05.c: 430:     short int circle = 1;
  4772                           
  4773                           ;incstack = 0
  4774  0023DE  0E00               	movlw	0
  4775  0023E0  0100               	movlb	0	; () banked
  4776  0023E2  6FDF               	movwf	(pago_de_Habitaciones@circle+1)& (0+255),b
  4777  0023E4  0E01               	movlw	1
  4778  0023E6  6FDE               	movwf	pago_de_Habitaciones@circle& (0+255),b
  4779                           
  4780                           ;Proyecto_SSE1_13_05.c: 431:     float money=0,cambio=0;
  4781  0023E8  0E00               	movlw	0
  4782  0023EA  6FE0               	movwf	pago_de_Habitaciones@money& (0+255),b
  4783  0023EC  0E00               	movlw	0
  4784  0023EE  6FE1               	movwf	(pago_de_Habitaciones@money+1)& (0+255),b
  4785  0023F0  0E00               	movlw	0
  4786  0023F2  6FE2               	movwf	(pago_de_Habitaciones@money+2)& (0+255),b
  4787  0023F4  0E00               	movlw	0
  4788  0023F6  6FE3               	movwf	(pago_de_Habitaciones@money+3)& (0+255),b
  4789                           
  4790                           ; BSR set to: 0
  4791                           ;Proyecto_SSE1_13_05.c: 432:     sprintf(palabra3,"$ %d",price);
  4792  0023F8  0E6A               	movlw	low _palabra3
  4793  0023FA  6FA0               	movwf	sprintf@s& (0+255),b
  4794  0023FC  0E01               	movlw	high _palabra3
  4795  0023FE  6FA1               	movwf	(sprintf@s+1)& (0+255),b
  4796  002400  0EDD               	movlw	low STR_66
  4797  002402  6FA2               	movwf	sprintf@fmt& (0+255),b
  4798  002404  0E7F               	movlw	high STR_66
  4799  002406  6FA3               	movwf	(sprintf@fmt+1)& (0+255),b
  4800  002408  C0B2  F0A4         	movff	pago_de_Habitaciones@price,?_sprintf+4
  4801  00240C  C0B3  F0A5         	movff	pago_de_Habitaciones@price+1,?_sprintf+5
  4802  002410  EC11  F024         	call	_sprintf	;wreg free
  4803                           
  4804                           ;Proyecto_SSE1_13_05.c: 433:     Lcd_Out(1,1,"Pago de");
  4805  002414  0E01               	movlw	1
  4806  002416  6E04               	movwf	Lcd_Out@x,c
  4807  002418  0EA0               	movlw	low STR_67
  4808  00241A  6E05               	movwf	Lcd_Out@buffer,c
  4809  00241C  0E7F               	movlw	high STR_67
  4810  00241E  6E06               	movwf	Lcd_Out@buffer+1,c
  4811  002420  0E01               	movlw	1
  4812  002422  ECDA  F022         	call	_Lcd_Out
  4813                           
  4814                           ;Proyecto_SSE1_13_05.c: 434:     Lcd_Out2(2,1,palabra3);
  4815  002426  0E01               	movlw	1
  4816  002428  6E04               	movwf	Lcd_Out2@x,c
  4817  00242A  0E6A               	movlw	low _palabra3
  4818  00242C  6E05               	movwf	Lcd_Out2@buffer,c
  4819  00242E  0E01               	movlw	high _palabra3
  4820  002430  6E06               	movwf	Lcd_Out2@buffer+1,c
  4821  002432  0E02               	movlw	2
  4822  002434  EC4D  F023         	call	_Lcd_Out2
  4823                           
  4824                           ;Proyecto_SSE1_13_05.c: 435:     _delay((unsigned long)((1500)*(12000000/4000.0)));
  4825  002438  0E17               	movlw	23
  4826  00243A  0100               	movlb	0	; () banked
  4827  00243C  6FB5               	movwf	(??_pago_de_Habitaciones+1)& (0+255),b
  4828  00243E  0ED5               	movlw	213
  4829  002440  6FB4               	movwf	??_pago_de_Habitaciones& (0+255),b
  4830  002442  0E16               	movlw	22
  4831  002444                     u7807:
  4832  002444  2EE8               	decfsz	wreg,f,c
  4833  002446  D7FE               	bra	u7807
  4834  002448  2FB4               	decfsz	??_pago_de_Habitaciones& (0+255),f,b
  4835  00244A  D7FC               	bra	u7807
  4836  00244C  2FB5               	decfsz	(??_pago_de_Habitaciones+1)& (0+255),f,b
  4837  00244E  D7FA               	bra	u7807
  4838  002450  F000               	nop	
  4839                           
  4840                           ;Proyecto_SSE1_13_05.c: 436:     Lcd_Cmd(1);
  4841  002452  0E01               	movlw	1
  4842  002454  EC28  F01E         	call	_Lcd_Cmd
  4843                           
  4844                           ;Proyecto_SSE1_13_05.c: 437:     _delay((unsigned long)((100)*(12000000/4000.0)));
  4845  002458  0E02               	movlw	2
  4846  00245A  0100               	movlb	0	; () banked
  4847  00245C  6FB5               	movwf	(??_pago_de_Habitaciones+1)& (0+255),b
  4848  00245E  0E86               	movlw	134
  4849  002460  6FB4               	movwf	??_pago_de_Habitaciones& (0+255),b
  4850  002462  0E99               	movlw	153
  4851  002464                     u7817:
  4852  002464  2EE8               	decfsz	wreg,f,c
  4853  002466  D7FE               	bra	u7817
  4854  002468  2FB4               	decfsz	??_pago_de_Habitaciones& (0+255),f,b
  4855  00246A  D7FC               	bra	u7817
  4856  00246C  2FB5               	decfsz	(??_pago_de_Habitaciones+1)& (0+255),f,b
  4857  00246E  D7FA               	bra	u7817
  4858                           
  4859                           ;Proyecto_SSE1_13_05.c: 438:     sprintf(uso_local,"Costo $%d",price);
  4860  002470  0EC9               	movlw	low pago_de_Habitaciones@uso_local
  4861  002472  0100               	movlb	0	; () banked
  4862  002474  6FA0               	movwf	sprintf@s& (0+255),b
  4863  002476  0E00               	movlw	high pago_de_Habitaciones@uso_local
  4864  002478  6FA1               	movwf	(sprintf@s+1)& (0+255),b
  4865  00247A  0E6A               	movlw	low STR_68
  4866  00247C  6FA2               	movwf	sprintf@fmt& (0+255),b
  4867  00247E  0E7F               	movlw	high STR_68
  4868  002480  6FA3               	movwf	(sprintf@fmt+1)& (0+255),b
  4869  002482  C0B2  F0A4         	movff	pago_de_Habitaciones@price,?_sprintf+4
  4870  002486  C0B3  F0A5         	movff	pago_de_Habitaciones@price+1,?_sprintf+5
  4871  00248A  EC11  F024         	call	_sprintf	;wreg free
  4872                           
  4873                           ;Proyecto_SSE1_13_05.c: 439:     while(circle){
  4874  00248E  D1B7               	goto	l6200
  4875  002490                     l6124:
  4876                           
  4877                           ; BSR set to: 0
  4878                           ;Proyecto_SSE1_13_05.c: 440:         Lcd_Out2(1,1,uso_local);
  4879  002490  0E01               	movlw	1
  4880  002492  6E04               	movwf	Lcd_Out2@x,c
  4881  002494  0EC9               	movlw	low pago_de_Habitaciones@uso_local
  4882  002496  6E05               	movwf	Lcd_Out2@buffer,c
  4883  002498  0E00               	movlw	high pago_de_Habitaciones@uso_local
  4884  00249A  6E06               	movwf	Lcd_Out2@buffer+1,c
  4885  00249C  0E01               	movlw	1
  4886  00249E  EC4D  F023         	call	_Lcd_Out2
  4887                           
  4888                           ;Proyecto_SSE1_13_05.c: 441:         while(valor != '*'){
  4889  0024A2  D069               	goto	l6138
  4890  0024A4                     l6126:
  4891                           
  4892                           ; BSR set to: 0
  4893                           ;Proyecto_SSE1_13_05.c: 442:             teclado();
  4894  0024A4  ECD1  F020         	call	_teclado	;wreg free
  4895                           
  4896                           ;Proyecto_SSE1_13_05.c: 443:             if((valor>='0') && (valor<='9')){
  4897  0024A8  0E2F               	movlw	47
  4898  0024AA  0100               	movlb	0	; () banked
  4899  0024AC  65FF               	cpfsgt	_valor& (0+255),b
  4900  0024AE  D063               	goto	l6138
  4901                           
  4902                           ; BSR set to: 0
  4903  0024B0  0E3A               	movlw	58
  4904  0024B2  61FF               	cpfslt	_valor& (0+255),b
  4905  0024B4  D060               	goto	l6138
  4906                           
  4907                           ; BSR set to: 0
  4908                           ;Proyecto_SSE1_13_05.c: 444:                 money=(money)*10 + (valor-48);
  4909  0024B6  0E00               	movlw	0
  4910  0024B8  6E05               	movwf	___flmul@a,c
  4911  0024BA  0E00               	movlw	0
  4912  0024BC  6E06               	movwf	___flmul@a+1,c
  4913  0024BE  0E20               	movlw	32
  4914  0024C0  6E07               	movwf	___flmul@a+2,c
  4915  0024C2  0E41               	movlw	65
  4916  0024C4  6E08               	movwf	___flmul@a+3,c
  4917  0024C6  C0E0  F001         	movff	pago_de_Habitaciones@money,___flmul@b
  4918  0024CA  C0E1  F002         	movff	pago_de_Habitaciones@money+1,___flmul@b+1
  4919  0024CE  C0E2  F003         	movff	pago_de_Habitaciones@money+2,___flmul@b+2
  4920  0024D2  C0E3  F004         	movff	pago_de_Habitaciones@money+3,___flmul@b+3
  4921  0024D6  EC05  F014         	call	___flmul	;wreg free
  4922  0024DA  C001  F01A         	movff	?___flmul,___fladd@b
  4923  0024DE  C002  F01B         	movff	?___flmul+1,___fladd@b+1
  4924  0024E2  C003  F01C         	movff	?___flmul+2,___fladd@b+2
  4925  0024E6  C004  F01D         	movff	?___flmul+3,___fladd@b+3
  4926  0024EA  0ED0               	movlw	208
  4927  0024EC  0100               	movlb	0	; () banked
  4928  0024EE  6FB4               	movwf	??_pago_de_Habitaciones& (0+255),b
  4929  0024F0  0EFF               	movlw	255
  4930  0024F2  6FB5               	movwf	(??_pago_de_Habitaciones+1)& (0+255),b
  4931  0024F4  51FF               	movf	_valor& (0+255),w,b
  4932  0024F6  6FB6               	movwf	(??_pago_de_Habitaciones+2)& (0+255),b
  4933  0024F8  6BB7               	clrf	(??_pago_de_Habitaciones+3)& (0+255),b
  4934  0024FA  51B4               	movf	??_pago_de_Habitaciones& (0+255),w,b
  4935  0024FC  27B6               	addwf	(??_pago_de_Habitaciones+2)& (0+255),f,b
  4936  0024FE  51B5               	movf	(??_pago_de_Habitaciones+1)& (0+255),w,b
  4937  002500  23B7               	addwfc	(??_pago_de_Habitaciones+3)& (0+255),f,b
  4938  002502  C0B6  F001         	movff	??_pago_de_Habitaciones+2,___xxtofl@val
  4939  002506  C0B7  F002         	movff	??_pago_de_Habitaciones+3,___xxtofl@val+1
  4940  00250A  0E00               	movlw	0
  4941  00250C  BE02               	btfsc	___xxtofl@val+1,7,c
  4942  00250E  0EFF               	movlw	-1
  4943  002510  6E03               	movwf	___xxtofl@val+2,c
  4944  002512  6E04               	movwf	___xxtofl@val+3,c
  4945  002514  0E01               	movlw	1
  4946  002516  ECC4  F01B         	call	___xxtofl
  4947  00251A  C001  F01E         	movff	?___xxtofl,___fladd@a
  4948  00251E  C002  F01F         	movff	?___xxtofl+1,___fladd@a+1
  4949  002522  C003  F020         	movff	?___xxtofl+2,___fladd@a+2
  4950  002526  C004  F021         	movff	?___xxtofl+3,___fladd@a+3
  4951  00252A  ECAE  F015         	call	___fladd	;wreg free
  4952  00252E  C01A  F0E0         	movff	?___fladd,pago_de_Habitaciones@money
  4953  002532  C01B  F0E1         	movff	?___fladd+1,pago_de_Habitaciones@money+1
  4954  002536  C01C  F0E2         	movff	?___fladd+2,pago_de_Habitaciones@money+2
  4955  00253A  C01D  F0E3         	movff	?___fladd+3,pago_de_Habitaciones@money+3
  4956                           
  4957                           ;Proyecto_SSE1_13_05.c: 445:                 sprintf(uso_local2,"Pago: %.2f",money);
  4958  00253E  0EB8               	movlw	low pago_de_Habitaciones@uso_local2
  4959  002540  0100               	movlb	0	; () banked
  4960  002542  6FA0               	movwf	sprintf@s& (0+255),b
  4961  002544  0E00               	movlw	high pago_de_Habitaciones@uso_local2
  4962  002546  6FA1               	movwf	(sprintf@s+1)& (0+255),b
  4963  002548  0E36               	movlw	low STR_69
  4964  00254A  6FA2               	movwf	sprintf@fmt& (0+255),b
  4965  00254C  0E7F               	movlw	high STR_69
  4966  00254E  6FA3               	movwf	(sprintf@fmt+1)& (0+255),b
  4967  002550  C0E0  F0A4         	movff	pago_de_Habitaciones@money,?_sprintf+4
  4968  002554  C0E1  F0A5         	movff	pago_de_Habitaciones@money+1,?_sprintf+5
  4969  002558  C0E2  F0A6         	movff	pago_de_Habitaciones@money+2,?_sprintf+6
  4970  00255C  C0E3  F0A7         	movff	pago_de_Habitaciones@money+3,?_sprintf+7
  4971  002560  EC11  F024         	call	_sprintf	;wreg free
  4972                           
  4973                           ;Proyecto_SSE1_13_05.c: 446:                 Lcd_Out2(2,1,uso_local2);
  4974  002564  0E01               	movlw	1
  4975  002566  6E04               	movwf	Lcd_Out2@x,c
  4976  002568  0EB8               	movlw	low pago_de_Habitaciones@uso_local2
  4977  00256A  6E05               	movwf	Lcd_Out2@buffer,c
  4978  00256C  0E00               	movlw	high pago_de_Habitaciones@uso_local2
  4979  00256E  6E06               	movwf	Lcd_Out2@buffer+1,c
  4980  002570  0E02               	movlw	2
  4981  002572  EC4D  F023         	call	_Lcd_Out2
  4982  002576                     l6138:
  4983                           
  4984                           ;Proyecto_SSE1_13_05.c: 441:         while(valor != '*'){
  4985  002576  0E2A               	movlw	42
  4986  002578  0100               	movlb	0	; () banked
  4987  00257A  19FF               	xorwf	_valor& (0+255),w,b
  4988  00257C  A4D8               	btfss	status,2,c
  4989  00257E  D792               	goto	l6126
  4990                           
  4991                           ; BSR set to: 0
  4992                           ;Proyecto_SSE1_13_05.c: 449:         if(money<price){valor=0;money=0;
  4993  002580  C0E0  F01A         	movff	pago_de_Habitaciones@money,___flge@ff1
  4994  002584  C0E1  F01B         	movff	pago_de_Habitaciones@money+1,___flge@ff1+1
  4995  002588  C0E2  F01C         	movff	pago_de_Habitaciones@money+2,___flge@ff1+2
  4996  00258C  C0E3  F01D         	movff	pago_de_Habitaciones@money+3,___flge@ff1+3
  4997  002590  C0B2  F001         	movff	pago_de_Habitaciones@price,___xxtofl@val
  4998  002594  C0B3  F002         	movff	pago_de_Habitaciones@price+1,___xxtofl@val+1
  4999  002598  0E00               	movlw	0
  5000  00259A  BE02               	btfsc	___xxtofl@val+1,7,c
  5001  00259C  0EFF               	movlw	-1
  5002  00259E  6E03               	movwf	___xxtofl@val+2,c
  5003  0025A0  6E04               	movwf	___xxtofl@val+3,c
  5004  0025A2  0E01               	movlw	1
  5005  0025A4  ECC4  F01B         	call	___xxtofl
  5006  0025A8  C001  F01E         	movff	?___xxtofl,___flge@ff2
  5007  0025AC  C002  F01F         	movff	?___xxtofl+1,___flge@ff2+1
  5008  0025B0  C003  F020         	movff	?___xxtofl+2,___flge@ff2+2
  5009  0025B4  C004  F021         	movff	?___xxtofl+3,___flge@ff2+3
  5010  0025B8  EC40  F01F         	call	___flge	;wreg free
  5011  0025BC  B0D8               	btfsc	status,0,c
  5012  0025BE  D077               	goto	l6168
  5013  0025C0  0E00               	movlw	0
  5014  0025C2  0100               	movlb	0	; () banked
  5015  0025C4  6FFF               	movwf	_valor& (0+255),b
  5016  0025C6  0E00               	movlw	0
  5017  0025C8  6FE0               	movwf	pago_de_Habitaciones@money& (0+255),b
  5018  0025CA  0E00               	movlw	0
  5019  0025CC  6FE1               	movwf	(pago_de_Habitaciones@money+1)& (0+255),b
  5020  0025CE  0E00               	movlw	0
  5021  0025D0  6FE2               	movwf	(pago_de_Habitaciones@money+2)& (0+255),b
  5022  0025D2  0E00               	movlw	0
  5023  0025D4  6FE3               	movwf	(pago_de_Habitaciones@money+3)& (0+255),b
  5024                           
  5025                           ; BSR set to: 0
  5026                           ;Proyecto_SSE1_13_05.c: 450:             Lcd_Cmd(1);
  5027  0025D6  0E01               	movlw	1
  5028  0025D8  EC28  F01E         	call	_Lcd_Cmd
  5029                           
  5030                           ;Proyecto_SSE1_13_05.c: 451:             _delay((unsigned long)((100)*(12000000/4000.0))
      +                          );
  5031  0025DC  0E02               	movlw	2
  5032  0025DE  0100               	movlb	0	; () banked
  5033  0025E0  6FB5               	movwf	(??_pago_de_Habitaciones+1)& (0+255),b
  5034  0025E2  0E86               	movlw	134
  5035  0025E4  6FB4               	movwf	??_pago_de_Habitaciones& (0+255),b
  5036  0025E6  0E99               	movlw	153
  5037  0025E8                     u7827:
  5038  0025E8  2EE8               	decfsz	wreg,f,c
  5039  0025EA  D7FE               	bra	u7827
  5040  0025EC  2FB4               	decfsz	??_pago_de_Habitaciones& (0+255),f,b
  5041  0025EE  D7FC               	bra	u7827
  5042  0025F0  2FB5               	decfsz	(??_pago_de_Habitaciones+1)& (0+255),f,b
  5043  0025F2  D7FA               	bra	u7827
  5044                           
  5045                           ;Proyecto_SSE1_13_05.c: 452:             Lcd_Out(1,1,"Pobre XD");
  5046  0025F4  0E01               	movlw	1
  5047  0025F6  6E04               	movwf	Lcd_Out@x,c
  5048  0025F8  0E7E               	movlw	low STR_70
  5049  0025FA  6E05               	movwf	Lcd_Out@buffer,c
  5050  0025FC  0E7F               	movlw	high STR_70
  5051  0025FE  6E06               	movwf	Lcd_Out@buffer+1,c
  5052  002600  0E01               	movlw	1
  5053  002602  ECDA  F022         	call	_Lcd_Out
  5054                           
  5055                           ;Proyecto_SSE1_13_05.c: 453:             Lcd_Out(2,1,"A conseguir");
  5056  002606  0E01               	movlw	1
  5057  002608  6E04               	movwf	Lcd_Out@x,c
  5058  00260A  0EFD               	movlw	low STR_71
  5059  00260C  6E05               	movwf	Lcd_Out@buffer,c
  5060  00260E  0E7E               	movlw	high STR_71
  5061  002610  6E06               	movwf	Lcd_Out@buffer+1,c
  5062  002612  0E02               	movlw	2
  5063  002614  ECDA  F022         	call	_Lcd_Out
  5064                           
  5065                           ;Proyecto_SSE1_13_05.c: 454:             _delay((unsigned long)((1500)*(12000000/4000.0)
      +                          ));
  5066  002618  0E17               	movlw	23
  5067  00261A  0100               	movlb	0	; () banked
  5068  00261C  6FB5               	movwf	(??_pago_de_Habitaciones+1)& (0+255),b
  5069  00261E  0ED5               	movlw	213
  5070  002620  6FB4               	movwf	??_pago_de_Habitaciones& (0+255),b
  5071  002622  0E16               	movlw	22
  5072  002624                     u7837:
  5073  002624  2EE8               	decfsz	wreg,f,c
  5074  002626  D7FE               	bra	u7837
  5075  002628  2FB4               	decfsz	??_pago_de_Habitaciones& (0+255),f,b
  5076  00262A  D7FC               	bra	u7837
  5077  00262C  2FB5               	decfsz	(??_pago_de_Habitaciones+1)& (0+255),f,b
  5078  00262E  D7FA               	bra	u7837
  5079  002630  F000               	nop	
  5080                           
  5081                           ;Proyecto_SSE1_13_05.c: 455:             Lcd_Cmd(1);
  5082  002632  0E01               	movlw	1
  5083  002634  EC28  F01E         	call	_Lcd_Cmd
  5084                           
  5085                           ;Proyecto_SSE1_13_05.c: 456:             _delay((unsigned long)((100)*(12000000/4000.0))
      +                          );
  5086  002638  0E02               	movlw	2
  5087  00263A  0100               	movlb	0	; () banked
  5088  00263C  6FB5               	movwf	(??_pago_de_Habitaciones+1)& (0+255),b
  5089  00263E  0E86               	movlw	134
  5090  002640  6FB4               	movwf	??_pago_de_Habitaciones& (0+255),b
  5091  002642  0E99               	movlw	153
  5092  002644                     u7847:
  5093  002644  2EE8               	decfsz	wreg,f,c
  5094  002646  D7FE               	bra	u7847
  5095  002648  2FB4               	decfsz	??_pago_de_Habitaciones& (0+255),f,b
  5096  00264A  D7FC               	bra	u7847
  5097  00264C  2FB5               	decfsz	(??_pago_de_Habitaciones+1)& (0+255),f,b
  5098  00264E  D7FA               	bra	u7847
  5099                           
  5100                           ;Proyecto_SSE1_13_05.c: 457:             Lcd_Out(1,1,"Dinero y rapido");
  5101  002650  0E01               	movlw	1
  5102  002652  6E04               	movwf	Lcd_Out@x,c
  5103  002654  0EB0               	movlw	low STR_72
  5104  002656  6E05               	movwf	Lcd_Out@buffer,c
  5105  002658  0E7D               	movlw	high STR_72
  5106  00265A  6E06               	movwf	Lcd_Out@buffer+1,c
  5107  00265C  0E01               	movlw	1
  5108  00265E  ECDA  F022         	call	_Lcd_Out
  5109                           
  5110                           ;Proyecto_SSE1_13_05.c: 458:             Lcd_Out(2,1,"***************");
  5111  002662  0E01               	movlw	1
  5112  002664  6E04               	movwf	Lcd_Out@x,c
  5113  002666  0E90               	movlw	low STR_24
  5114  002668  6E05               	movwf	Lcd_Out@buffer,c
  5115  00266A  0E7D               	movlw	high STR_24
  5116  00266C  6E06               	movwf	Lcd_Out@buffer+1,c
  5117  00266E  0E02               	movlw	2
  5118  002670  ECDA  F022         	call	_Lcd_Out
  5119                           
  5120                           ;Proyecto_SSE1_13_05.c: 459:             _delay((unsigned long)((1000)*(12000000/4000.0)
      +                          ));
  5121  002674  0E10               	movlw	16
  5122  002676  0100               	movlb	0	; () banked
  5123  002678  6FB5               	movwf	(??_pago_de_Habitaciones+1)& (0+255),b
  5124  00267A  0E39               	movlw	57
  5125  00267C  6FB4               	movwf	??_pago_de_Habitaciones& (0+255),b
  5126  00267E  0E0D               	movlw	13
  5127  002680                     u7857:
  5128  002680  2EE8               	decfsz	wreg,f,c
  5129  002682  D7FE               	bra	u7857
  5130  002684  2FB4               	decfsz	??_pago_de_Habitaciones& (0+255),f,b
  5131  002686  D7FC               	bra	u7857
  5132  002688  2FB5               	decfsz	(??_pago_de_Habitaciones+1)& (0+255),f,b
  5133  00268A  D7FA               	bra	u7857
  5134  00268C  D000               	nop2	
  5135                           
  5136                           ;Proyecto_SSE1_13_05.c: 460:             Lcd_Cmd(1);
  5137  00268E  0E01               	movlw	1
  5138  002690  EC28  F01E         	call	_Lcd_Cmd
  5139                           
  5140                           ;Proyecto_SSE1_13_05.c: 461:             _delay((unsigned long)((100)*(12000000/4000.0))
      +                          );
  5141  002694  0E02               	movlw	2
  5142  002696  0100               	movlb	0	; () banked
  5143  002698  6FB5               	movwf	(??_pago_de_Habitaciones+1)& (0+255),b
  5144  00269A  0E86               	movlw	134
  5145  00269C  6FB4               	movwf	??_pago_de_Habitaciones& (0+255),b
  5146  00269E  0E99               	movlw	153
  5147  0026A0                     u7867:
  5148  0026A0  2EE8               	decfsz	wreg,f,c
  5149  0026A2  D7FE               	bra	u7867
  5150  0026A4  2FB4               	decfsz	??_pago_de_Habitaciones& (0+255),f,b
  5151  0026A6  D7FC               	bra	u7867
  5152  0026A8  2FB5               	decfsz	(??_pago_de_Habitaciones+1)& (0+255),f,b
  5153  0026AA  D7FA               	bra	u7867
  5154                           
  5155                           ;Proyecto_SSE1_13_05.c: 462:         }
  5156  0026AC  D0A8               	goto	l6200
  5157  0026AE                     l6168:
  5158  0026AE  0E00               	movlw	0
  5159  0026B0  0100               	movlb	0	; () banked
  5160  0026B2  6FFF               	movwf	_valor& (0+255),b
  5161                           
  5162                           ; BSR set to: 0
  5163                           ;Proyecto_SSE1_13_05.c: 464:             Lcd_Cmd(1);
  5164  0026B4  0E01               	movlw	1
  5165  0026B6  EC28  F01E         	call	_Lcd_Cmd
  5166                           
  5167                           ;Proyecto_SSE1_13_05.c: 465:             _delay((unsigned long)((100)*(12000000/4000.0))
      +                          );
  5168  0026BA  0E02               	movlw	2
  5169  0026BC  0100               	movlb	0	; () banked
  5170  0026BE  6FB5               	movwf	(??_pago_de_Habitaciones+1)& (0+255),b
  5171  0026C0  0E86               	movlw	134
  5172  0026C2  6FB4               	movwf	??_pago_de_Habitaciones& (0+255),b
  5173  0026C4  0E99               	movlw	153
  5174  0026C6                     u7877:
  5175  0026C6  2EE8               	decfsz	wreg,f,c
  5176  0026C8  D7FE               	bra	u7877
  5177  0026CA  2FB4               	decfsz	??_pago_de_Habitaciones& (0+255),f,b
  5178  0026CC  D7FC               	bra	u7877
  5179  0026CE  2FB5               	decfsz	(??_pago_de_Habitaciones+1)& (0+255),f,b
  5180  0026D0  D7FA               	bra	u7877
  5181                           
  5182                           ;Proyecto_SSE1_13_05.c: 466:             cambio=(float)money-price;
  5183  0026D2  C0E0  F02A         	movff	pago_de_Habitaciones@money,___flsub@b
  5184  0026D6  C0E1  F02B         	movff	pago_de_Habitaciones@money+1,___flsub@b+1
  5185  0026DA  C0E2  F02C         	movff	pago_de_Habitaciones@money+2,___flsub@b+2
  5186  0026DE  C0E3  F02D         	movff	pago_de_Habitaciones@money+3,___flsub@b+3
  5187  0026E2  C0B2  F001         	movff	pago_de_Habitaciones@price,___xxtofl@val
  5188  0026E6  C0B3  F002         	movff	pago_de_Habitaciones@price+1,___xxtofl@val+1
  5189  0026EA  0E00               	movlw	0
  5190  0026EC  BE02               	btfsc	___xxtofl@val+1,7,c
  5191  0026EE  0EFF               	movlw	-1
  5192  0026F0  6E03               	movwf	___xxtofl@val+2,c
  5193  0026F2  6E04               	movwf	___xxtofl@val+3,c
  5194  0026F4  0E01               	movlw	1
  5195  0026F6  ECC4  F01B         	call	___xxtofl
  5196  0026FA  C001  F02E         	movff	?___xxtofl,___flsub@a
  5197  0026FE  C002  F02F         	movff	?___xxtofl+1,___flsub@a+1
  5198  002702  C003  F030         	movff	?___xxtofl+2,___flsub@a+2
  5199  002706  C004  F031         	movff	?___xxtofl+3,___flsub@a+3
  5200  00270A  ECB1  F024         	call	___flsub	;wreg free
  5201  00270E  C02A  F0DA         	movff	?___flsub,pago_de_Habitaciones@cambio
  5202  002712  C02B  F0DB         	movff	?___flsub+1,pago_de_Habitaciones@cambio+1
  5203  002716  C02C  F0DC         	movff	?___flsub+2,pago_de_Habitaciones@cambio+2
  5204  00271A  C02D  F0DD         	movff	?___flsub+3,pago_de_Habitaciones@cambio+3
  5205                           
  5206                           ;Proyecto_SSE1_13_05.c: 467:             sprintf(uso_local,":%.2f",cambio);
  5207  00271E  0EC9               	movlw	low pago_de_Habitaciones@uso_local
  5208  002720  0100               	movlb	0	; () banked
  5209  002722  6FA0               	movwf	sprintf@s& (0+255),b
  5210  002724  0E00               	movlw	high pago_de_Habitaciones@uso_local
  5211  002726  6FA1               	movwf	(sprintf@s+1)& (0+255),b
  5212  002728  0ED2               	movlw	low STR_74
  5213  00272A  6FA2               	movwf	sprintf@fmt& (0+255),b
  5214  00272C  0E7F               	movlw	high STR_74
  5215  00272E  6FA3               	movwf	(sprintf@fmt+1)& (0+255),b
  5216  002730  C0DA  F0A4         	movff	pago_de_Habitaciones@cambio,?_sprintf+4
  5217  002734  C0DB  F0A5         	movff	pago_de_Habitaciones@cambio+1,?_sprintf+5
  5218  002738  C0DC  F0A6         	movff	pago_de_Habitaciones@cambio+2,?_sprintf+6
  5219  00273C  C0DD  F0A7         	movff	pago_de_Habitaciones@cambio+3,?_sprintf+7
  5220  002740  EC11  F024         	call	_sprintf	;wreg free
  5221                           
  5222                           ;Proyecto_SSE1_13_05.c: 468:             Lcd_Out(1,1,"Su cambio es");
  5223  002744  0E01               	movlw	1
  5224  002746  6E04               	movwf	Lcd_Out@x,c
  5225  002748  0EB2               	movlw	low STR_75
  5226  00274A  6E05               	movwf	Lcd_Out@buffer,c
  5227  00274C  0E7E               	movlw	high STR_75
  5228  00274E  6E06               	movwf	Lcd_Out@buffer+1,c
  5229  002750  0E01               	movlw	1
  5230  002752  ECDA  F022         	call	_Lcd_Out
  5231                           
  5232                           ;Proyecto_SSE1_13_05.c: 469:             Lcd_Out2(2,1,uso_local);
  5233  002756  0E01               	movlw	1
  5234  002758  6E04               	movwf	Lcd_Out2@x,c
  5235  00275A  0EC9               	movlw	low pago_de_Habitaciones@uso_local
  5236  00275C  6E05               	movwf	Lcd_Out2@buffer,c
  5237  00275E  0E00               	movlw	high pago_de_Habitaciones@uso_local
  5238  002760  6E06               	movwf	Lcd_Out2@buffer+1,c
  5239  002762  0E02               	movlw	2
  5240  002764  EC4D  F023         	call	_Lcd_Out2
  5241                           
  5242                           ;Proyecto_SSE1_13_05.c: 470:             _delay((unsigned long)((1500)*(12000000/4000.0)
      +                          ));
  5243  002768  0E17               	movlw	23
  5244  00276A  0100               	movlb	0	; () banked
  5245  00276C  6FB5               	movwf	(??_pago_de_Habitaciones+1)& (0+255),b
  5246  00276E  0ED5               	movlw	213
  5247  002770  6FB4               	movwf	??_pago_de_Habitaciones& (0+255),b
  5248  002772  0E16               	movlw	22
  5249  002774                     u7887:
  5250  002774  2EE8               	decfsz	wreg,f,c
  5251  002776  D7FE               	bra	u7887
  5252  002778  2FB4               	decfsz	??_pago_de_Habitaciones& (0+255),f,b
  5253  00277A  D7FC               	bra	u7887
  5254  00277C  2FB5               	decfsz	(??_pago_de_Habitaciones+1)& (0+255),f,b
  5255  00277E  D7FA               	bra	u7887
  5256  002780  F000               	nop	
  5257                           
  5258                           ;Proyecto_SSE1_13_05.c: 471:             Lcd_Cmd(1);
  5259  002782  0E01               	movlw	1
  5260  002784  EC28  F01E         	call	_Lcd_Cmd
  5261                           
  5262                           ;Proyecto_SSE1_13_05.c: 472:             _delay((unsigned long)((100)*(12000000/4000.0))
      +                          );
  5263  002788  0E02               	movlw	2
  5264  00278A  0100               	movlb	0	; () banked
  5265  00278C  6FB5               	movwf	(??_pago_de_Habitaciones+1)& (0+255),b
  5266  00278E  0E86               	movlw	134
  5267  002790  6FB4               	movwf	??_pago_de_Habitaciones& (0+255),b
  5268  002792  0E99               	movlw	153
  5269  002794                     u7897:
  5270  002794  2EE8               	decfsz	wreg,f,c
  5271  002796  D7FE               	bra	u7897
  5272  002798  2FB4               	decfsz	??_pago_de_Habitaciones& (0+255),f,b
  5273  00279A  D7FC               	bra	u7897
  5274  00279C  2FB5               	decfsz	(??_pago_de_Habitaciones+1)& (0+255),f,b
  5275  00279E  D7FA               	bra	u7897
  5276                           
  5277                           ;Proyecto_SSE1_13_05.c: 473:             Lcd_Out(1,1,"Gracias por su");
  5278  0027A0  0E01               	movlw	1
  5279  0027A2  6E04               	movwf	Lcd_Out@x,c
  5280  0027A4  0E38               	movlw	low STR_76
  5281  0027A6  6E05               	movwf	Lcd_Out@buffer,c
  5282  0027A8  0E7E               	movlw	high STR_76
  5283  0027AA  6E06               	movwf	Lcd_Out@buffer+1,c
  5284  0027AC  0E01               	movlw	1
  5285  0027AE  ECDA  F022         	call	_Lcd_Out
  5286                           
  5287                           ;Proyecto_SSE1_13_05.c: 474:             Lcd_Out(2,4,"Pago");
  5288  0027B2  0E04               	movlw	4
  5289  0027B4  6E04               	movwf	Lcd_Out@x,c
  5290  0027B6  0EE7               	movlw	low STR_77
  5291  0027B8  6E05               	movwf	Lcd_Out@buffer,c
  5292  0027BA  0E7F               	movlw	high STR_77
  5293  0027BC  6E06               	movwf	Lcd_Out@buffer+1,c
  5294  0027BE  0E02               	movlw	2
  5295  0027C0  ECDA  F022         	call	_Lcd_Out
  5296                           
  5297                           ;Proyecto_SSE1_13_05.c: 475:             _delay((unsigned long)((1000)*(12000000/4000.0)
      +                          ));
  5298  0027C4  0E10               	movlw	16
  5299  0027C6  0100               	movlb	0	; () banked
  5300  0027C8  6FB5               	movwf	(??_pago_de_Habitaciones+1)& (0+255),b
  5301  0027CA  0E39               	movlw	57
  5302  0027CC  6FB4               	movwf	??_pago_de_Habitaciones& (0+255),b
  5303  0027CE  0E0D               	movlw	13
  5304  0027D0                     u7907:
  5305  0027D0  2EE8               	decfsz	wreg,f,c
  5306  0027D2  D7FE               	bra	u7907
  5307  0027D4  2FB4               	decfsz	??_pago_de_Habitaciones& (0+255),f,b
  5308  0027D6  D7FC               	bra	u7907
  5309  0027D8  2FB5               	decfsz	(??_pago_de_Habitaciones+1)& (0+255),f,b
  5310  0027DA  D7FA               	bra	u7907
  5311  0027DC  D000               	nop2	
  5312                           
  5313                           ;Proyecto_SSE1_13_05.c: 476:             Lcd_Cmd(1);
  5314  0027DE  0E01               	movlw	1
  5315  0027E0  EC28  F01E         	call	_Lcd_Cmd
  5316                           
  5317                           ;Proyecto_SSE1_13_05.c: 477:             _delay((unsigned long)((100)*(12000000/4000.0))
      +                          );
  5318  0027E4  0E02               	movlw	2
  5319  0027E6  0100               	movlb	0	; () banked
  5320  0027E8  6FB5               	movwf	(??_pago_de_Habitaciones+1)& (0+255),b
  5321  0027EA  0E86               	movlw	134
  5322  0027EC  6FB4               	movwf	??_pago_de_Habitaciones& (0+255),b
  5323  0027EE  0E99               	movlw	153
  5324  0027F0                     u7917:
  5325  0027F0  2EE8               	decfsz	wreg,f,c
  5326  0027F2  D7FE               	bra	u7917
  5327  0027F4  2FB4               	decfsz	??_pago_de_Habitaciones& (0+255),f,b
  5328  0027F6  D7FC               	bra	u7917
  5329  0027F8  2FB5               	decfsz	(??_pago_de_Habitaciones+1)& (0+255),f,b
  5330  0027FA  D7FA               	bra	u7917
  5331                           
  5332                           ;Proyecto_SSE1_13_05.c: 479:             break;
  5333  0027FC  0012               	return	
  5334  0027FE                     l6200:
  5335                           
  5336                           ;Proyecto_SSE1_13_05.c: 439:     while(circle){
  5337  0027FE  0100               	movlb	0	; () banked
  5338  002800  51DE               	movf	pago_de_Habitaciones@circle& (0+255),w,b
  5339  002802  11DF               	iorwf	(pago_de_Habitaciones@circle+1)& (0+255),w,b
  5340  002804  B4D8               	btfsc	status,2,c
  5341  002806  0012               	return	
  5342  002808  D643               	goto	l6124
  5343  00280A                     __end_of_pago_de_Habitaciones:
  5344                           	opt callstack 0
  5345                           
  5346 ;; *************** function ___xxtofl *****************
  5347 ;; Defined at:
  5348 ;;		line 10 in file "C:\Program Files (x86)\Microchip\xc8\v2.05\pic\sources\c99\common\xxtofl.c"
  5349 ;; Parameters:    Size  Location     Type
  5350 ;;  sign            1    wreg     unsigned char 
  5351 ;;  val             4    0[COMRAM] long 
  5352 ;; Auto vars:     Size  Location     Type
  5353 ;;  sign            1    8[COMRAM] unsigned char 
  5354 ;;  arg             4   10[COMRAM] unsigned long 
  5355 ;;  exp             1    9[COMRAM] unsigned char 
  5356 ;; Return value:  Size  Location     Type
  5357 ;;                  4    0[COMRAM] unsigned char 
  5358 ;; Registers used:
  5359 ;;		wreg, status,2, status,0
  5360 ;; Tracked objects:
  5361 ;;		On entry : 0/0
  5362 ;;		On exit  : 0/0
  5363 ;;		Unchanged: 0/0
  5364 ;; Data sizes:     COMRAM   BANK0   BANK1   BANK2   BANK3   BANK4   BANK5   BANK6   BANK7
  5365 ;;      Params:         4       0       0       0       0       0       0       0       0
  5366 ;;      Locals:         6       0       0       0       0       0       0       0       0
  5367 ;;      Temps:          4       0       0       0       0       0       0       0       0
  5368 ;;      Totals:        14       0       0       0       0       0       0       0       0
  5369 ;;Total ram usage:       14 bytes
  5370 ;; Hardware stack levels used:    1
  5371 ;; Hardware stack levels required when called:    2
  5372 ;; This function calls:
  5373 ;;		Nothing
  5374 ;; This function is called by:
  5375 ;;		_pago_de_Habitaciones
  5376 ;; This function uses a non-reentrant model
  5377 ;;
  5378                           
  5379                           	psect	text2
  5380  003788                     __ptext2:
  5381                           	opt callstack 0
  5382  003788                     ___xxtofl:
  5383                           	opt callstack 27
  5384                           
  5385                           ;incstack = 0
  5386                           ;___xxtofl@sign stored from wreg
  5387  003788  6E09               	movwf	___xxtofl@sign,c
  5388  00378A  5009               	movf	___xxtofl@sign,w,c
  5389  00378C  A4D8               	btfss	status,2,c
  5390  00378E  AE04               	btfss	___xxtofl@val+3,7,c
  5391  003790  D01A               	goto	l1164
  5392  003792  C001  F005         	movff	___xxtofl@val,??___xxtofl
  5393  003796  C002  F006         	movff	___xxtofl@val+1,??___xxtofl+1
  5394  00379A  C003  F007         	movff	___xxtofl@val+2,??___xxtofl+2
  5395  00379E  C004  F008         	movff	___xxtofl@val+3,??___xxtofl+3
  5396  0037A2  1E05               	comf	??___xxtofl,f,c
  5397  0037A4  1E06               	comf	??___xxtofl+1,f,c
  5398  0037A6  1E07               	comf	??___xxtofl+2,f,c
  5399  0037A8  1E08               	comf	??___xxtofl+3,f,c
  5400  0037AA  2A05               	incf	??___xxtofl,f,c
  5401  0037AC  0E00               	movlw	0
  5402  0037AE  2206               	addwfc	??___xxtofl+1,f,c
  5403  0037B0  2207               	addwfc	??___xxtofl+2,f,c
  5404  0037B2  2208               	addwfc	??___xxtofl+3,f,c
  5405  0037B4  C005  F00B         	movff	??___xxtofl,___xxtofl@arg
  5406  0037B8  C006  F00C         	movff	??___xxtofl+1,___xxtofl@arg+1
  5407  0037BC  C007  F00D         	movff	??___xxtofl+2,___xxtofl@arg+2
  5408  0037C0  C008  F00E         	movff	??___xxtofl+3,___xxtofl@arg+3
  5409  0037C4  D008               	goto	l5986
  5410  0037C6                     l1164:
  5411  0037C6  C001  F00B         	movff	___xxtofl@val,___xxtofl@arg
  5412  0037CA  C002  F00C         	movff	___xxtofl@val+1,___xxtofl@arg+1
  5413  0037CE  C003  F00D         	movff	___xxtofl@val+2,___xxtofl@arg+2
  5414  0037D2  C004  F00E         	movff	___xxtofl@val+3,___xxtofl@arg+3
  5415  0037D6                     l5986:
  5416  0037D6  5001               	movf	___xxtofl@val,w,c
  5417  0037D8  1002               	iorwf	___xxtofl@val+1,w,c
  5418  0037DA  1003               	iorwf	___xxtofl@val+2,w,c
  5419  0037DC  1004               	iorwf	___xxtofl@val+3,w,c
  5420  0037DE  A4D8               	btfss	status,2,c
  5421  0037E0  D009               	goto	l5992
  5422  0037E2  0E00               	movlw	0
  5423  0037E4  6E01               	movwf	?___xxtofl,c
  5424  0037E6  0E00               	movlw	0
  5425  0037E8  6E02               	movwf	?___xxtofl+1,c
  5426  0037EA  0E00               	movlw	0
  5427  0037EC  6E03               	movwf	?___xxtofl+2,c
  5428  0037EE  0E00               	movlw	0
  5429  0037F0  6E04               	movwf	?___xxtofl+3,c
  5430  0037F2  0012               	return	
  5431  0037F4                     l5992:
  5432  0037F4  0E96               	movlw	150
  5433  0037F6  6E0A               	movwf	___xxtofl@exp,c
  5434  0037F8  D006               	goto	l5996
  5435  0037FA                     l5994:
  5436  0037FA  2A0A               	incf	___xxtofl@exp,f,c
  5437  0037FC  90D8               	bcf	status,0,c
  5438  0037FE  320E               	rrcf	___xxtofl@arg+3,f,c
  5439  003800  320D               	rrcf	___xxtofl@arg+2,f,c
  5440  003802  320C               	rrcf	___xxtofl@arg+1,f,c
  5441  003804  320B               	rrcf	___xxtofl@arg,f,c
  5442  003806                     l5996:
  5443  003806  0E00               	movlw	0
  5444  003808  140B               	andwf	___xxtofl@arg,w,c
  5445  00380A  6E05               	movwf	??___xxtofl& (0+255),c
  5446  00380C  0E00               	movlw	0
  5447  00380E  140C               	andwf	___xxtofl@arg+1,w,c
  5448  003810  6E06               	movwf	(??___xxtofl+1)& (0+255),c
  5449  003812  0E00               	movlw	0
  5450  003814  140D               	andwf	___xxtofl@arg+2,w,c
  5451  003816  6E07               	movwf	(??___xxtofl+2)& (0+255),c
  5452  003818  0EFE               	movlw	254
  5453  00381A  140E               	andwf	___xxtofl@arg+3,w,c
  5454  00381C  6E08               	movwf	(??___xxtofl+3)& (0+255),c
  5455  00381E  5005               	movf	??___xxtofl,w,c
  5456  003820  1006               	iorwf	??___xxtofl+1,w,c
  5457  003822  1007               	iorwf	??___xxtofl+2,w,c
  5458  003824  1008               	iorwf	??___xxtofl+3,w,c
  5459  003826  B4D8               	btfsc	status,2,c
  5460  003828  D00D               	goto	l1171
  5461  00382A  D7E7               	goto	l5994
  5462  00382C                     l5998:
  5463  00382C  2A0A               	incf	___xxtofl@exp,f,c
  5464  00382E  0E01               	movlw	1
  5465  003830  260B               	addwf	___xxtofl@arg,f,c
  5466  003832  0E00               	movlw	0
  5467  003834  220C               	addwfc	___xxtofl@arg+1,f,c
  5468  003836  220D               	addwfc	___xxtofl@arg+2,f,c
  5469  003838  220E               	addwfc	___xxtofl@arg+3,f,c
  5470  00383A  90D8               	bcf	status,0,c
  5471  00383C  320E               	rrcf	___xxtofl@arg+3,f,c
  5472  00383E  320D               	rrcf	___xxtofl@arg+2,f,c
  5473  003840  320C               	rrcf	___xxtofl@arg+1,f,c
  5474  003842  320B               	rrcf	___xxtofl@arg,f,c
  5475  003844                     l1171:
  5476  003844  0E00               	movlw	0
  5477  003846  140B               	andwf	___xxtofl@arg,w,c
  5478  003848  6E05               	movwf	??___xxtofl& (0+255),c
  5479  00384A  0E00               	movlw	0
  5480  00384C  140C               	andwf	___xxtofl@arg+1,w,c
  5481  00384E  6E06               	movwf	(??___xxtofl+1)& (0+255),c
  5482  003850  0E00               	movlw	0
  5483  003852  140D               	andwf	___xxtofl@arg+2,w,c
  5484  003854  6E07               	movwf	(??___xxtofl+2)& (0+255),c
  5485  003856  0EFF               	movlw	255
  5486  003858  140E               	andwf	___xxtofl@arg+3,w,c
  5487  00385A  6E08               	movwf	(??___xxtofl+3)& (0+255),c
  5488  00385C  5005               	movf	??___xxtofl,w,c
  5489  00385E  1006               	iorwf	??___xxtofl+1,w,c
  5490  003860  1007               	iorwf	??___xxtofl+2,w,c
  5491  003862  1008               	iorwf	??___xxtofl+3,w,c
  5492  003864  B4D8               	btfsc	status,2,c
  5493  003866  D007               	goto	l6006
  5494  003868  D7E1               	goto	l5998
  5495  00386A                     l6004:
  5496  00386A  060A               	decf	___xxtofl@exp,f,c
  5497  00386C  90D8               	bcf	status,0,c
  5498  00386E  360B               	rlcf	___xxtofl@arg,f,c
  5499  003870  360C               	rlcf	___xxtofl@arg+1,f,c
  5500  003872  360D               	rlcf	___xxtofl@arg+2,f,c
  5501  003874  360E               	rlcf	___xxtofl@arg+3,f,c
  5502  003876                     l6006:
  5503  003876  BE0D               	btfsc	___xxtofl@arg+2,7,c
  5504  003878  D003               	goto	u6560
  5505  00387A  0E02               	movlw	2
  5506  00387C  600A               	cpfslt	___xxtofl@exp,c
  5507  00387E  D7F5               	goto	l6004
  5508  003880                     u6560:
  5509  003880  A00A               	btfss	___xxtofl@exp,0,c
  5510  003882  9E0D               	bcf	___xxtofl@arg+2,7,c
  5511  003884  90D8               	bcf	status,0,c
  5512  003886  320A               	rrcf	___xxtofl@exp,f,c
  5513  003888  C00A  F005         	movff	___xxtofl@exp,??___xxtofl
  5514  00388C  6A06               	clrf	(??___xxtofl+1)& (0+255),c
  5515  00388E  6A07               	clrf	(??___xxtofl+2)& (0+255),c
  5516  003890  6A08               	clrf	(??___xxtofl+3)& (0+255),c
  5517  003892  C005  F008         	movff	??___xxtofl,??___xxtofl+3
  5518  003896  6A07               	clrf	??___xxtofl+2,c
  5519  003898  6A06               	clrf	??___xxtofl+1,c
  5520  00389A  6A05               	clrf	??___xxtofl,c
  5521  00389C  5005               	movf	??___xxtofl,w,c
  5522  00389E  120B               	iorwf	___xxtofl@arg,f,c
  5523  0038A0  5006               	movf	??___xxtofl+1,w,c
  5524  0038A2  120C               	iorwf	___xxtofl@arg+1,f,c
  5525  0038A4  5007               	movf	??___xxtofl+2,w,c
  5526  0038A6  120D               	iorwf	___xxtofl@arg+2,f,c
  5527  0038A8  5008               	movf	??___xxtofl+3,w,c
  5528  0038AA  120E               	iorwf	___xxtofl@arg+3,f,c
  5529  0038AC  5009               	movf	___xxtofl@sign,w,c
  5530  0038AE  A4D8               	btfss	status,2,c
  5531  0038B0  AE04               	btfss	___xxtofl@val+3,7,c
  5532  0038B2  D001               	goto	l6022
  5533  0038B4  8E0E               	bsf	___xxtofl@arg+3,7,c
  5534  0038B6                     l6022:
  5535  0038B6  C00B  F001         	movff	___xxtofl@arg,?___xxtofl
  5536  0038BA  C00C  F002         	movff	___xxtofl@arg+1,?___xxtofl+1
  5537  0038BE  C00D  F003         	movff	___xxtofl@arg+2,?___xxtofl+2
  5538  0038C2  C00E  F004         	movff	___xxtofl@arg+3,?___xxtofl+3
  5539  0038C6  0012               	return		;funcret
  5540  0038C8                     __end_of___xxtofl:
  5541                           	opt callstack 0
  5542                           
  5543 ;; *************** function _opciones *****************
  5544 ;; Defined at:
  5545 ;;		line 550 in file "Proyecto_SSE1_13_05.c"
  5546 ;; Parameters:    Size  Location     Type
  5547 ;;		None
  5548 ;; Auto vars:     Size  Location     Type
  5549 ;;		None
  5550 ;; Return value:  Size  Location     Type
  5551 ;;                  1    wreg      void 
  5552 ;; Registers used:
  5553 ;;		wreg, fsr1l, fsr1h, fsr2l, fsr2h, status,2, status,0, tblptrl, tblptrh, tblptru, prodl, prodh, cstack
  5554 ;; Tracked objects:
  5555 ;;		On entry : 0/0
  5556 ;;		On exit  : 0/0
  5557 ;;		Unchanged: 0/0
  5558 ;; Data sizes:     COMRAM   BANK0   BANK1   BANK2   BANK3   BANK4   BANK5   BANK6   BANK7
  5559 ;;      Params:         0       0       0       0       0       0       0       0       0
  5560 ;;      Locals:         0       0       0       0       0       0       0       0       0
  5561 ;;      Temps:          0       4       0       0       0       0       0       0       0
  5562 ;;      Totals:         0       4       0       0       0       0       0       0       0
  5563 ;;Total ram usage:        4 bytes
  5564 ;; Hardware stack levels used:    1
  5565 ;; Hardware stack levels required when called:   11
  5566 ;; This function calls:
  5567 ;;		_Lcd_Cmd
  5568 ;;		_Lcd_Out
  5569 ;;		_Lcd_Out2
  5570 ;;		_clean_rooms
  5571 ;;		_sprintf
  5572 ;;		_teclado
  5573 ;; This function is called by:
  5574 ;;		_main
  5575 ;; This function uses a non-reentrant model
  5576 ;;
  5577                           
  5578                           	psect	text3
  5579  001A50                     __ptext3:
  5580                           	opt callstack 0
  5581  001A50                     _opciones:
  5582                           	opt callstack 19
  5583                           
  5584                           ;Proyecto_SSE1_13_05.c: 551:     Lcd_Cmd(1);
  5585                           
  5586                           ;incstack = 0
  5587  001A50  0E01               	movlw	1
  5588  001A52  EC28  F01E         	call	_Lcd_Cmd
  5589                           
  5590                           ;Proyecto_SSE1_13_05.c: 552:     _delay((unsigned long)((100)*(12000000/4000.0)));
  5591  001A56  0E02               	movlw	2
  5592  001A58  0100               	movlb	0	; () banked
  5593  001A5A  6FDD               	movwf	(??_opciones+1)& (0+255),b
  5594  001A5C  0E86               	movlw	134
  5595  001A5E  6FDC               	movwf	??_opciones& (0+255),b
  5596  001A60  0E99               	movlw	153
  5597  001A62                     u7927:
  5598  001A62  2EE8               	decfsz	wreg,f,c
  5599  001A64  D7FE               	bra	u7927
  5600  001A66  2FDC               	decfsz	??_opciones& (0+255),f,b
  5601  001A68  D7FC               	bra	u7927
  5602  001A6A  2FDD               	decfsz	(??_opciones+1)& (0+255),f,b
  5603  001A6C  D7FA               	bra	u7927
  5604                           
  5605                           ;Proyecto_SSE1_13_05.c: 553:     Lcd_Out(1,1,"Habitaciones");
  5606  001A6E  0E01               	movlw	1
  5607  001A70  6E04               	movwf	Lcd_Out@x,c
  5608  001A72  0EBF               	movlw	low STR_81
  5609  001A74  6E05               	movwf	Lcd_Out@buffer,c
  5610  001A76  0E7E               	movlw	high STR_81
  5611  001A78  6E06               	movwf	Lcd_Out@buffer+1,c
  5612  001A7A  0E01               	movlw	1
  5613  001A7C  ECDA  F022         	call	_Lcd_Out
  5614                           
  5615                           ;Proyecto_SSE1_13_05.c: 554:     Lcd_Out(2,3,"***LLenas***");
  5616  001A80  0E03               	movlw	3
  5617  001A82  6E04               	movwf	Lcd_Out@x,c
  5618  001A84  0E7E               	movlw	low STR_82
  5619  001A86  6E05               	movwf	Lcd_Out@buffer,c
  5620  001A88  0E7E               	movlw	high STR_82
  5621  001A8A  6E06               	movwf	Lcd_Out@buffer+1,c
  5622  001A8C  0E02               	movlw	2
  5623  001A8E  ECDA  F022         	call	_Lcd_Out
  5624                           
  5625                           ;Proyecto_SSE1_13_05.c: 555:     _delay((unsigned long)((2000)*(12000000/4000.0)));
  5626  001A92  0E1F               	movlw	31
  5627  001A94  0100               	movlb	0	; () banked
  5628  001A96  6FDD               	movwf	(??_opciones+1)& (0+255),b
  5629  001A98  0E71               	movlw	113
  5630  001A9A  6FDC               	movwf	??_opciones& (0+255),b
  5631  001A9C  0E1E               	movlw	30
  5632  001A9E                     u7937:
  5633  001A9E  2EE8               	decfsz	wreg,f,c
  5634  001AA0  D7FE               	bra	u7937
  5635  001AA2  2FDC               	decfsz	??_opciones& (0+255),f,b
  5636  001AA4  D7FC               	bra	u7937
  5637  001AA6  2FDD               	decfsz	(??_opciones+1)& (0+255),f,b
  5638  001AA8  D7FA               	bra	u7937
  5639  001AAA  F000               	nop	
  5640                           
  5641                           ;Proyecto_SSE1_13_05.c: 556:     Lcd_Cmd(1);
  5642  001AAC  0E01               	movlw	1
  5643  001AAE  EC28  F01E         	call	_Lcd_Cmd
  5644                           
  5645                           ;Proyecto_SSE1_13_05.c: 557:     _delay((unsigned long)((100)*(12000000/4000.0)));
  5646  001AB2  0E02               	movlw	2
  5647  001AB4  0100               	movlb	0	; () banked
  5648  001AB6  6FDD               	movwf	(??_opciones+1)& (0+255),b
  5649  001AB8  0E86               	movlw	134
  5650  001ABA  6FDC               	movwf	??_opciones& (0+255),b
  5651  001ABC  0E99               	movlw	153
  5652  001ABE                     u7947:
  5653  001ABE  2EE8               	decfsz	wreg,f,c
  5654  001AC0  D7FE               	bra	u7947
  5655  001AC2  2FDC               	decfsz	??_opciones& (0+255),f,b
  5656  001AC4  D7FC               	bra	u7947
  5657  001AC6  2FDD               	decfsz	(??_opciones+1)& (0+255),f,b
  5658  001AC8  D7FA               	bra	u7947
  5659                           
  5660                           ;Proyecto_SSE1_13_05.c: 558:     Lcd_Out(1,1,"Opciones");
  5661  001ACA  0E01               	movlw	1
  5662  001ACC  6E04               	movwf	Lcd_Out@x,c
  5663  001ACE  0E87               	movlw	low STR_25
  5664  001AD0  6E05               	movwf	Lcd_Out@buffer,c
  5665  001AD2  0E7F               	movlw	high STR_25
  5666  001AD4  6E06               	movwf	Lcd_Out@buffer+1,c
  5667  001AD6  0E01               	movlw	1
  5668  001AD8  ECDA  F022         	call	_Lcd_Out
  5669                           
  5670                           ;Proyecto_SSE1_13_05.c: 559:     Lcd_Out(2,1,"***************");
  5671  001ADC  0E01               	movlw	1
  5672  001ADE  6E04               	movwf	Lcd_Out@x,c
  5673  001AE0  0E90               	movlw	low STR_24
  5674  001AE2  6E05               	movwf	Lcd_Out@buffer,c
  5675  001AE4  0E7D               	movlw	high STR_24
  5676  001AE6  6E06               	movwf	Lcd_Out@buffer+1,c
  5677  001AE8  0E02               	movlw	2
  5678  001AEA  ECDA  F022         	call	_Lcd_Out
  5679                           
  5680                           ;Proyecto_SSE1_13_05.c: 560:     _delay((unsigned long)((2000)*(12000000/4000.0)));
  5681  001AEE  0E1F               	movlw	31
  5682  001AF0  0100               	movlb	0	; () banked
  5683  001AF2  6FDD               	movwf	(??_opciones+1)& (0+255),b
  5684  001AF4  0E71               	movlw	113
  5685  001AF6  6FDC               	movwf	??_opciones& (0+255),b
  5686  001AF8  0E1E               	movlw	30
  5687  001AFA                     u7957:
  5688  001AFA  2EE8               	decfsz	wreg,f,c
  5689  001AFC  D7FE               	bra	u7957
  5690  001AFE  2FDC               	decfsz	??_opciones& (0+255),f,b
  5691  001B00  D7FC               	bra	u7957
  5692  001B02  2FDD               	decfsz	(??_opciones+1)& (0+255),f,b
  5693  001B04  D7FA               	bra	u7957
  5694  001B06  F000               	nop	
  5695                           
  5696                           ;Proyecto_SSE1_13_05.c: 561:     Lcd_Cmd(1);
  5697  001B08  0E01               	movlw	1
  5698  001B0A  EC28  F01E         	call	_Lcd_Cmd
  5699                           
  5700                           ;Proyecto_SSE1_13_05.c: 562:     _delay((unsigned long)((100)*(12000000/4000.0)));
  5701  001B0E  0E02               	movlw	2
  5702  001B10  0100               	movlb	0	; () banked
  5703  001B12  6FDD               	movwf	(??_opciones+1)& (0+255),b
  5704  001B14  0E86               	movlw	134
  5705  001B16  6FDC               	movwf	??_opciones& (0+255),b
  5706  001B18  0E99               	movlw	153
  5707  001B1A                     u7967:
  5708  001B1A  2EE8               	decfsz	wreg,f,c
  5709  001B1C  D7FE               	bra	u7967
  5710  001B1E  2FDC               	decfsz	??_opciones& (0+255),f,b
  5711  001B20  D7FC               	bra	u7967
  5712  001B22  2FDD               	decfsz	(??_opciones+1)& (0+255),f,b
  5713  001B24  D7FA               	bra	u7967
  5714                           
  5715                           ;Proyecto_SSE1_13_05.c: 563:     Lcd_Out(1,1,"A:Admin");
  5716  001B26  0E01               	movlw	1
  5717  001B28  6E04               	movwf	Lcd_Out@x,c
  5718  001B2A  0EA8               	movlw	low STR_27
  5719  001B2C  6E05               	movwf	Lcd_Out@buffer,c
  5720  001B2E  0E7F               	movlw	high STR_27
  5721  001B30  6E06               	movwf	Lcd_Out@buffer+1,c
  5722  001B32  0E01               	movlw	1
  5723  001B34  ECDA  F022         	call	_Lcd_Out
  5724                           
  5725                           ;Proyecto_SSE1_13_05.c: 564:     Lcd_Out(2,1,"B:Esperar");
  5726  001B38  0E01               	movlw	1
  5727  001B3A  6E04               	movwf	Lcd_Out@x,c
  5728  001B3C  0E74               	movlw	low STR_28
  5729  001B3E  6E05               	movwf	Lcd_Out@buffer,c
  5730  001B40  0E7F               	movlw	high STR_28
  5731  001B42  6E06               	movwf	Lcd_Out@buffer+1,c
  5732  001B44  0E02               	movlw	2
  5733  001B46  ECDA  F022         	call	_Lcd_Out
  5734                           
  5735                           ;Proyecto_SSE1_13_05.c: 565:     _delay((unsigned long)((2000)*(12000000/4000.0)));
  5736  001B4A  0E1F               	movlw	31
  5737  001B4C  0100               	movlb	0	; () banked
  5738  001B4E  6FDD               	movwf	(??_opciones+1)& (0+255),b
  5739  001B50  0E71               	movlw	113
  5740  001B52  6FDC               	movwf	??_opciones& (0+255),b
  5741  001B54  0E1E               	movlw	30
  5742  001B56                     u7977:
  5743  001B56  2EE8               	decfsz	wreg,f,c
  5744  001B58  D7FE               	bra	u7977
  5745  001B5A  2FDC               	decfsz	??_opciones& (0+255),f,b
  5746  001B5C  D7FC               	bra	u7977
  5747  001B5E  2FDD               	decfsz	(??_opciones+1)& (0+255),f,b
  5748  001B60  D7FA               	bra	u7977
  5749  001B62  F000               	nop	
  5750                           
  5751                           ;Proyecto_SSE1_13_05.c: 566:     Lcd_Cmd(1);
  5752  001B64  0E01               	movlw	1
  5753  001B66  EC28  F01E         	call	_Lcd_Cmd
  5754                           
  5755                           ;Proyecto_SSE1_13_05.c: 567:     _delay((unsigned long)((100)*(12000000/4000.0)));
  5756  001B6A  0E02               	movlw	2
  5757  001B6C  0100               	movlb	0	; () banked
  5758  001B6E  6FDD               	movwf	(??_opciones+1)& (0+255),b
  5759  001B70  0E86               	movlw	134
  5760  001B72  6FDC               	movwf	??_opciones& (0+255),b
  5761  001B74  0E99               	movlw	153
  5762  001B76                     u7987:
  5763  001B76  2EE8               	decfsz	wreg,f,c
  5764  001B78  D7FE               	bra	u7987
  5765  001B7A  2FDC               	decfsz	??_opciones& (0+255),f,b
  5766  001B7C  D7FC               	bra	u7987
  5767  001B7E  2FDD               	decfsz	(??_opciones+1)& (0+255),f,b
  5768  001B80  D7FA               	bra	u7987
  5769                           
  5770                           ;Proyecto_SSE1_13_05.c: 568:     Lcd_Out(1,1,"C:Retirarse");
  5771  001B82  0E01               	movlw	1
  5772  001B84  6E04               	movwf	Lcd_Out@x,c
  5773  001B86  0EE5               	movlw	low STR_29
  5774  001B88  6E05               	movwf	Lcd_Out@buffer,c
  5775  001B8A  0E7E               	movlw	high STR_29
  5776  001B8C  6E06               	movwf	Lcd_Out@buffer+1,c
  5777  001B8E  0E01               	movlw	1
  5778  001B90  ECDA  F022         	call	_Lcd_Out
  5779                           
  5780                           ;Proyecto_SSE1_13_05.c: 569:     Lcd_Out(2,1,"***************");
  5781  001B94  0E01               	movlw	1
  5782  001B96  6E04               	movwf	Lcd_Out@x,c
  5783  001B98  0E90               	movlw	low STR_24
  5784  001B9A  6E05               	movwf	Lcd_Out@buffer,c
  5785  001B9C  0E7D               	movlw	high STR_24
  5786  001B9E  6E06               	movwf	Lcd_Out@buffer+1,c
  5787  001BA0  0E02               	movlw	2
  5788  001BA2  ECDA  F022         	call	_Lcd_Out
  5789                           
  5790                           ;Proyecto_SSE1_13_05.c: 570:     _delay((unsigned long)((2000)*(12000000/4000.0)));
  5791  001BA6  0E1F               	movlw	31
  5792  001BA8  0100               	movlb	0	; () banked
  5793  001BAA  6FDD               	movwf	(??_opciones+1)& (0+255),b
  5794  001BAC  0E71               	movlw	113
  5795  001BAE  6FDC               	movwf	??_opciones& (0+255),b
  5796  001BB0  0E1E               	movlw	30
  5797  001BB2                     u7997:
  5798  001BB2  2EE8               	decfsz	wreg,f,c
  5799  001BB4  D7FE               	bra	u7997
  5800  001BB6  2FDC               	decfsz	??_opciones& (0+255),f,b
  5801  001BB8  D7FC               	bra	u7997
  5802  001BBA  2FDD               	decfsz	(??_opciones+1)& (0+255),f,b
  5803  001BBC  D7FA               	bra	u7997
  5804  001BBE  F000               	nop	
  5805                           
  5806                           ;Proyecto_SSE1_13_05.c: 571:     Lcd_Cmd(1);
  5807  001BC0  0E01               	movlw	1
  5808  001BC2  EC28  F01E         	call	_Lcd_Cmd
  5809                           
  5810                           ;Proyecto_SSE1_13_05.c: 572:     _delay((unsigned long)((100)*(12000000/4000.0)));
  5811  001BC6  0E02               	movlw	2
  5812  001BC8  0100               	movlb	0	; () banked
  5813  001BCA  6FDD               	movwf	(??_opciones+1)& (0+255),b
  5814  001BCC  0E86               	movlw	134
  5815  001BCE  6FDC               	movwf	??_opciones& (0+255),b
  5816  001BD0  0E99               	movlw	153
  5817  001BD2                     u8007:
  5818  001BD2  2EE8               	decfsz	wreg,f,c
  5819  001BD4  D7FE               	bra	u8007
  5820  001BD6  2FDC               	decfsz	??_opciones& (0+255),f,b
  5821  001BD8  D7FC               	bra	u8007
  5822  001BDA  2FDD               	decfsz	(??_opciones+1)& (0+255),f,b
  5823  001BDC  D7FA               	bra	u8007
  5824                           
  5825                           ;Proyecto_SSE1_13_05.c: 573:     while(valor!='*'){
  5826  001BDE  D19B               	goto	l6356
  5827  001BE0                     l6264:
  5828                           
  5829                           ; BSR set to: 0
  5830                           ;Proyecto_SSE1_13_05.c: 574:         teclado();
  5831  001BE0  ECD1  F020         	call	_teclado	;wreg free
  5832                           
  5833                           ;Proyecto_SSE1_13_05.c: 575:         if((valor=='A')||(valor=='B')||(valor=='C')){
  5834  001BE4  0E41               	movlw	65
  5835  001BE6  0100               	movlb	0	; () banked
  5836  001BE8  19FF               	xorwf	_valor& (0+255),w,b
  5837  001BEA  B4D8               	btfsc	status,2,c
  5838  001BEC  D008               	goto	u6680
  5839                           
  5840                           ; BSR set to: 0
  5841  001BEE  0E42               	movlw	66
  5842  001BF0  19FF               	xorwf	_valor& (0+255),w,b
  5843  001BF2  B4D8               	btfsc	status,2,c
  5844  001BF4  D004               	goto	u6680
  5845                           
  5846                           ; BSR set to: 0
  5847  001BF6  0E43               	movlw	67
  5848  001BF8  19FF               	xorwf	_valor& (0+255),w,b
  5849  001BFA  A4D8               	btfss	status,2,c
  5850  001BFC  D16B               	goto	l6354
  5851  001BFE                     u6680:
  5852                           
  5853                           ; BSR set to: 0
  5854                           ;Proyecto_SSE1_13_05.c: 576:             fill_room=valor;
  5855  001BFE  51FF               	movf	_valor& (0+255),w,b
  5856  001C00  6FE8               	movwf	_fill_room& (0+255),b
  5857  001C02  6BE9               	clrf	(_fill_room+1)& (0+255),b
  5858  001C04  6BEA               	clrf	(_fill_room+2)& (0+255),b
  5859  001C06  6BEB               	clrf	(_fill_room+3)& (0+255),b
  5860                           
  5861                           ; BSR set to: 0
  5862                           ;Proyecto_SSE1_13_05.c: 577:             sprintf(palabra2,"Opcion:%c",fill_room);
  5863  001C08  0E7B               	movlw	low _palabra2
  5864  001C0A  6FA0               	movwf	sprintf@s& (0+255),b
  5865  001C0C  0E01               	movlw	high _palabra2
  5866  001C0E  6FA1               	movwf	(sprintf@s+1)& (0+255),b
  5867  001C10  0E60               	movlw	low STR_31
  5868  001C12  6FA2               	movwf	sprintf@fmt& (0+255),b
  5869  001C14  0E7F               	movlw	high STR_31
  5870  001C16  6FA3               	movwf	(sprintf@fmt+1)& (0+255),b
  5871  001C18  C0E8  F0A4         	movff	_fill_room,?_sprintf+4
  5872  001C1C  C0E9  F0A5         	movff	_fill_room+1,?_sprintf+5
  5873  001C20  C0EA  F0A6         	movff	_fill_room+2,?_sprintf+6
  5874  001C24  C0EB  F0A7         	movff	_fill_room+3,?_sprintf+7
  5875  001C28  EC11  F024         	call	_sprintf	;wreg free
  5876                           
  5877                           ;Proyecto_SSE1_13_05.c: 578:             Lcd_Out2(2,1,palabra2);
  5878  001C2C  0E01               	movlw	1
  5879  001C2E  6E04               	movwf	Lcd_Out2@x,c
  5880  001C30  0E7B               	movlw	low _palabra2
  5881  001C32  6E05               	movwf	Lcd_Out2@buffer,c
  5882  001C34  0E01               	movlw	high _palabra2
  5883  001C36  6E06               	movwf	Lcd_Out2@buffer+1,c
  5884  001C38  0E02               	movlw	2
  5885  001C3A  EC4D  F023         	call	_Lcd_Out2
  5886  001C3E  D14A               	goto	l6354
  5887  001C40                     l6278:
  5888                           
  5889                           ; BSR set to: 0
  5890                           ;Proyecto_SSE1_13_05.c: 582:                 valor=0;
  5891  001C40  0E00               	movlw	0
  5892  001C42  6FFF               	movwf	_valor& (0+255),b
  5893                           
  5894                           ; BSR set to: 0
  5895                           ;Proyecto_SSE1_13_05.c: 583:                 Lcd_Cmd(1);
  5896  001C44  0E01               	movlw	1
  5897  001C46  EC28  F01E         	call	_Lcd_Cmd
  5898                           
  5899                           ;Proyecto_SSE1_13_05.c: 584:                 _delay((unsigned long)((100)*(12000000/4000
      +                          .0)));
  5900  001C4A  0E02               	movlw	2
  5901  001C4C  0100               	movlb	0	; () banked
  5902  001C4E  6FDD               	movwf	(??_opciones+1)& (0+255),b
  5903  001C50  0E86               	movlw	134
  5904  001C52  6FDC               	movwf	??_opciones& (0+255),b
  5905  001C54  0E99               	movlw	153
  5906  001C56                     u8017:
  5907  001C56  2EE8               	decfsz	wreg,f,c
  5908  001C58  D7FE               	bra	u8017
  5909  001C5A  2FDC               	decfsz	??_opciones& (0+255),f,b
  5910  001C5C  D7FC               	bra	u8017
  5911  001C5E  2FDD               	decfsz	(??_opciones+1)& (0+255),f,b
  5912  001C60  D7FA               	bra	u8017
  5913                           
  5914                           ;Proyecto_SSE1_13_05.c: 585:                 Lcd_Out(1,1,"Permitame ir");
  5915  001C62  0E01               	movlw	1
  5916  001C64  6E04               	movwf	Lcd_Out@x,c
  5917  001C66  0EA5               	movlw	low STR_32
  5918  001C68  6E05               	movwf	Lcd_Out@buffer,c
  5919  001C6A  0E7E               	movlw	high STR_32
  5920  001C6C  6E06               	movwf	Lcd_Out@buffer+1,c
  5921  001C6E  0E01               	movlw	1
  5922  001C70  ECDA  F022         	call	_Lcd_Out
  5923                           
  5924                           ;Proyecto_SSE1_13_05.c: 586:                 Lcd_Out(2,1,"con el ADMIN");
  5925  001C74  0E01               	movlw	1
  5926  001C76  6E04               	movwf	Lcd_Out@x,c
  5927  001C78  0E8B               	movlw	low STR_33
  5928  001C7A  6E05               	movwf	Lcd_Out@buffer,c
  5929  001C7C  0E7E               	movlw	high STR_33
  5930  001C7E  6E06               	movwf	Lcd_Out@buffer+1,c
  5931  001C80  0E02               	movlw	2
  5932  001C82  ECDA  F022         	call	_Lcd_Out
  5933                           
  5934                           ;Proyecto_SSE1_13_05.c: 587:                 _delay((unsigned long)((1500)*(12000000/400
      +                          0.0)));
  5935  001C86  0E17               	movlw	23
  5936  001C88  0100               	movlb	0	; () banked
  5937  001C8A  6FDD               	movwf	(??_opciones+1)& (0+255),b
  5938  001C8C  0ED5               	movlw	213
  5939  001C8E  6FDC               	movwf	??_opciones& (0+255),b
  5940  001C90  0E16               	movlw	22
  5941  001C92                     u8027:
  5942  001C92  2EE8               	decfsz	wreg,f,c
  5943  001C94  D7FE               	bra	u8027
  5944  001C96  2FDC               	decfsz	??_opciones& (0+255),f,b
  5945  001C98  D7FC               	bra	u8027
  5946  001C9A  2FDD               	decfsz	(??_opciones+1)& (0+255),f,b
  5947  001C9C  D7FA               	bra	u8027
  5948  001C9E  F000               	nop	
  5949                           
  5950                           ;Proyecto_SSE1_13_05.c: 588:                 Lcd_Cmd(1);
  5951  001CA0  0E01               	movlw	1
  5952  001CA2  EC28  F01E         	call	_Lcd_Cmd
  5953                           
  5954                           ;Proyecto_SSE1_13_05.c: 589:                 _delay((unsigned long)((100)*(12000000/4000
      +                          .0)));
  5955  001CA6  0E02               	movlw	2
  5956  001CA8  0100               	movlb	0	; () banked
  5957  001CAA  6FDD               	movwf	(??_opciones+1)& (0+255),b
  5958  001CAC  0E86               	movlw	134
  5959  001CAE  6FDC               	movwf	??_opciones& (0+255),b
  5960  001CB0  0E99               	movlw	153
  5961  001CB2                     u8037:
  5962  001CB2  2EE8               	decfsz	wreg,f,c
  5963  001CB4  D7FE               	bra	u8037
  5964  001CB6  2FDC               	decfsz	??_opciones& (0+255),f,b
  5965  001CB8  D7FC               	bra	u8037
  5966  001CBA  2FDD               	decfsz	(??_opciones+1)& (0+255),f,b
  5967  001CBC  D7FA               	bra	u8037
  5968                           
  5969                           ;Proyecto_SSE1_13_05.c: 590:                 Lcd_Out(1,1,"Checaremos las");
  5970  001CBE  0E01               	movlw	1
  5971  001CC0  6E04               	movwf	Lcd_Out@x,c
  5972  001CC2  0E29               	movlw	low STR_34
  5973  001CC4  6E05               	movwf	Lcd_Out@buffer,c
  5974  001CC6  0E7E               	movlw	high STR_34
  5975  001CC8  6E06               	movwf	Lcd_Out@buffer+1,c
  5976  001CCA  0E01               	movlw	1
  5977  001CCC  ECDA  F022         	call	_Lcd_Out
  5978                           
  5979                           ;Proyecto_SSE1_13_05.c: 591:                 Lcd_Out(2,1,"habitaciones");
  5980  001CD0  0E01               	movlw	1
  5981  001CD2  6E04               	movwf	Lcd_Out@x,c
  5982  001CD4  0ECC               	movlw	low STR_35
  5983  001CD6  6E05               	movwf	Lcd_Out@buffer,c
  5984  001CD8  0E7E               	movlw	high STR_35
  5985  001CDA  6E06               	movwf	Lcd_Out@buffer+1,c
  5986  001CDC  0E02               	movlw	2
  5987  001CDE  ECDA  F022         	call	_Lcd_Out
  5988                           
  5989                           ;Proyecto_SSE1_13_05.c: 592:                 _delay((unsigned long)((1500)*(12000000/400
      +                          0.0)));
  5990  001CE2  0E17               	movlw	23
  5991  001CE4  0100               	movlb	0	; () banked
  5992  001CE6  6FDD               	movwf	(??_opciones+1)& (0+255),b
  5993  001CE8  0ED5               	movlw	213
  5994  001CEA  6FDC               	movwf	??_opciones& (0+255),b
  5995  001CEC  0E16               	movlw	22
  5996  001CEE                     u8047:
  5997  001CEE  2EE8               	decfsz	wreg,f,c
  5998  001CF0  D7FE               	bra	u8047
  5999  001CF2  2FDC               	decfsz	??_opciones& (0+255),f,b
  6000  001CF4  D7FC               	bra	u8047
  6001  001CF6  2FDD               	decfsz	(??_opciones+1)& (0+255),f,b
  6002  001CF8  D7FA               	bra	u8047
  6003  001CFA  F000               	nop	
  6004                           
  6005                           ;Proyecto_SSE1_13_05.c: 593:                 Lcd_Cmd(1);
  6006  001CFC  0E01               	movlw	1
  6007  001CFE  EC28  F01E         	call	_Lcd_Cmd
  6008                           
  6009                           ;Proyecto_SSE1_13_05.c: 594:                 _delay((unsigned long)((100)*(12000000/4000
      +                          .0)));
  6010  001D02  0E02               	movlw	2
  6011  001D04  0100               	movlb	0	; () banked
  6012  001D06  6FDD               	movwf	(??_opciones+1)& (0+255),b
  6013  001D08  0E86               	movlw	134
  6014  001D0A  6FDC               	movwf	??_opciones& (0+255),b
  6015  001D0C  0E99               	movlw	153
  6016  001D0E                     u8057:
  6017  001D0E  2EE8               	decfsz	wreg,f,c
  6018  001D10  D7FE               	bra	u8057
  6019  001D12  2FDC               	decfsz	??_opciones& (0+255),f,b
  6020  001D14  D7FC               	bra	u8057
  6021  001D16  2FDD               	decfsz	(??_opciones+1)& (0+255),f,b
  6022  001D18  D7FA               	bra	u8057
  6023                           
  6024                           ;Proyecto_SSE1_13_05.c: 595:                 Lcd_Out(1,1,"***************");
  6025  001D1A  0E01               	movlw	1
  6026  001D1C  6E04               	movwf	Lcd_Out@x,c
  6027  001D1E  0E90               	movlw	low STR_24
  6028  001D20  6E05               	movwf	Lcd_Out@buffer,c
  6029  001D22  0E7D               	movlw	high STR_24
  6030  001D24  6E06               	movwf	Lcd_Out@buffer+1,c
  6031  001D26  0E01               	movlw	1
  6032  001D28  ECDA  F022         	call	_Lcd_Out
  6033                           
  6034                           ;Proyecto_SSE1_13_05.c: 596:                 Lcd_Out(2,1,"***************");
  6035  001D2C  0E01               	movlw	1
  6036  001D2E  6E04               	movwf	Lcd_Out@x,c
  6037  001D30  0E90               	movlw	low STR_24
  6038  001D32  6E05               	movwf	Lcd_Out@buffer,c
  6039  001D34  0E7D               	movlw	high STR_24
  6040  001D36  6E06               	movwf	Lcd_Out@buffer+1,c
  6041  001D38  0E02               	movlw	2
  6042  001D3A  ECDA  F022         	call	_Lcd_Out
  6043                           
  6044                           ;Proyecto_SSE1_13_05.c: 597:                 _delay((unsigned long)((1500)*(12000000/400
      +                          0.0)));
  6045  001D3E  0E17               	movlw	23
  6046  001D40  0100               	movlb	0	; () banked
  6047  001D42  6FDD               	movwf	(??_opciones+1)& (0+255),b
  6048  001D44  0ED5               	movlw	213
  6049  001D46  6FDC               	movwf	??_opciones& (0+255),b
  6050  001D48  0E16               	movlw	22
  6051  001D4A                     u8067:
  6052  001D4A  2EE8               	decfsz	wreg,f,c
  6053  001D4C  D7FE               	bra	u8067
  6054  001D4E  2FDC               	decfsz	??_opciones& (0+255),f,b
  6055  001D50  D7FC               	bra	u8067
  6056  001D52  2FDD               	decfsz	(??_opciones+1)& (0+255),f,b
  6057  001D54  D7FA               	bra	u8067
  6058  001D56  F000               	nop	
  6059                           
  6060                           ;Proyecto_SSE1_13_05.c: 598:                 Lcd_Cmd(1);
  6061  001D58  0E01               	movlw	1
  6062  001D5A  EC28  F01E         	call	_Lcd_Cmd
  6063                           
  6064                           ;Proyecto_SSE1_13_05.c: 599:                 _delay((unsigned long)((100)*(12000000/4000
      +                          .0)));
  6065  001D5E  0E02               	movlw	2
  6066  001D60  0100               	movlb	0	; () banked
  6067  001D62  6FDD               	movwf	(??_opciones+1)& (0+255),b
  6068  001D64  0E86               	movlw	134
  6069  001D66  6FDC               	movwf	??_opciones& (0+255),b
  6070  001D68  0E99               	movlw	153
  6071  001D6A                     u8077:
  6072  001D6A  2EE8               	decfsz	wreg,f,c
  6073  001D6C  D7FE               	bra	u8077
  6074  001D6E  2FDC               	decfsz	??_opciones& (0+255),f,b
  6075  001D70  D7FC               	bra	u8077
  6076  001D72  2FDD               	decfsz	(??_opciones+1)& (0+255),f,b
  6077  001D74  D7FA               	bra	u8077
  6078                           
  6079                           ;Proyecto_SSE1_13_05.c: 600:                 clean_rooms();
  6080  001D76  EC77  F01A         	call	_clean_rooms	;wreg free
  6081                           
  6082                           ;Proyecto_SSE1_13_05.c: 601:                 _delay((unsigned long)((1000)*(12000000/400
      +                          0.0)));
  6083  001D7A  0E10               	movlw	16
  6084  001D7C  0100               	movlb	0	; () banked
  6085  001D7E  6FDD               	movwf	(??_opciones+1)& (0+255),b
  6086  001D80  0E39               	movlw	57
  6087  001D82  6FDC               	movwf	??_opciones& (0+255),b
  6088  001D84  0E0D               	movlw	13
  6089  001D86                     u8087:
  6090  001D86  2EE8               	decfsz	wreg,f,c
  6091  001D88  D7FE               	bra	u8087
  6092  001D8A  2FDC               	decfsz	??_opciones& (0+255),f,b
  6093  001D8C  D7FC               	bra	u8087
  6094  001D8E  2FDD               	decfsz	(??_opciones+1)& (0+255),f,b
  6095  001D90  D7FA               	bra	u8087
  6096  001D92  D000               	nop2	
  6097                           
  6098                           ;Proyecto_SSE1_13_05.c: 602:                 break;
  6099  001D94  D0C0               	goto	l6356
  6100  001D96                     l6318:
  6101                           
  6102                           ; BSR set to: 0
  6103                           ;Proyecto_SSE1_13_05.c: 605:                 Lcd_Cmd(1);
  6104  001D96  0E01               	movlw	1
  6105  001D98  EC28  F01E         	call	_Lcd_Cmd
  6106                           
  6107                           ;Proyecto_SSE1_13_05.c: 606:                 _delay((unsigned long)((100)*(12000000/4000
      +                          .0)));
  6108  001D9C  0E02               	movlw	2
  6109  001D9E  0100               	movlb	0	; () banked
  6110  001DA0  6FDD               	movwf	(??_opciones+1)& (0+255),b
  6111  001DA2  0E86               	movlw	134
  6112  001DA4  6FDC               	movwf	??_opciones& (0+255),b
  6113  001DA6  0E99               	movlw	153
  6114  001DA8                     u8097:
  6115  001DA8  2EE8               	decfsz	wreg,f,c
  6116  001DAA  D7FE               	bra	u8097
  6117  001DAC  2FDC               	decfsz	??_opciones& (0+255),f,b
  6118  001DAE  D7FC               	bra	u8097
  6119  001DB0  2FDD               	decfsz	(??_opciones+1)& (0+255),f,b
  6120  001DB2  D7FA               	bra	u8097
  6121                           
  6122                           ;Proyecto_SSE1_13_05.c: 607:                 Lcd_Out(1,1,"PASE A LA");
  6123  001DB4  0E01               	movlw	1
  6124  001DB6  6E04               	movwf	Lcd_Out@x,c
  6125  001DB8  0E56               	movlw	low STR_38
  6126  001DBA  6E05               	movwf	Lcd_Out@buffer,c
  6127  001DBC  0E7F               	movlw	high STR_38
  6128  001DBE  6E06               	movwf	Lcd_Out@buffer+1,c
  6129  001DC0  0E01               	movlw	1
  6130  001DC2  ECDA  F022         	call	_Lcd_Out
  6131                           
  6132                           ;Proyecto_SSE1_13_05.c: 608:                 Lcd_Out(2,1,"SALA DE ESPERA");
  6133  001DC6  0E01               	movlw	1
  6134  001DC8  6E04               	movwf	Lcd_Out@x,c
  6135  001DCA  0EED               	movlw	low STR_39
  6136  001DCC  6E05               	movwf	Lcd_Out@buffer,c
  6137  001DCE  0E7D               	movlw	high STR_39
  6138  001DD0  6E06               	movwf	Lcd_Out@buffer+1,c
  6139  001DD2  0E02               	movlw	2
  6140  001DD4  ECDA  F022         	call	_Lcd_Out
  6141                           
  6142                           ;Proyecto_SSE1_13_05.c: 609:                 _delay((unsigned long)((1500)*(12000000/400
      +                          0.0)));
  6143  001DD8  0E17               	movlw	23
  6144  001DDA  0100               	movlb	0	; () banked
  6145  001DDC  6FDD               	movwf	(??_opciones+1)& (0+255),b
  6146  001DDE  0ED5               	movlw	213
  6147  001DE0  6FDC               	movwf	??_opciones& (0+255),b
  6148  001DE2  0E16               	movlw	22
  6149  001DE4                     u8107:
  6150  001DE4  2EE8               	decfsz	wreg,f,c
  6151  001DE6  D7FE               	bra	u8107
  6152  001DE8  2FDC               	decfsz	??_opciones& (0+255),f,b
  6153  001DEA  D7FC               	bra	u8107
  6154  001DEC  2FDD               	decfsz	(??_opciones+1)& (0+255),f,b
  6155  001DEE  D7FA               	bra	u8107
  6156  001DF0  F000               	nop	
  6157                           
  6158                           ;Proyecto_SSE1_13_05.c: 610:                 Lcd_Cmd(1);
  6159  001DF2  0E01               	movlw	1
  6160  001DF4  EC28  F01E         	call	_Lcd_Cmd
  6161                           
  6162                           ;Proyecto_SSE1_13_05.c: 611:                 _delay((unsigned long)((100)*(12000000/4000
      +                          .0)));
  6163  001DF8  0E02               	movlw	2
  6164  001DFA  0100               	movlb	0	; () banked
  6165  001DFC  6FDD               	movwf	(??_opciones+1)& (0+255),b
  6166  001DFE  0E86               	movlw	134
  6167  001E00  6FDC               	movwf	??_opciones& (0+255),b
  6168  001E02  0E99               	movlw	153
  6169  001E04                     u8117:
  6170  001E04  2EE8               	decfsz	wreg,f,c
  6171  001E06  D7FE               	bra	u8117
  6172  001E08  2FDC               	decfsz	??_opciones& (0+255),f,b
  6173  001E0A  D7FC               	bra	u8117
  6174  001E0C  2FDD               	decfsz	(??_opciones+1)& (0+255),f,b
  6175  001E0E  D7FA               	bra	u8117
  6176                           
  6177                           ;Proyecto_SSE1_13_05.c: 612:                 Lcd_Out(1,1,"***************");
  6178  001E10  0E01               	movlw	1
  6179  001E12  6E04               	movwf	Lcd_Out@x,c
  6180  001E14  0E90               	movlw	low STR_24
  6181  001E16  6E05               	movwf	Lcd_Out@buffer,c
  6182  001E18  0E7D               	movlw	high STR_24
  6183  001E1A  6E06               	movwf	Lcd_Out@buffer+1,c
  6184  001E1C  0E01               	movlw	1
  6185  001E1E  ECDA  F022         	call	_Lcd_Out
  6186                           
  6187                           ;Proyecto_SSE1_13_05.c: 613:                 Lcd_Out(2,1,"***************");
  6188  001E22  0E01               	movlw	1
  6189  001E24  6E04               	movwf	Lcd_Out@x,c
  6190  001E26  0E90               	movlw	low STR_24
  6191  001E28  6E05               	movwf	Lcd_Out@buffer,c
  6192  001E2A  0E7D               	movlw	high STR_24
  6193  001E2C  6E06               	movwf	Lcd_Out@buffer+1,c
  6194  001E2E  0E02               	movlw	2
  6195  001E30  ECDA  F022         	call	_Lcd_Out
  6196                           
  6197                           ;Proyecto_SSE1_13_05.c: 614:                 _delay((unsigned long)((1500)*(12000000/400
      +                          0.0)));
  6198  001E34  0E17               	movlw	23
  6199  001E36  0100               	movlb	0	; () banked
  6200  001E38  6FDD               	movwf	(??_opciones+1)& (0+255),b
  6201  001E3A  0ED5               	movlw	213
  6202  001E3C  6FDC               	movwf	??_opciones& (0+255),b
  6203  001E3E  0E16               	movlw	22
  6204  001E40                     u8127:
  6205  001E40  2EE8               	decfsz	wreg,f,c
  6206  001E42  D7FE               	bra	u8127
  6207  001E44  2FDC               	decfsz	??_opciones& (0+255),f,b
  6208  001E46  D7FC               	bra	u8127
  6209  001E48  2FDD               	decfsz	(??_opciones+1)& (0+255),f,b
  6210  001E4A  D7FA               	bra	u8127
  6211  001E4C  F000               	nop	
  6212                           
  6213                           ;Proyecto_SSE1_13_05.c: 615:                 Lcd_Cmd(1);
  6214  001E4E  0E01               	movlw	1
  6215  001E50  EC28  F01E         	call	_Lcd_Cmd
  6216                           
  6217                           ;Proyecto_SSE1_13_05.c: 616:                 _delay((unsigned long)((100)*(12000000/4000
      +                          .0)));
  6218  001E54  0E02               	movlw	2
  6219  001E56  0100               	movlb	0	; () banked
  6220  001E58  6FDD               	movwf	(??_opciones+1)& (0+255),b
  6221  001E5A  0E86               	movlw	134
  6222  001E5C  6FDC               	movwf	??_opciones& (0+255),b
  6223  001E5E  0E99               	movlw	153
  6224  001E60                     u8137:
  6225  001E60  2EE8               	decfsz	wreg,f,c
  6226  001E62  D7FE               	bra	u8137
  6227  001E64  2FDC               	decfsz	??_opciones& (0+255),f,b
  6228  001E66  D7FC               	bra	u8137
  6229  001E68  2FDD               	decfsz	(??_opciones+1)& (0+255),f,b
  6230  001E6A  D7FA               	bra	u8137
  6231                           
  6232                           ;Proyecto_SSE1_13_05.c: 617:                 count=0;
  6233  001E6C  0E00               	movlw	0
  6234  001E6E  0100               	movlb	0	; () banked
  6235  001E70  6FFB               	movwf	(_count+1)& (0+255),b
  6236  001E72  0E00               	movlw	0
  6237  001E74  6FFA               	movwf	_count& (0+255),b
  6238                           
  6239                           ;Proyecto_SSE1_13_05.c: 618:                 while(count!=100){
  6240  001E76  D016               	goto	l288
  6241  001E78                     l289:
  6242                           
  6243                           ; BSR set to: 0
  6244                           ;Proyecto_SSE1_13_05.c: 619:                     LATCbits.LATC0=1;
  6245  001E78  808B               	bsf	3979,0,c	;volatile
  6246                           
  6247                           ; BSR set to: 0
  6248                           ;Proyecto_SSE1_13_05.c: 620:                     _delay((unsigned long)((1)*(12000000/40
      +                          00.0)));
  6249  001E7A  0E04               	movlw	4
  6250  001E7C  0100               	movlb	0	; () banked
  6251  001E7E  6FDC               	movwf	??_opciones& (0+255),b
  6252  001E80  0EE4               	movlw	228
  6253  001E82                     u8147:
  6254  001E82  2EE8               	decfsz	wreg,f,c
  6255  001E84  D7FE               	bra	u8147
  6256  001E86  2FDC               	decfsz	??_opciones& (0+255),f,b
  6257  001E88  D7FC               	bra	u8147
  6258  001E8A  F000               	nop	
  6259                           
  6260                           ;Proyecto_SSE1_13_05.c: 621:                     LATCbits.LATC0=0;
  6261  001E8C  908B               	bcf	3979,0,c	;volatile
  6262                           
  6263                           ;Proyecto_SSE1_13_05.c: 622:                     _delay((unsigned long)((19)*(12000000/4
      +                          000.0)));
  6264  001E8E  0E4B               	movlw	75
  6265  001E90  0100               	movlb	0	; () banked
  6266  001E92  6FDC               	movwf	??_opciones& (0+255),b
  6267  001E94  0E05               	movlw	5
  6268  001E96                     u8157:
  6269  001E96  2EE8               	decfsz	wreg,f,c
  6270  001E98  D7FE               	bra	u8157
  6271  001E9A  2FDC               	decfsz	??_opciones& (0+255),f,b
  6272  001E9C  D7FC               	bra	u8157
  6273                           
  6274                           ;Proyecto_SSE1_13_05.c: 623:                     count++;
  6275  001E9E  0100               	movlb	0	; () banked
  6276  001EA0  4BFA               	infsnz	_count& (0+255),f,b
  6277  001EA2  2BFB               	incf	(_count+1)& (0+255),f,b
  6278  001EA4                     l288:
  6279                           
  6280                           ; BSR set to: 0
  6281                           ;Proyecto_SSE1_13_05.c: 618:                 while(count!=100){
  6282  001EA4  0E64               	movlw	100
  6283  001EA6  19FA               	xorwf	_count& (0+255),w,b
  6284  001EA8  11FB               	iorwf	(_count+1)& (0+255),w,b
  6285  001EAA  A4D8               	btfss	status,2,c
  6286  001EAC  D7E5               	goto	l289
  6287                           
  6288                           ; BSR set to: 0
  6289                           ;Proyecto_SSE1_13_05.c: 625:                 _delay((unsigned long)((5000)*(12000000/400
      +                          0.0)));
  6290  001EAE  0E4D               	movlw	77
  6291  001EB0  0100               	movlb	0	; () banked
  6292  001EB2  6FDD               	movwf	(??_opciones+1)& (0+255),b
  6293  001EB4  0E19               	movlw	25
  6294  001EB6  6FDC               	movwf	??_opciones& (0+255),b
  6295  001EB8  0E4F               	movlw	79
  6296  001EBA                     u8167:
  6297  001EBA  2EE8               	decfsz	wreg,f,c
  6298  001EBC  D7FE               	bra	u8167
  6299  001EBE  2FDC               	decfsz	??_opciones& (0+255),f,b
  6300  001EC0  D7FC               	bra	u8167
  6301  001EC2  2FDD               	decfsz	(??_opciones+1)& (0+255),f,b
  6302  001EC4  D7FA               	bra	u8167
  6303  001EC6  D000               	nop2	
  6304                           
  6305                           ;Proyecto_SSE1_13_05.c: 626:                 ptr_valor=0;
  6306  001EC8  0E00               	movlw	0
  6307  001ECA  0100               	movlb	0	; () banked
  6308  001ECC  D001               	goto	L2
  6309  001ECE                     l6350:
  6310                           
  6311                           ; BSR set to: 0
  6312                           ;Proyecto_SSE1_13_05.c: 630:                 ptr_valor='A';
  6313  001ECE  0E41               	movlw	65
  6314  001ED0                     L2:
  6315  001ED0  6FFE               	movwf	_ptr_valor& (0+255),b
  6316                           
  6317                           ;Proyecto_SSE1_13_05.c: 631:                 break;
  6318  001ED2  D021               	goto	l6356
  6319  001ED4                     l6354:
  6320  001ED4  C0E8  F0DC         	movff	_fill_room,??_opciones
  6321  001ED8  C0E9  F0DD         	movff	_fill_room+1,??_opciones+1
  6322  001EDC  C0EA  F0DE         	movff	_fill_room+2,??_opciones+2
  6323  001EE0  C0EB  F0DF         	movff	_fill_room+3,??_opciones+3
  6324                           
  6325                           ; Switch on 2 bytes has been partitioned into a top level switch of size 1, and 2 sub-sw
      +                          itches
  6326                           ; Switch size 1, requested type "simple"
  6327                           ; Number of cases is 1, Range of values is 0 to 0
  6328                           ; switch strategies available:
  6329                           ; Name         Instructions Cycles
  6330                           ; simple_byte            4     3 (average)
  6331                           ;	Chosen strategy is simple_byte
  6332  001EE4  0100               	movlb	0	; () banked
  6333  001EE6  51DF               	movf	(??_opciones+3)& (0+255),w,b
  6334  001EE8  0A00               	xorlw	0	; case 0
  6335  001EEA  B4D8               	btfsc	status,2,c
  6336  001EEC  D010               	goto	l7276
  6337  001EEE  D013               	goto	l6356
  6338  001EF0                     l7274:
  6339                           
  6340                           ; BSR set to: 0
  6341                           ; Switch on 2 bytes has been partitioned into a top level switch of size 1, and 1 sub-sw
      +                          itches
  6342                           ; Switch size 1, requested type "simple"
  6343                           ; Number of cases is 1, Range of values is 0 to 0
  6344                           ; switch strategies available:
  6345                           ; Name         Instructions Cycles
  6346                           ; simple_byte            4     3 (average)
  6347                           ;	Chosen strategy is simple_byte
  6348  001EF0  51DD               	movf	(??_opciones+1)& (0+255),w,b
  6349  001EF2  0A00               	xorlw	0	; case 0
  6350  001EF4  A4D8               	btfss	status,2,c
  6351  001EF6  D00F               	goto	l6356
  6352                           
  6353                           ; BSR set to: 0
  6354                           ; Switch size 1, requested type "simple"
  6355                           ; Number of cases is 3, Range of values is 65 to 67
  6356                           ; switch strategies available:
  6357                           ; Name         Instructions Cycles
  6358                           ; simple_byte           10     6 (average)
  6359                           ;	Chosen strategy is simple_byte
  6360  001EF8  51DC               	movf	??_opciones& (0+255),w,b
  6361  001EFA  0A41               	xorlw	65	; case 65
  6362  001EFC  B4D8               	btfsc	status,2,c
  6363  001EFE  D6A0               	goto	l6278
  6364  001F00  0A03               	xorlw	3	; case 66
  6365  001F02  B4D8               	btfsc	status,2,c
  6366  001F04  D748               	goto	l6318
  6367  001F06  0A01               	xorlw	1	; case 67
  6368  001F08  B4D8               	btfsc	status,2,c
  6369  001F0A  D7E1               	goto	l6350
  6370  001F0C  D004               	goto	l6356
  6371  001F0E                     l7276:
  6372                           
  6373                           ; BSR set to: 0
  6374                           ; Switch size 1, requested type "simple"
  6375                           ; Number of cases is 1, Range of values is 0 to 0
  6376                           ; switch strategies available:
  6377                           ; Name         Instructions Cycles
  6378                           ; simple_byte            4     3 (average)
  6379                           ;	Chosen strategy is simple_byte
  6380  001F0E  51DE               	movf	(??_opciones+2)& (0+255),w,b
  6381  001F10  0A00               	xorlw	0	; case 0
  6382  001F12  B4D8               	btfsc	status,2,c
  6383  001F14  D7ED               	goto	l7274
  6384  001F16                     l6356:
  6385                           
  6386                           ;Proyecto_SSE1_13_05.c: 573:     while(valor!='*'){
  6387  001F16  0E2A               	movlw	42
  6388  001F18  0100               	movlb	0	; () banked
  6389  001F1A  19FF               	xorwf	_valor& (0+255),w,b
  6390  001F1C  B4D8               	btfsc	status,2,c
  6391  001F1E  0012               	return	
  6392  001F20  D65F               	goto	l6264
  6393  001F22                     __end_of_opciones:
  6394                           	opt callstack 0
  6395                           
  6396 ;; *************** function _clean_rooms *****************
  6397 ;; Defined at:
  6398 ;;		line 483 in file "Proyecto_SSE1_13_05.c"
  6399 ;; Parameters:    Size  Location     Type
  6400 ;;		None
  6401 ;; Auto vars:     Size  Location     Type
  6402 ;;  uso_local2     17  101[BANK0 ] unsigned char [17]
  6403 ;;  uso_local      17   84[BANK0 ] unsigned char [17]
  6404 ;;  cuarto_clean    2  120[BANK0 ] int 
  6405 ;;  tipo_clean      2    0        int 
  6406 ;;  cuarto          1  123[BANK0 ] unsigned char 
  6407 ;;  tipo            1  122[BANK0 ] unsigned char 
  6408 ;; Return value:  Size  Location     Type
  6409 ;;                  1    wreg      void 
  6410 ;; Registers used:
  6411 ;;		wreg, fsr1l, fsr1h, fsr2l, fsr2h, status,2, status,0, tblptrl, tblptrh, tblptru, prodl, prodh, cstack
  6412 ;; Tracked objects:
  6413 ;;		On entry : 0/0
  6414 ;;		On exit  : 0/0
  6415 ;;		Unchanged: 0/0
  6416 ;; Data sizes:     COMRAM   BANK0   BANK1   BANK2   BANK3   BANK4   BANK5   BANK6   BANK7
  6417 ;;      Params:         0       0       0       0       0       0       0       0       0
  6418 ;;      Locals:         0      40       0       0       0       0       0       0       0
  6419 ;;      Temps:          0       2       0       0       0       0       0       0       0
  6420 ;;      Totals:         0      42       0       0       0       0       0       0       0
  6421 ;;Total ram usage:       42 bytes
  6422 ;; Hardware stack levels used:    1
  6423 ;; Hardware stack levels required when called:   10
  6424 ;; This function calls:
  6425 ;;		_Lcd_Cmd
  6426 ;;		_Lcd_Out
  6427 ;;		_Lcd_Out2
  6428 ;;		_sprintf
  6429 ;;		_teclado
  6430 ;; This function is called by:
  6431 ;;		_main
  6432 ;;		_opciones
  6433 ;; This function uses a non-reentrant model
  6434 ;;
  6435                           
  6436                           	psect	text4
  6437  0034EE                     __ptext4:
  6438                           	opt callstack 0
  6439  0034EE                     _clean_rooms:
  6440                           	opt callstack 19
  6441                           
  6442                           ;Proyecto_SSE1_13_05.c: 484:     valor=0;
  6443                           
  6444                           ; BSR set to: 0
  6445                           ;incstack = 0
  6446  0034EE  0E00               	movlw	0
  6447  0034F0  0100               	movlb	0	; () banked
  6448  0034F2  6FFF               	movwf	_valor& (0+255),b
  6449                           
  6450                           ;Proyecto_SSE1_13_05.c: 485:     unsigned char tipo=0,cuarto=0;
  6451  0034F4  0E00               	movlw	0
  6452  0034F6  6FDA               	movwf	clean_rooms@tipo& (0+255),b
  6453  0034F8  0E00               	movlw	0
  6454  0034FA  6FDB               	movwf	clean_rooms@cuarto& (0+255),b
  6455  0034FC  0E00               	movlw	0
  6456  0034FE  6FD9               	movwf	(clean_rooms@cuarto_clean+1)& (0+255),b
  6457  003500  0E00               	movlw	0
  6458  003502  6FD8               	movwf	clean_rooms@cuarto_clean& (0+255),b
  6459                           
  6460                           ; BSR set to: 0
  6461                           ;Proyecto_SSE1_13_05.c: 488:     Lcd_Out(1,1,"Seleccione");
  6462  003504  0E01               	movlw	1
  6463  003506  6E04               	movwf	Lcd_Out@x,c
  6464  003508  0E2B               	movlw	low STR_78
  6465  00350A  6E05               	movwf	Lcd_Out@buffer,c
  6466  00350C  0E7F               	movlw	high STR_78
  6467  00350E  6E06               	movwf	Lcd_Out@buffer+1,c
  6468  003510  0E01               	movlw	1
  6469  003512  ECDA  F022         	call	_Lcd_Out
  6470                           
  6471                           ;Proyecto_SSE1_13_05.c: 489:     while(valor!='*'){
  6472  003516  D027               	goto	l5892
  6473  003518                     l5880:
  6474                           
  6475                           ; BSR set to: 0
  6476                           ;Proyecto_SSE1_13_05.c: 490:         teclado();
  6477  003518  ECD1  F020         	call	_teclado	;wreg free
  6478                           
  6479                           ;Proyecto_SSE1_13_05.c: 491:         if((valor=='1')||(valor=='2')||(valor=='3')){
  6480  00351C  0E31               	movlw	49
  6481  00351E  0100               	movlb	0	; () banked
  6482  003520  19FF               	xorwf	_valor& (0+255),w,b
  6483  003522  B4D8               	btfsc	status,2,c
  6484  003524  D008               	goto	u6390
  6485                           
  6486                           ; BSR set to: 0
  6487  003526  0E32               	movlw	50
  6488  003528  19FF               	xorwf	_valor& (0+255),w,b
  6489  00352A  B4D8               	btfsc	status,2,c
  6490  00352C  D004               	goto	u6390
  6491                           
  6492                           ; BSR set to: 0
  6493  00352E  0E33               	movlw	51
  6494  003530  19FF               	xorwf	_valor& (0+255),w,b
  6495  003532  A4D8               	btfss	status,2,c
  6496  003534  D018               	goto	l5892
  6497  003536                     u6390:
  6498                           
  6499                           ; BSR set to: 0
  6500                           ;Proyecto_SSE1_13_05.c: 492:             tipo=valor;
  6501  003536  C0FF  F0DA         	movff	_valor,clean_rooms@tipo
  6502                           
  6503                           ; BSR set to: 0
  6504                           ;Proyecto_SSE1_13_05.c: 493:             sprintf(uso_local,"Tipo:%c",tipo);
  6505  00353A  0EB4               	movlw	low clean_rooms@uso_local
  6506  00353C  6FA0               	movwf	sprintf@s& (0+255),b
  6507  00353E  0E00               	movlw	high clean_rooms@uso_local
  6508  003540  6FA1               	movwf	(sprintf@s+1)& (0+255),b
  6509  003542  0E98               	movlw	low STR_22
  6510  003544  6FA2               	movwf	sprintf@fmt& (0+255),b
  6511  003546  0E7F               	movlw	high STR_22
  6512  003548  6FA3               	movwf	(sprintf@fmt+1)& (0+255),b
  6513  00354A  C0DA  F0A4         	movff	clean_rooms@tipo,?_sprintf+4
  6514  00354E  6BA5               	clrf	(?_sprintf+5)& (0+255),b
  6515  003550  EC11  F024         	call	_sprintf	;wreg free
  6516                           
  6517                           ;Proyecto_SSE1_13_05.c: 494:             Lcd_Out2(2,1,uso_local);
  6518  003554  0E01               	movlw	1
  6519  003556  6E04               	movwf	Lcd_Out2@x,c
  6520  003558  0EB4               	movlw	low clean_rooms@uso_local
  6521  00355A  6E05               	movwf	Lcd_Out2@buffer,c
  6522  00355C  0E00               	movlw	high clean_rooms@uso_local
  6523  00355E  6E06               	movwf	Lcd_Out2@buffer+1,c
  6524  003560  0E02               	movlw	2
  6525  003562  EC4D  F023         	call	_Lcd_Out2
  6526  003566                     l5892:
  6527                           
  6528                           ;Proyecto_SSE1_13_05.c: 489:     while(valor!='*'){
  6529  003566  0E2A               	movlw	42
  6530  003568  0100               	movlb	0	; () banked
  6531  00356A  19FF               	xorwf	_valor& (0+255),w,b
  6532  00356C  A4D8               	btfss	status,2,c
  6533  00356E  D7D4               	goto	l5880
  6534                           
  6535                           ; BSR set to: 0
  6536                           ;Proyecto_SSE1_13_05.c: 496:     }valor=0;
  6537  003570  0E00               	movlw	0
  6538  003572  6FFF               	movwf	_valor& (0+255),b
  6539                           
  6540                           ;Proyecto_SSE1_13_05.c: 497:     while(valor!='*'){
  6541  003574  D021               	goto	l5908
  6542  003576                     l5896:
  6543                           
  6544                           ; BSR set to: 0
  6545                           ;Proyecto_SSE1_13_05.c: 498:         teclado();
  6546  003576  ECD1  F020         	call	_teclado	;wreg free
  6547                           
  6548                           ;Proyecto_SSE1_13_05.c: 499:         if((valor>='0')&&(valor<='5')){
  6549  00357A  0E2F               	movlw	47
  6550  00357C  0100               	movlb	0	; () banked
  6551  00357E  65FF               	cpfsgt	_valor& (0+255),b
  6552  003580  D01B               	goto	l5908
  6553                           
  6554                           ; BSR set to: 0
  6555  003582  0E36               	movlw	54
  6556  003584  61FF               	cpfslt	_valor& (0+255),b
  6557  003586  D018               	goto	l5908
  6558                           
  6559                           ; BSR set to: 0
  6560                           ;Proyecto_SSE1_13_05.c: 500:             cuarto=valor;
  6561  003588  C0FF  F0DB         	movff	_valor,clean_rooms@cuarto
  6562                           
  6563                           ; BSR set to: 0
  6564                           ;Proyecto_SSE1_13_05.c: 501:             sprintf(uso_local2,"Hab:%c",cuarto);
  6565  00358C  0EC5               	movlw	low clean_rooms@uso_local2
  6566  00358E  6FA0               	movwf	sprintf@s& (0+255),b
  6567  003590  0E00               	movlw	high clean_rooms@uso_local2
  6568  003592  6FA1               	movwf	(sprintf@s+1)& (0+255),b
  6569  003594  0EB7               	movlw	low STR_80
  6570  003596  6FA2               	movwf	sprintf@fmt& (0+255),b
  6571  003598  0E7F               	movlw	high STR_80
  6572  00359A  6FA3               	movwf	(sprintf@fmt+1)& (0+255),b
  6573  00359C  C0DB  F0A4         	movff	clean_rooms@cuarto,?_sprintf+4
  6574  0035A0  6BA5               	clrf	(?_sprintf+5)& (0+255),b
  6575  0035A2  EC11  F024         	call	_sprintf	;wreg free
  6576                           
  6577                           ;Proyecto_SSE1_13_05.c: 502:             Lcd_Out2(2,8,uso_local2);
  6578  0035A6  0E08               	movlw	8
  6579  0035A8  6E04               	movwf	Lcd_Out2@x,c
  6580  0035AA  0EC5               	movlw	low clean_rooms@uso_local2
  6581  0035AC  6E05               	movwf	Lcd_Out2@buffer,c
  6582  0035AE  0E00               	movlw	high clean_rooms@uso_local2
  6583  0035B0  6E06               	movwf	Lcd_Out2@buffer+1,c
  6584  0035B2  0E02               	movlw	2
  6585  0035B4  EC4D  F023         	call	_Lcd_Out2
  6586  0035B8                     l5908:
  6587                           
  6588                           ;Proyecto_SSE1_13_05.c: 497:     while(valor!='*'){
  6589  0035B8  0E2A               	movlw	42
  6590  0035BA  0100               	movlb	0	; () banked
  6591  0035BC  19FF               	xorwf	_valor& (0+255),w,b
  6592  0035BE  B4D8               	btfsc	status,2,c
  6593  0035C0  D01C               	goto	l5924
  6594  0035C2  D7D9               	goto	l5896
  6595  0035C4                     l5910:
  6596                           
  6597                           ; BSR set to: 0
  6598                           ;Proyecto_SSE1_13_05.c: 507:             r_nomal++;
  6599  0035C4  4BF8               	infsnz	_r_nomal& (0+255),f,b
  6600  0035C6  2BF9               	incf	(_r_nomal+1)& (0+255),f,b
  6601                           
  6602                           ; BSR set to: 0
  6603                           ;Proyecto_SSE1_13_05.c: 508:             room_normal[cuarto]=0;
  6604  0035C8  0E0C               	movlw	low _room_normal
  6605  0035CA  25DB               	addwf	clean_rooms@cuarto& (0+255),w,b
  6606  0035CC  6ED9               	movwf	fsr2l,c
  6607  0035CE  6ADA               	clrf	fsr2h,c
  6608  0035D0  0E01               	movlw	high _room_normal
  6609  0035D2  D00F               	goto	L4
  6610  0035D4                     l5914:
  6611                           
  6612                           ; BSR set to: 0
  6613                           ;Proyecto_SSE1_13_05.c: 512:             r_jacuzzi++;
  6614  0035D4  4BF6               	infsnz	_r_jacuzzi& (0+255),f,b
  6615  0035D6  2BF7               	incf	(_r_jacuzzi+1)& (0+255),f,b
  6616                           
  6617                           ; BSR set to: 0
  6618                           ;Proyecto_SSE1_13_05.c: 513:             room_jacuzzi[cuarto]=0;
  6619  0035D8  0E06               	movlw	low _room_jacuzzi
  6620  0035DA  25DB               	addwf	clean_rooms@cuarto& (0+255),w,b
  6621  0035DC  6ED9               	movwf	fsr2l,c
  6622  0035DE  6ADA               	clrf	fsr2h,c
  6623  0035E0  0E01               	movlw	high _room_jacuzzi
  6624  0035E2  D007               	goto	L4
  6625  0035E4                     l5918:
  6626                           
  6627                           ; BSR set to: 0
  6628                           ;Proyecto_SSE1_13_05.c: 517:             r_master++;
  6629  0035E4  4BF4               	infsnz	_r_master& (0+255),f,b
  6630  0035E6  2BF5               	incf	(_r_master+1)& (0+255),f,b
  6631                           
  6632                           ; BSR set to: 0
  6633                           ;Proyecto_SSE1_13_05.c: 518:             room_master[cuarto]=0;
  6634  0035E8  0E00               	movlw	low _room_master
  6635  0035EA  25DB               	addwf	clean_rooms@cuarto& (0+255),w,b
  6636  0035EC  6ED9               	movwf	fsr2l,c
  6637  0035EE  6ADA               	clrf	fsr2h,c
  6638  0035F0  0E01               	movlw	high _room_master
  6639  0035F2                     L4:
  6640  0035F2  22DA               	addwfc	fsr2h,f,c
  6641  0035F4  0E00               	movlw	0
  6642  0035F6  6EDF               	movwf	indf2,c
  6643                           
  6644                           ;Proyecto_SSE1_13_05.c: 519:             break;
  6645  0035F8  D011               	goto	l5926
  6646  0035FA                     l5924:
  6647                           
  6648                           ; BSR set to: 0
  6649  0035FA  51DA               	movf	clean_rooms@tipo& (0+255),w,b
  6650  0035FC  6FB2               	movwf	??_clean_rooms& (0+255),b
  6651  0035FE  6BB3               	clrf	(??_clean_rooms+1)& (0+255),b
  6652                           
  6653                           ; Switch on 2 bytes has been partitioned into a top level switch of size 1, and 1 sub-sw
      +                          itches
  6654                           ; Switch size 1, requested type "simple"
  6655                           ; Number of cases is 1, Range of values is 0 to 0
  6656                           ; switch strategies available:
  6657                           ; Name         Instructions Cycles
  6658                           ; simple_byte            4     3 (average)
  6659                           ;	Chosen strategy is simple_byte
  6660  003600  51B3               	movf	(??_clean_rooms+1)& (0+255),w,b
  6661  003602  0A00               	xorlw	0	; case 0
  6662  003604  A4D8               	btfss	status,2,c
  6663  003606  D00A               	goto	l5926
  6664                           
  6665                           ; BSR set to: 0
  6666                           ; Switch size 1, requested type "simple"
  6667                           ; Number of cases is 3, Range of values is 49 to 51
  6668                           ; switch strategies available:
  6669                           ; Name         Instructions Cycles
  6670                           ; simple_byte           10     6 (average)
  6671                           ;	Chosen strategy is simple_byte
  6672  003608  51B2               	movf	??_clean_rooms& (0+255),w,b
  6673  00360A  0A31               	xorlw	49	; case 49
  6674  00360C  B4D8               	btfsc	status,2,c
  6675  00360E  D7DA               	goto	l5910
  6676  003610  0A03               	xorlw	3	; case 50
  6677  003612  B4D8               	btfsc	status,2,c
  6678  003614  D7DF               	goto	l5914
  6679  003616  0A01               	xorlw	1	; case 51
  6680  003618  B4D8               	btfsc	status,2,c
  6681  00361A  D7E4               	goto	l5918
  6682  00361C                     l5926:
  6683                           
  6684                           ; BSR set to: 0
  6685                           ;Proyecto_SSE1_13_05.c: 522:     valor=0;
  6686  00361C  0E00               	movlw	0
  6687  00361E  6FFF               	movwf	_valor& (0+255),b
  6688                           
  6689                           ; BSR set to: 0
  6690                           ;Proyecto_SSE1_13_05.c: 523:     Lcd_Cmd(1);
  6691  003620  0E01               	movlw	1
  6692  003622  EC28  F01E         	call	_Lcd_Cmd
  6693                           
  6694                           ;Proyecto_SSE1_13_05.c: 524:     _delay((unsigned long)((100)*(12000000/4000.0)));
  6695  003626  0E02               	movlw	2
  6696  003628  0100               	movlb	0	; () banked
  6697  00362A  6FB3               	movwf	(??_clean_rooms+1)& (0+255),b
  6698  00362C  0E86               	movlw	134
  6699  00362E  6FB2               	movwf	??_clean_rooms& (0+255),b
  6700  003630  0E99               	movlw	153
  6701  003632                     u8177:
  6702  003632  2EE8               	decfsz	wreg,f,c
  6703  003634  D7FE               	bra	u8177
  6704  003636  2FB2               	decfsz	??_clean_rooms& (0+255),f,b
  6705  003638  D7FC               	bra	u8177
  6706  00363A  2FB3               	decfsz	(??_clean_rooms+1)& (0+255),f,b
  6707  00363C  D7FA               	bra	u8177
  6708  00363E  0012               	return		;funcret
  6709  003640                     __end_of_clean_rooms:
  6710                           	opt callstack 0
  6711                           
  6712 ;; *************** function _teclado *****************
  6713 ;; Defined at:
  6714 ;;		line 380 in file "Proyecto_SSE1_13_05.c"
  6715 ;; Parameters:    Size  Location     Type
  6716 ;;		None
  6717 ;; Auto vars:     Size  Location     Type
  6718 ;;		None
  6719 ;; Return value:  Size  Location     Type
  6720 ;;                  1    wreg      void 
  6721 ;; Registers used:
  6722 ;;		wreg, status,2, status,0
  6723 ;; Tracked objects:
  6724 ;;		On entry : 0/0
  6725 ;;		On exit  : 0/0
  6726 ;;		Unchanged: 0/0
  6727 ;; Data sizes:     COMRAM   BANK0   BANK1   BANK2   BANK3   BANK4   BANK5   BANK6   BANK7
  6728 ;;      Params:         0       0       0       0       0       0       0       0       0
  6729 ;;      Locals:         0       0       0       0       0       0       0       0       0
  6730 ;;      Temps:          0       0       0       0       0       0       0       0       0
  6731 ;;      Totals:         0       0       0       0       0       0       0       0       0
  6732 ;;Total ram usage:        0 bytes
  6733 ;; Hardware stack levels used:    1
  6734 ;; Hardware stack levels required when called:    2
  6735 ;; This function calls:
  6736 ;;		Nothing
  6737 ;; This function is called by:
  6738 ;;		_main
  6739 ;;		_pago_de_Habitaciones
  6740 ;;		_clean_rooms
  6741 ;;		_opciones
  6742 ;; This function uses a non-reentrant model
  6743 ;;
  6744                           
  6745                           	psect	text5
  6746  0041A2                     __ptext5:
  6747                           	opt callstack 0
  6748  0041A2                     _teclado:
  6749                           	opt callstack 28
  6750                           
  6751                           ;Proyecto_SSE1_13_05.c: 381:     valor=0;
  6752                           
  6753                           ;incstack = 0
  6754  0041A2  0E00               	movlw	0
  6755  0041A4  0100               	movlb	0	; () banked
  6756  0041A6  6FFF               	movwf	_valor& (0+255),b
  6757                           
  6758                           ;Proyecto_SSE1_13_05.c: 382:     PORTB=0xF0;
  6759  0041A8  0EF0               	movlw	240
  6760  0041AA  6E81               	movwf	3969,c	;volatile
  6761                           
  6762                           ; BSR set to: 0
  6763                           ;Proyecto_SSE1_13_05.c: 383:     if(PORTB != 0xF0){
  6764  0041AC  0EF0               	movlw	240
  6765  0041AE  1881               	xorwf	3969,w,c	;volatile
  6766  0041B0  B4D8               	btfsc	status,2,c
  6767  0041B2  D048               	goto	l217
  6768                           
  6769                           ; BSR set to: 0
  6770                           ;Proyecto_SSE1_13_05.c: 384:         PORTB=0xFE;
  6771  0041B4  0EFE               	movlw	254
  6772  0041B6  6E81               	movwf	3969,c	;volatile
  6773                           
  6774                           ; BSR set to: 0
  6775                           ;Proyecto_SSE1_13_05.c: 385:             if(PORTBbits.RB4==0){valor = '*';}
  6776  0041B8  B881               	btfsc	3969,4,c	;volatile
  6777  0041BA  D002               	goto	l5812
  6778                           
  6779                           ; BSR set to: 0
  6780  0041BC  0E2A               	movlw	42
  6781  0041BE  6FFF               	movwf	_valor& (0+255),b
  6782  0041C0                     l5812:
  6783                           
  6784                           ; BSR set to: 0
  6785                           ;Proyecto_SSE1_13_05.c: 386:             if(PORTBbits.RB5==0){valor = '0';}
  6786  0041C0  BA81               	btfsc	3969,5,c	;volatile
  6787  0041C2  D002               	goto	l5816
  6788                           
  6789                           ; BSR set to: 0
  6790  0041C4  0E30               	movlw	48
  6791  0041C6  6FFF               	movwf	_valor& (0+255),b
  6792  0041C8                     l5816:
  6793                           
  6794                           ; BSR set to: 0
  6795                           ;Proyecto_SSE1_13_05.c: 387:             if(PORTBbits.RB6==0){valor = '#';}
  6796  0041C8  BC81               	btfsc	3969,6,c	;volatile
  6797  0041CA  D002               	goto	l5820
  6798                           
  6799                           ; BSR set to: 0
  6800  0041CC  0E23               	movlw	35
  6801  0041CE  6FFF               	movwf	_valor& (0+255),b
  6802  0041D0                     l5820:
  6803                           
  6804                           ; BSR set to: 0
  6805                           ;Proyecto_SSE1_13_05.c: 388:             if(PORTBbits.RB7==0){valor = 'D';}
  6806  0041D0  BE81               	btfsc	3969,7,c	;volatile
  6807  0041D2  D002               	goto	l221
  6808                           
  6809                           ; BSR set to: 0
  6810  0041D4  0E44               	movlw	68
  6811  0041D6  6FFF               	movwf	_valor& (0+255),b
  6812  0041D8                     l221:
  6813                           
  6814                           ; BSR set to: 0
  6815                           ;Proyecto_SSE1_13_05.c: 389:         PORTB=0xFD;
  6816  0041D8  0EFD               	movlw	253
  6817  0041DA  6E81               	movwf	3969,c	;volatile
  6818                           
  6819                           ; BSR set to: 0
  6820                           ;Proyecto_SSE1_13_05.c: 390:             if(PORTBbits.RB4==0){valor = '7';}
  6821  0041DC  B881               	btfsc	3969,4,c	;volatile
  6822  0041DE  D002               	goto	l5828
  6823                           
  6824                           ; BSR set to: 0
  6825  0041E0  0E37               	movlw	55
  6826  0041E2  6FFF               	movwf	_valor& (0+255),b
  6827  0041E4                     l5828:
  6828                           
  6829                           ; BSR set to: 0
  6830                           ;Proyecto_SSE1_13_05.c: 391:             if(PORTBbits.RB5==0){valor = '8';}
  6831  0041E4  BA81               	btfsc	3969,5,c	;volatile
  6832  0041E6  D002               	goto	l5832
  6833                           
  6834                           ; BSR set to: 0
  6835  0041E8  0E38               	movlw	56
  6836  0041EA  6FFF               	movwf	_valor& (0+255),b
  6837  0041EC                     l5832:
  6838                           
  6839                           ; BSR set to: 0
  6840                           ;Proyecto_SSE1_13_05.c: 392:             if(PORTBbits.RB6==0){valor = '9';}
  6841  0041EC  BC81               	btfsc	3969,6,c	;volatile
  6842  0041EE  D002               	goto	l5836
  6843                           
  6844                           ; BSR set to: 0
  6845  0041F0  0E39               	movlw	57
  6846  0041F2  6FFF               	movwf	_valor& (0+255),b
  6847  0041F4                     l5836:
  6848                           
  6849                           ; BSR set to: 0
  6850                           ;Proyecto_SSE1_13_05.c: 393:             if(PORTBbits.RB7==0){valor = 'C';}
  6851  0041F4  BE81               	btfsc	3969,7,c	;volatile
  6852  0041F6  D002               	goto	l225
  6853                           
  6854                           ; BSR set to: 0
  6855  0041F8  0E43               	movlw	67
  6856  0041FA  6FFF               	movwf	_valor& (0+255),b
  6857  0041FC                     l225:
  6858                           
  6859                           ; BSR set to: 0
  6860                           ;Proyecto_SSE1_13_05.c: 394:         PORTB=0xFB;
  6861  0041FC  0EFB               	movlw	251
  6862  0041FE  6E81               	movwf	3969,c	;volatile
  6863                           
  6864                           ; BSR set to: 0
  6865                           ;Proyecto_SSE1_13_05.c: 395:             if(PORTBbits.RB4==0){valor = '4';}
  6866  004200  B881               	btfsc	3969,4,c	;volatile
  6867  004202  D002               	goto	l5844
  6868                           
  6869                           ; BSR set to: 0
  6870  004204  0E34               	movlw	52
  6871  004206  6FFF               	movwf	_valor& (0+255),b
  6872  004208                     l5844:
  6873                           
  6874                           ; BSR set to: 0
  6875                           ;Proyecto_SSE1_13_05.c: 396:             if(PORTBbits.RB5==0){valor = '5';}
  6876  004208  BA81               	btfsc	3969,5,c	;volatile
  6877  00420A  D002               	goto	l5848
  6878                           
  6879                           ; BSR set to: 0
  6880  00420C  0E35               	movlw	53
  6881  00420E  6FFF               	movwf	_valor& (0+255),b
  6882  004210                     l5848:
  6883                           
  6884                           ; BSR set to: 0
  6885                           ;Proyecto_SSE1_13_05.c: 397:             if(PORTBbits.RB6==0){valor = '6';}
  6886  004210  BC81               	btfsc	3969,6,c	;volatile
  6887  004212  D002               	goto	l5852
  6888                           
  6889                           ; BSR set to: 0
  6890  004214  0E36               	movlw	54
  6891  004216  6FFF               	movwf	_valor& (0+255),b
  6892  004218                     l5852:
  6893                           
  6894                           ; BSR set to: 0
  6895                           ;Proyecto_SSE1_13_05.c: 398:             if(PORTBbits.RB7==0){valor = 'B';}
  6896  004218  BE81               	btfsc	3969,7,c	;volatile
  6897  00421A  D002               	goto	l229
  6898                           
  6899                           ; BSR set to: 0
  6900  00421C  0E42               	movlw	66
  6901  00421E  6FFF               	movwf	_valor& (0+255),b
  6902  004220                     l229:
  6903                           
  6904                           ; BSR set to: 0
  6905                           ;Proyecto_SSE1_13_05.c: 399:         PORTB=0xF7;
  6906  004220  0EF7               	movlw	247
  6907  004222  6E81               	movwf	3969,c	;volatile
  6908                           
  6909                           ; BSR set to: 0
  6910                           ;Proyecto_SSE1_13_05.c: 400:             if(PORTBbits.RB4==0){valor = '1';}
  6911  004224  B881               	btfsc	3969,4,c	;volatile
  6912  004226  D002               	goto	l5860
  6913                           
  6914                           ; BSR set to: 0
  6915  004228  0E31               	movlw	49
  6916  00422A  6FFF               	movwf	_valor& (0+255),b
  6917  00422C                     l5860:
  6918                           
  6919                           ; BSR set to: 0
  6920                           ;Proyecto_SSE1_13_05.c: 401:             if(PORTBbits.RB5==0){valor = '2';}
  6921  00422C  BA81               	btfsc	3969,5,c	;volatile
  6922  00422E  D002               	goto	l5864
  6923                           
  6924                           ; BSR set to: 0
  6925  004230  0E32               	movlw	50
  6926  004232  6FFF               	movwf	_valor& (0+255),b
  6927  004234                     l5864:
  6928                           
  6929                           ; BSR set to: 0
  6930                           ;Proyecto_SSE1_13_05.c: 402:             if(PORTBbits.RB6==0){valor = '3';}
  6931  004234  BC81               	btfsc	3969,6,c	;volatile
  6932  004236  D002               	goto	l5868
  6933                           
  6934                           ; BSR set to: 0
  6935  004238  0E33               	movlw	51
  6936  00423A  6FFF               	movwf	_valor& (0+255),b
  6937  00423C                     l5868:
  6938                           
  6939                           ; BSR set to: 0
  6940                           ;Proyecto_SSE1_13_05.c: 403:             if(PORTBbits.RB7==0){valor = 'A';}
  6941  00423C  BE81               	btfsc	3969,7,c	;volatile
  6942  00423E  D002               	goto	l217
  6943                           
  6944                           ; BSR set to: 0
  6945  004240  0E41               	movlw	65
  6946  004242  6FFF               	movwf	_valor& (0+255),b
  6947  004244                     l217:
  6948                           
  6949                           ; BSR set to: 0
  6950                           ;Proyecto_SSE1_13_05.c: 405:     PORTB = 0xF0;
  6951  004244  0EF0               	movlw	240
  6952  004246  6E81               	movwf	3969,c	;volatile
  6953  004248                     l5872:
  6954  004248  0EF0               	movlw	240
  6955  00424A  1881               	xorwf	3969,w,c	;volatile
  6956  00424C  B4D8               	btfsc	status,2,c
  6957  00424E  0012               	return	
  6958  004250  D7FB               	goto	l5872
  6959  004252                     __end_of_teclado:
  6960                           	opt callstack 0
  6961                           
  6962 ;; *************** function _sprintf *****************
  6963 ;; Defined at:
  6964 ;;		line 9 in file "C:\Program Files (x86)\Microchip\xc8\v2.05\pic\sources\c99\common\nf_sprintf.c"
  6965 ;; Parameters:    Size  Location     Type
  6966 ;;  s               2   64[BANK0 ] PTR unsigned char 
  6967 ;;		 -> clean_rooms@uso_local2(17), clean_rooms@uso_local(17), pago_de_Habitaciones@uso_local2(17), pago_de_Habitaciones
      +@uso_local(17), 
  6968 ;;		 -> palabra3(17), palabra2(17), palabra1(17), palabra(17), 
  6969 ;;  fmt             2   66[BANK0 ] PTR const unsigned char 
  6970 ;;		 -> STR_89(10), STR_80(7), STR_79(8), STR_74(6), 
  6971 ;;		 -> STR_69(11), STR_68(10), STR_66(5), STR_31(10), 
  6972 ;;		 -> STR_22(8), STR_20(15), STR_18(15), STR_16(15), 
  6973 ;; Auto vars:     Size  Location     Type
  6974 ;;  f               6   76[BANK0 ] struct _IO_FILE
  6975 ;;  ap              2   74[BANK0 ] PTR void [1]
  6976 ;;		 -> ?_sprintf(2), 
  6977 ;;  ret             2    0        int 
  6978 ;; Return value:  Size  Location     Type
  6979 ;;                  2   64[BANK0 ] int 
  6980 ;; Registers used:
  6981 ;;		wreg, fsr1l, fsr1h, fsr2l, fsr2h, status,2, status,0, tblptrl, tblptrh, tblptru, prodl, prodh, cstack
  6982 ;; Tracked objects:
  6983 ;;		On entry : 0/0
  6984 ;;		On exit  : 0/0
  6985 ;;		Unchanged: 0/0
  6986 ;; Data sizes:     COMRAM   BANK0   BANK1   BANK2   BANK3   BANK4   BANK5   BANK6   BANK7
  6987 ;;      Params:         0       8       0       0       0       0       0       0       0
  6988 ;;      Locals:         0      10       0       0       0       0       0       0       0
  6989 ;;      Temps:          0       0       0       0       0       0       0       0       0
  6990 ;;      Totals:         0      18       0       0       0       0       0       0       0
  6991 ;;Total ram usage:       18 bytes
  6992 ;; Hardware stack levels used:    1
  6993 ;; Hardware stack levels required when called:    9
  6994 ;; This function calls:
  6995 ;;		_vfprintf
  6996 ;; This function is called by:
  6997 ;;		_main
  6998 ;;		_pago_de_Habitaciones
  6999 ;;		_clean_rooms
  7000 ;;		_opciones
  7001 ;; This function uses a non-reentrant model
  7002 ;;
  7003                           
  7004                           	psect	text6
  7005  004822                     __ptext6:
  7006                           	opt callstack 0
  7007  004822                     _sprintf:
  7008                           	opt callstack 21
  7009                           
  7010                           ;incstack = 0
  7011  004822  0EA4               	movlw	low (?_sprintf+4)
  7012  004824  0100               	movlb	0	; () banked
  7013  004826  6FAA               	movwf	sprintf@ap& (0+255),b
  7014  004828  0E00               	movlw	high (?_sprintf+4)
  7015  00482A  6FAB               	movwf	(sprintf@ap+1)& (0+255),b
  7016  00482C  C0A0  F0AC         	movff	sprintf@s,sprintf@f
  7017  004830  C0A1  F0AD         	movff	sprintf@s+1,sprintf@f+1
  7018                           
  7019                           ; BSR set to: 0
  7020  004834  0E00               	movlw	0
  7021  004836  6FAF               	movwf	(sprintf@f+3)& (0+255),b
  7022  004838  0E00               	movlw	0
  7023  00483A  6FAE               	movwf	(sprintf@f+2)& (0+255),b
  7024                           
  7025                           ; BSR set to: 0
  7026  00483C  0E00               	movlw	0
  7027  00483E  6FB1               	movwf	(sprintf@f+5)& (0+255),b
  7028  004840  0E00               	movlw	0
  7029  004842  6FB0               	movwf	(sprintf@f+4)& (0+255),b
  7030                           
  7031                           ; BSR set to: 0
  7032  004844  0EAC               	movlw	low sprintf@f
  7033  004846  6F98               	movwf	vfprintf@fp& (0+255),b
  7034  004848  0E00               	movlw	high sprintf@f
  7035  00484A  6F99               	movwf	(vfprintf@fp+1)& (0+255),b
  7036  00484C  C0A2  F09A         	movff	sprintf@fmt,vfprintf@fmt
  7037  004850  C0A3  F09B         	movff	sprintf@fmt+1,vfprintf@fmt+1
  7038  004854  0EAA               	movlw	low sprintf@ap
  7039  004856  6F9C               	movwf	vfprintf@ap& (0+255),b
  7040  004858  0E00               	movlw	high sprintf@ap
  7041  00485A  6F9D               	movwf	(vfprintf@ap+1)& (0+255),b
  7042  00485C  ECBC  F023         	call	_vfprintf	;wreg free
  7043  004860  0100               	movlb	0	; () banked
  7044  004862  51AE               	movf	(sprintf@f+2)& (0+255),w,b
  7045  004864  25A0               	addwf	sprintf@s& (0+255),w,b
  7046  004866  6ED9               	movwf	fsr2l,c
  7047  004868  51AF               	movf	(sprintf@f+3)& (0+255),w,b
  7048  00486A  21A1               	addwfc	(sprintf@s+1)& (0+255),w,b
  7049  00486C  6EDA               	movwf	fsr2h,c
  7050  00486E  0E00               	movlw	0
  7051  004870  6EDF               	movwf	indf2,c
  7052                           
  7053                           ; BSR set to: 0
  7054  004872  0012               	return		;funcret
  7055  004874                     __end_of_sprintf:
  7056                           	opt callstack 0
  7057                           
  7058 ;; *************** function _vfprintf *****************
  7059 ;; Defined at:
  7060 ;;		line 1368 in file "C:\Program Files (x86)\Microchip\xc8\v2.05\pic\sources\c99\common\doprnt.c"
  7061 ;; Parameters:    Size  Location     Type
  7062 ;;  fp              2   56[BANK0 ] PTR struct _IO_FILE
  7063 ;;		 -> sprintf@f(6), 
  7064 ;;  fmt             2   58[BANK0 ] PTR const unsigned char 
  7065 ;;		 -> STR_89(10), STR_80(7), STR_79(8), STR_74(6), 
  7066 ;;		 -> STR_69(11), STR_68(10), STR_66(5), STR_31(10), 
  7067 ;;		 -> STR_22(8), STR_20(15), STR_18(15), STR_16(15), 
  7068 ;;  ap              2   60[BANK0 ] PTR PTR void 
  7069 ;;		 -> sprintf@ap(2), 
  7070 ;; Auto vars:     Size  Location     Type
  7071 ;;  cfmt            2   62[BANK0 ] PTR unsigned char 
  7072 ;;		 -> STR_89(10), STR_80(7), STR_79(8), STR_74(6), 
  7073 ;;		 -> STR_69(11), STR_68(10), STR_66(5), STR_31(10), 
  7074 ;;		 -> STR_22(8), STR_20(15), STR_18(15), STR_16(15), 
  7075 ;; Return value:  Size  Location     Type
  7076 ;;                  2   56[BANK0 ] int 
  7077 ;; Registers used:
  7078 ;;		wreg, fsr1l, fsr1h, fsr2l, fsr2h, status,2, status,0, tblptrl, tblptrh, tblptru, prodl, prodh, cstack
  7079 ;; Tracked objects:
  7080 ;;		On entry : 0/0
  7081 ;;		On exit  : 0/0
  7082 ;;		Unchanged: 0/0
  7083 ;; Data sizes:     COMRAM   BANK0   BANK1   BANK2   BANK3   BANK4   BANK5   BANK6   BANK7
  7084 ;;      Params:         0       6       0       0       0       0       0       0       0
  7085 ;;      Locals:         0       2       0       0       0       0       0       0       0
  7086 ;;      Temps:          0       0       0       0       0       0       0       0       0
  7087 ;;      Totals:         0       8       0       0       0       0       0       0       0
  7088 ;;Total ram usage:        8 bytes
  7089 ;; Hardware stack levels used:    1
  7090 ;; Hardware stack levels required when called:    8
  7091 ;; This function calls:
  7092 ;;		_vfpfcnvrt
  7093 ;; This function is called by:
  7094 ;;		_sprintf
  7095 ;; This function uses a non-reentrant model
  7096 ;;
  7097                           
  7098                           	psect	text7
  7099  004778                     __ptext7:
  7100                           	opt callstack 0
  7101  004778                     _vfprintf:
  7102                           	opt callstack 21
  7103                           
  7104                           ;C:\Program Files (x86)\Microchip\xc8\v2.05\pic\sources\c99\common\doprnt.c: 1368: int v
      +                          fprintf(FILE *fp, const char *fmt, va_list ap);C:\Program Files (x86)\Microchip\xc8\v2.0
      +                          5\pic\sources\c99\common\doprnt.c: 1369: {;C:\Program Files (x86)\Microchip\xc8\v2.05\pi
      +                          c\sources\c99\common\doprnt.c: 1371:     char *cfmt;;C:\Program Files (x86)\Microchip\xc
      +                          8\v2.05\pic\sources\c99\common\doprnt.c: 1373:     cfmt = (char *)fmt;
  7105                           
  7106                           ; BSR set to: 0
  7107                           ;incstack = 0
  7108  004778  C09A  F09E         	movff	vfprintf@fmt,vfprintf@cfmt
  7109  00477C  C09B  F09F         	movff	vfprintf@fmt+1,vfprintf@cfmt+1
  7110                           
  7111                           ;C:\Program Files (x86)\Microchip\xc8\v2.05\pic\sources\c99\common\doprnt.c: 1374:     n
      +                          out = 0;
  7112  004780  0E00               	movlw	0
  7113  004782  0100               	movlb	0	; () banked
  7114  004784  6FED               	movwf	(_nout+1)& (0+255),b
  7115  004786  0E00               	movlw	0
  7116  004788  6FEC               	movwf	_nout& (0+255),b
  7117                           
  7118                           ;C:\Program Files (x86)\Microchip\xc8\v2.05\pic\sources\c99\common\doprnt.c: 1375:     w
      +                          hile (*cfmt) {
  7119  00478A  D013               	goto	l5736
  7120  00478C                     l5734:
  7121                           
  7122                           ; BSR set to: 0
  7123                           ;C:\Program Files (x86)\Microchip\xc8\v2.05\pic\sources\c99\common\doprnt.c: 1376:      
      +                             nout += vfpfcnvrt(fp, &cfmt, ap);
  7124  00478C  C098  F040         	movff	vfprintf@fp,vfpfcnvrt@fp
  7125  004790  C099  F041         	movff	vfprintf@fp+1,vfpfcnvrt@fp+1
  7126  004794  0E9E               	movlw	low vfprintf@cfmt
  7127  004796  6E42               	movwf	vfpfcnvrt@fmt,c
  7128  004798  0E00               	movlw	high vfprintf@cfmt
  7129  00479A  6E43               	movwf	vfpfcnvrt@fmt+1,c
  7130  00479C  C09C  F044         	movff	vfprintf@ap,vfpfcnvrt@ap
  7131  0047A0  C09D  F045         	movff	vfprintf@ap+1,vfpfcnvrt@ap+1
  7132  0047A4  EC91  F00F         	call	_vfpfcnvrt	;wreg free
  7133  0047A8  5040               	movf	?_vfpfcnvrt,w,c
  7134  0047AA  0100               	movlb	0	; () banked
  7135  0047AC  27EC               	addwf	_nout& (0+255),f,b
  7136  0047AE  5041               	movf	?_vfpfcnvrt+1,w,c
  7137  0047B0  23ED               	addwfc	(_nout+1)& (0+255),f,b
  7138  0047B2                     l5736:
  7139                           
  7140                           ; BSR set to: 0
  7141                           ;C:\Program Files (x86)\Microchip\xc8\v2.05\pic\sources\c99\common\doprnt.c: 1375:     w
      +                          hile (*cfmt) {
  7142  0047B2  C09E  FFF6         	movff	vfprintf@cfmt,tblptrl
  7143  0047B6  C09F  FFF7         	movff	vfprintf@cfmt+1,tblptrh
  7144  0047BA                     	if	0	;tblptru may be non-zero
  7145  0047BA                     	endif
  7146  0047BA                     	if	0	;tblptru may be non-zero
  7147  0047BA                     	endif
  7148  0047BA  0008               	tblrd		*
  7149  0047BC  50F5               	movf	tablat,w,c
  7150  0047BE  0900               	iorlw	0
  7151  0047C0  A4D8               	btfss	status,2,c
  7152  0047C2  D7E4               	goto	l5734
  7153                           
  7154                           ; BSR set to: 0
  7155                           ;C:\Program Files (x86)\Microchip\xc8\v2.05\pic\sources\c99\common\doprnt.c: 1378:     r
      +                          eturn nout;
  7156  0047C4  C0EC  F098         	movff	_nout,?_vfprintf
  7157  0047C8  C0ED  F099         	movff	_nout+1,?_vfprintf+1
  7158                           
  7159                           ; BSR set to: 0
  7160  0047CC  0012               	return		;funcret
  7161  0047CE                     __end_of_vfprintf:
  7162                           	opt callstack 0
  7163                           
  7164 ;; *************** function _vfpfcnvrt *****************
  7165 ;; Defined at:
  7166 ;;		line 670 in file "C:\Program Files (x86)\Microchip\xc8\v2.05\pic\sources\c99\common\doprnt.c"
  7167 ;; Parameters:    Size  Location     Type
  7168 ;;  fp              2   63[COMRAM] PTR struct _IO_FILE
  7169 ;;		 -> sprintf@f(6), 
  7170 ;;  fmt             2   65[COMRAM] PTR PTR unsigned char 
  7171 ;;		 -> vfprintf@cfmt(2), 
  7172 ;;  ap              2   67[COMRAM] PTR PTR void 
  7173 ;;		 -> sprintf@ap(2), 
  7174 ;; Auto vars:     Size  Location     Type
  7175 ;;  ll              8   73[COMRAM] long long 
  7176 ;;  llu             8    0        unsigned long long 
  7177 ;;  f               4   85[COMRAM] unsigned long long 
  7178 ;;  ct              3   89[COMRAM] unsigned char [3]
  7179 ;;  vp              3    0        PTR void 
  7180 ;;  cp              3    0        PTR unsigned char 
  7181 ;;  i               2    0        int 
  7182 ;;  done            2    0        int 
  7183 ;;  c               1   92[COMRAM] unsigned char 
  7184 ;; Return value:  Size  Location     Type
  7185 ;;                  2   63[COMRAM] int 
  7186 ;; Registers used:
  7187 ;;		wreg, fsr1l, fsr1h, fsr2l, fsr2h, status,2, status,0, tblptrl, tblptrh, tblptru, prodl, prodh, cstack
  7188 ;; Tracked objects:
  7189 ;;		On entry : 0/0
  7190 ;;		On exit  : 0/0
  7191 ;;		Unchanged: 0/0
  7192 ;; Data sizes:     COMRAM   BANK0   BANK1   BANK2   BANK3   BANK4   BANK5   BANK6   BANK7
  7193 ;;      Params:         6       0       0       0       0       0       0       0       0
  7194 ;;      Locals:        20       0       0       0       0       0       0       0       0
  7195 ;;      Temps:          4       0       0       0       0       0       0       0       0
  7196 ;;      Totals:        30       0       0       0       0       0       0       0       0
  7197 ;;Total ram usage:       30 bytes
  7198 ;; Hardware stack levels used:    1
  7199 ;; Hardware stack levels required when called:    7
  7200 ;; This function calls:
  7201 ;;		_atoi
  7202 ;;		_ctoa
  7203 ;;		_dtoa
  7204 ;;		_efgtoa
  7205 ;;		_fputc
  7206 ;;		_isdigit
  7207 ;;		_isupper
  7208 ;;		_strncmp
  7209 ;;		_tolower
  7210 ;; This function is called by:
  7211 ;;		_vfprintf
  7212 ;; This function uses a non-reentrant model
  7213 ;;
  7214                           
  7215                           	psect	text8
  7216  001F22                     __ptext8:
  7217                           	opt callstack 0
  7218  001F22                     _vfpfcnvrt:
  7219                           	opt callstack 21
  7220                           
  7221                           ;C:\Program Files (x86)\Microchip\xc8\v2.05\pic\sources\c99\common\doprnt.c: 670: static
      +                           int vfpfcnvrt(FILE *fp, char *fmt[], va_list ap);C:\Program Files (x86)\Microchip\xc8\v
      +                          2.05\pic\sources\c99\common\doprnt.c: 671: {;C:\Program Files (x86)\Microchip\xc8\v2.05\
      +                          pic\sources\c99\common\doprnt.c: 672:     char c, *cp, ct[3];;C:\Program Files (x86)\Mic
      +                          rochip\xc8\v2.05\pic\sources\c99\common\doprnt.c: 673:     int done, i;;C:\Program Files
      +                           (x86)\Microchip\xc8\v2.05\pic\sources\c99\common\doprnt.c: 674:     long long ll;
  7222                           
  7223                           ; BSR set to: 0
  7224                           ;incstack = 0
  7225  001F22  C042  FFD9         	movff	vfpfcnvrt@fmt,fsr2l
  7226  001F26  C043  FFDA         	movff	vfpfcnvrt@fmt+1,fsr2h
  7227  001F2A  CFDE FFF6          	movff	postinc2,tblptrl
  7228  001F2E  CFDD FFF7          	movff	postdec2,tblptrh
  7229  001F32                     	if	0	;tblptru may be non-zero
  7230  001F32                     	endif
  7231  001F32                     	if	0	;tblptru may be non-zero
  7232  001F32                     	endif
  7233  001F32  0008               	tblrd		*
  7234  001F34  50F5               	movf	tablat,w,c
  7235  001F36  0A25               	xorlw	37
  7236  001F38  A4D8               	btfss	status,2,c
  7237  001F3A  D237               	goto	l5676
  7238                           
  7239                           ;C:\Program Files (x86)\Microchip\xc8\v2.05\pic\sources\c99\common\doprnt.c: 681:       
      +                            ++*fmt;
  7240  001F3C  C042  FFD9         	movff	vfpfcnvrt@fmt,fsr2l
  7241  001F40  C043  FFDA         	movff	vfpfcnvrt@fmt+1,fsr2h
  7242  001F44  2ADE               	incf	postinc2,f,c
  7243  001F46  0E00               	movlw	0
  7244  001F48  22DD               	addwfc	postdec2,f,c
  7245                           
  7246                           ;C:\Program Files (x86)\Microchip\xc8\v2.05\pic\sources\c99\common\doprnt.c: 683:       
      +                            flags = width = 0;
  7247  001F4A  0E00               	movlw	0
  7248  001F4C  0100               	movlb	0	; () banked
  7249  001F4E  6FEF               	movwf	(_width+1)& (0+255),b
  7250  001F50  0E00               	movlw	0
  7251  001F52  6FEE               	movwf	_width& (0+255),b
  7252  001F54  C0EE  F0F2         	movff	_width,_flags
  7253  001F58  C0EF  F0F3         	movff	_width+1,_flags+1
  7254                           
  7255                           ; BSR set to: 0
  7256                           ;C:\Program Files (x86)\Microchip\xc8\v2.05\pic\sources\c99\common\doprnt.c: 684:       
      +                            prec = -1;
  7257  001F5C  69F0               	setf	_prec& (0+255),b
  7258  001F5E  69F1               	setf	(_prec+1)& (0+255),b
  7259                           
  7260                           ; BSR set to: 0
  7261                           ;C:\Program Files (x86)\Microchip\xc8\v2.05\pic\sources\c99\common\doprnt.c: 740:       
      +                            if ((*fmt)[0] == '.') {
  7262  001F60  C042  FFD9         	movff	vfpfcnvrt@fmt,fsr2l
  7263  001F64  C043  FFDA         	movff	vfpfcnvrt@fmt+1,fsr2h
  7264  001F68  CFDE FFF6          	movff	postinc2,tblptrl
  7265  001F6C  CFDD FFF7          	movff	postdec2,tblptrh
  7266  001F70                     	if	0	;tblptru may be non-zero
  7267  001F70                     	endif
  7268  001F70                     	if	0	;tblptru may be non-zero
  7269  001F70                     	endif
  7270  001F70  0008               	tblrd		*
  7271  001F72  50F5               	movf	tablat,w,c
  7272  001F74  0A2E               	xorlw	46
  7273  001F76  A4D8               	btfss	status,2,c
  7274  001F78  D06D               	goto	u5980
  7275                           
  7276                           ; BSR set to: 0
  7277                           ;C:\Program Files (x86)\Microchip\xc8\v2.05\pic\sources\c99\common\doprnt.c: 741:       
      +                                prec = 0;
  7278  001F7A  0E00               	movlw	0
  7279  001F7C  6FF1               	movwf	(_prec+1)& (0+255),b
  7280  001F7E  0E00               	movlw	0
  7281  001F80  6FF0               	movwf	_prec& (0+255),b
  7282                           
  7283                           ; BSR set to: 0
  7284                           ;C:\Program Files (x86)\Microchip\xc8\v2.05\pic\sources\c99\common\doprnt.c: 742:       
      +                                ++*fmt;
  7285  001F82  C042  FFD9         	movff	vfpfcnvrt@fmt,fsr2l
  7286  001F86  C043  FFDA         	movff	vfpfcnvrt@fmt+1,fsr2h
  7287  001F8A  2ADE               	incf	postinc2,f,c
  7288  001F8C  0E00               	movlw	0
  7289  001F8E  22DD               	addwfc	postdec2,f,c
  7290                           
  7291                           ; BSR set to: 0
  7292                           ;C:\Program Files (x86)\Microchip\xc8\v2.05\pic\sources\c99\common\doprnt.c: 743:       
      +                                if ((*fmt)[0] == '*') {
  7293  001F90  C042  FFD9         	movff	vfpfcnvrt@fmt,fsr2l
  7294  001F94  C043  FFDA         	movff	vfpfcnvrt@fmt+1,fsr2h
  7295  001F98  CFDE FFF6          	movff	postinc2,tblptrl
  7296  001F9C  CFDD FFF7          	movff	postdec2,tblptrh
  7297  001FA0                     	if	0	;tblptru may be non-zero
  7298  001FA0                     	endif
  7299  001FA0                     	if	0	;tblptru may be non-zero
  7300  001FA0                     	endif
  7301  001FA0  0008               	tblrd		*
  7302  001FA2  50F5               	movf	tablat,w,c
  7303  001FA4  0A2A               	xorlw	42
  7304  001FA6  A4D8               	btfss	status,2,c
  7305  001FA8  D01C               	goto	l5594
  7306                           
  7307                           ; BSR set to: 0
  7308                           ;C:\Program Files (x86)\Microchip\xc8\v2.05\pic\sources\c99\common\doprnt.c: 744:       
      +                                    ++*fmt;
  7309  001FAA  C042  FFD9         	movff	vfpfcnvrt@fmt,fsr2l
  7310  001FAE  C043  FFDA         	movff	vfpfcnvrt@fmt+1,fsr2h
  7311  001FB2  2ADE               	incf	postinc2,f,c
  7312  001FB4  0E00               	movlw	0
  7313  001FB6  22DD               	addwfc	postdec2,f,c
  7314                           
  7315                           ;C:\Program Files (x86)\Microchip\xc8\v2.05\pic\sources\c99\common\doprnt.c: 745:       
      +                                    prec = (*(int *)__va_arg(*(int **)ap, (int)0));
  7316  001FB8  C044  FFD9         	movff	vfpfcnvrt@ap,fsr2l
  7317  001FBC  C045  FFDA         	movff	vfpfcnvrt@ap+1,fsr2h
  7318  001FC0  CFDF F046          	movff	indf2,??_vfpfcnvrt
  7319  001FC4  0E02               	movlw	2
  7320  001FC6  26DE               	addwf	postinc2,f,c
  7321  001FC8  CFDF F047          	movff	indf2,??_vfpfcnvrt+1
  7322  001FCC  0E00               	movlw	0
  7323  001FCE  22DD               	addwfc	postdec2,f,c
  7324  001FD0  C046  FFD9         	movff	??_vfpfcnvrt,fsr2l
  7325  001FD4  C047  FFDA         	movff	??_vfpfcnvrt+1,fsr2h
  7326  001FD8  CFDE F0F0          	movff	postinc2,_prec
  7327  001FDC  CFDD F0F1          	movff	postdec2,_prec+1
  7328                           
  7329                           ;C:\Program Files (x86)\Microchip\xc8\v2.05\pic\sources\c99\common\doprnt.c: 746:       
      +                                } else {
  7330  001FE0  D039               	goto	u5980
  7331  001FE2                     l5594:
  7332                           
  7333                           ; BSR set to: 0
  7334                           ;C:\Program Files (x86)\Microchip\xc8\v2.05\pic\sources\c99\common\doprnt.c: 747:       
      +                                    prec = atoi(*fmt);
  7335  001FE2  C042  FFD9         	movff	vfpfcnvrt@fmt,fsr2l
  7336  001FE6  C043  FFDA         	movff	vfpfcnvrt@fmt+1,fsr2h
  7337  001FEA  CFDE F008          	movff	postinc2,atoi@s
  7338  001FEE  CFDD F009          	movff	postdec2,atoi@s+1
  7339  001FF2  EC64  F01C         	call	_atoi	;wreg free
  7340  001FF6  C008  F0F0         	movff	?_atoi,_prec
  7341  001FFA  C009  F0F1         	movff	?_atoi+1,_prec+1
  7342                           
  7343                           ;C:\Program Files (x86)\Microchip\xc8\v2.05\pic\sources\c99\common\doprnt.c: 748:       
      +                                    while ((0 ? isdigit((*fmt)[0]) : ((unsigned)((*fmt)[0])-'0') < 10)) {
  7344  001FFE  D007               	goto	l5598
  7345  002000                     l5596:
  7346                           
  7347                           ;C:\Program Files (x86)\Microchip\xc8\v2.05\pic\sources\c99\common\doprnt.c: 749:       
      +                                        ++*fmt;
  7348  002000  C042  FFD9         	movff	vfpfcnvrt@fmt,fsr2l
  7349  002004  C043  FFDA         	movff	vfpfcnvrt@fmt+1,fsr2h
  7350  002008  2ADE               	incf	postinc2,f,c
  7351  00200A  0E00               	movlw	0
  7352  00200C  22DD               	addwfc	postdec2,f,c
  7353  00200E                     l5598:
  7354  00200E  0ED0               	movlw	208
  7355  002010  6E46               	movwf	??_vfpfcnvrt& (0+255),c
  7356  002012  0EFF               	movlw	255
  7357  002014  6E47               	movwf	(??_vfpfcnvrt+1)& (0+255),c
  7358  002016  C042  FFD9         	movff	vfpfcnvrt@fmt,fsr2l
  7359  00201A  C043  FFDA         	movff	vfpfcnvrt@fmt+1,fsr2h
  7360  00201E  CFDE FFF6          	movff	postinc2,tblptrl
  7361  002022  CFDD FFF7          	movff	postdec2,tblptrh
  7362  002026                     	if	0	;tblptru may be non-zero
  7363  002026                     	endif
  7364  002026                     	if	0	;tblptru may be non-zero
  7365  002026                     	endif
  7366  002026  0008               	tblrd		*
  7367  002028  50F5               	movf	tablat,w,c
  7368  00202A  6E48               	movwf	(??_vfpfcnvrt+2)& (0+255),c
  7369  00202C  6A49               	clrf	(??_vfpfcnvrt+3)& (0+255),c
  7370  00202E  5046               	movf	??_vfpfcnvrt,w,c
  7371  002030  2648               	addwf	??_vfpfcnvrt+2,f,c
  7372  002032  5047               	movf	??_vfpfcnvrt+1,w,c
  7373  002034  2249               	addwfc	??_vfpfcnvrt+3,f,c
  7374  002036  5049               	movf	??_vfpfcnvrt+3,w,c
  7375  002038  E106               	bnz	u5960
  7376  00203A  0E0A               	movlw	10
  7377  00203C  5C48               	subwf	??_vfpfcnvrt+2,w,c
  7378  00203E  B0D8               	btfsc	status,0,c
  7379  002040  D002               	goto	u5960
  7380  002042  0E01               	movlw	1
  7381  002044  D001               	goto	u5970
  7382  002046                     u5960:
  7383  002046  0E00               	movlw	0
  7384  002048                     u5970:
  7385  002048  6E52               	movwf	_vfpfcnvrt$1118,c
  7386  00204A  6A53               	clrf	_vfpfcnvrt$1118+1,c
  7387  00204C  5052               	movf	_vfpfcnvrt$1118,w,c
  7388  00204E  1053               	iorwf	_vfpfcnvrt$1118+1,w,c
  7389  002050  A4D8               	btfss	status,2,c
  7390  002052  D7D6               	goto	l5596
  7391  002054                     u5980:
  7392                           
  7393                           ;C:\Program Files (x86)\Microchip\xc8\v2.05\pic\sources\c99\common\doprnt.c: 757:       
      +                            ct[0] = tolower((int)(*fmt)[0]);
  7394  002054  C042  FFD9         	movff	vfpfcnvrt@fmt,fsr2l
  7395  002058  C043  FFDA         	movff	vfpfcnvrt@fmt+1,fsr2h
  7396  00205C  CFDE FFF6          	movff	postinc2,tblptrl
  7397  002060  CFDD FFF7          	movff	postdec2,tblptrh
  7398  002064                     	if	0	;tblptru may be non-zero
  7399  002064                     	endif
  7400  002064                     	if	0	;tblptru may be non-zero
  7401  002064                     	endif
  7402  002064  0008               	tblrd		*
  7403  002066  50F5               	movf	tablat,w,c
  7404  002068  6E07               	movwf	tolower@c,c
  7405  00206A  6A08               	clrf	tolower@c+1,c
  7406  00206C  EC8B  F024         	call	_tolower	;wreg free
  7407  002070  5007               	movf	?_tolower,w,c
  7408  002072  6E5A               	movwf	vfpfcnvrt@ct,c
  7409                           
  7410                           ;C:\Program Files (x86)\Microchip\xc8\v2.05\pic\sources\c99\common\doprnt.c: 758:       
      +                            if (ct[0]) {
  7411  002074  505A               	movf	vfpfcnvrt@ct,w,c
  7412  002076  B4D8               	btfsc	status,2,c
  7413  002078  D033               	goto	l5614
  7414                           
  7415                           ;C:\Program Files (x86)\Microchip\xc8\v2.05\pic\sources\c99\common\doprnt.c: 759:       
      +                                ct[1] = tolower((int)(*fmt)[1]);
  7416  00207A  C042  FFD9         	movff	vfpfcnvrt@fmt,fsr2l
  7417  00207E  C043  FFDA         	movff	vfpfcnvrt@fmt+1,fsr2h
  7418  002082  CFDE F046          	movff	postinc2,??_vfpfcnvrt
  7419  002086  CFDD F047          	movff	postdec2,??_vfpfcnvrt+1
  7420  00208A  0E01               	movlw	1
  7421  00208C  2646               	addwf	??_vfpfcnvrt,f,c
  7422  00208E  0E00               	movlw	0
  7423  002090  2247               	addwfc	??_vfpfcnvrt+1,f,c
  7424  002092  C046  FFF6         	movff	??_vfpfcnvrt,tblptrl
  7425  002096  C047  FFF7         	movff	??_vfpfcnvrt+1,tblptrh
  7426  00209A                     	if	0	;tblptru may be non-zero
  7427  00209A                     	endif
  7428  00209A                     	if	0	;tblptru may be non-zero
  7429  00209A                     	endif
  7430  00209A  0008               	tblrd		*
  7431  00209C  50F5               	movf	tablat,w,c
  7432  00209E  6E07               	movwf	tolower@c,c
  7433  0020A0  6A08               	clrf	tolower@c+1,c
  7434  0020A2  EC8B  F024         	call	_tolower	;wreg free
  7435  0020A6  5007               	movf	?_tolower,w,c
  7436  0020A8  6E5B               	movwf	vfpfcnvrt@ct+1,c
  7437                           
  7438                           ;C:\Program Files (x86)\Microchip\xc8\v2.05\pic\sources\c99\common\doprnt.c: 760:       
      +                                if (ct[1]) {
  7439  0020AA  505B               	movf	vfpfcnvrt@ct+1,w,c
  7440  0020AC  B4D8               	btfsc	status,2,c
  7441  0020AE  D018               	goto	l5614
  7442                           
  7443                           ;C:\Program Files (x86)\Microchip\xc8\v2.05\pic\sources\c99\common\doprnt.c: 761:       
      +                                    ct[2] = tolower((int)(*fmt)[2]);
  7444  0020B0  C042  FFD9         	movff	vfpfcnvrt@fmt,fsr2l
  7445  0020B4  C043  FFDA         	movff	vfpfcnvrt@fmt+1,fsr2h
  7446  0020B8  CFDE F046          	movff	postinc2,??_vfpfcnvrt
  7447  0020BC  CFDD F047          	movff	postdec2,??_vfpfcnvrt+1
  7448  0020C0  0E02               	movlw	2
  7449  0020C2  2646               	addwf	??_vfpfcnvrt,f,c
  7450  0020C4  0E00               	movlw	0
  7451  0020C6  2247               	addwfc	??_vfpfcnvrt+1,f,c
  7452  0020C8  C046  FFF6         	movff	??_vfpfcnvrt,tblptrl
  7453  0020CC  C047  FFF7         	movff	??_vfpfcnvrt+1,tblptrh
  7454  0020D0                     	if	0	;tblptru may be non-zero
  7455  0020D0                     	endif
  7456  0020D0                     	if	0	;tblptru may be non-zero
  7457  0020D0                     	endif
  7458  0020D0  0008               	tblrd		*
  7459  0020D2  50F5               	movf	tablat,w,c
  7460  0020D4  6E07               	movwf	tolower@c,c
  7461  0020D6  6A08               	clrf	tolower@c+1,c
  7462  0020D8  EC8B  F024         	call	_tolower	;wreg free
  7463  0020DC  5007               	movf	?_tolower,w,c
  7464  0020DE  6E5C               	movwf	vfpfcnvrt@ct+2,c
  7465  0020E0                     l5614:
  7466                           
  7467                           ;C:\Program Files (x86)\Microchip\xc8\v2.05\pic\sources\c99\common\doprnt.c: 792:       
      +                            if (*fmt[0] == 'c') {
  7468  0020E0  C042  FFD9         	movff	vfpfcnvrt@fmt,fsr2l
  7469  0020E4  C043  FFDA         	movff	vfpfcnvrt@fmt+1,fsr2h
  7470  0020E8  CFDE FFF6          	movff	postinc2,tblptrl
  7471  0020EC  CFDD FFF7          	movff	postdec2,tblptrh
  7472  0020F0                     	if	0	;tblptru may be non-zero
  7473  0020F0                     	endif
  7474  0020F0                     	if	0	;tblptru may be non-zero
  7475  0020F0                     	endif
  7476  0020F0  0008               	tblrd		*
  7477  0020F2  50F5               	movf	tablat,w,c
  7478  0020F4  0A63               	xorlw	99
  7479  0020F6  A4D8               	btfss	status,2,c
  7480  0020F8  D026               	goto	l5622
  7481                           
  7482                           ;C:\Program Files (x86)\Microchip\xc8\v2.05\pic\sources\c99\common\doprnt.c: 793:       
      +                                ++*fmt;
  7483  0020FA  C042  FFD9         	movff	vfpfcnvrt@fmt,fsr2l
  7484  0020FE  C043  FFDA         	movff	vfpfcnvrt@fmt+1,fsr2h
  7485  002102  2ADE               	incf	postinc2,f,c
  7486  002104  0E00               	movlw	0
  7487  002106  22DD               	addwfc	postdec2,f,c
  7488                           
  7489                           ;C:\Program Files (x86)\Microchip\xc8\v2.05\pic\sources\c99\common\doprnt.c: 794:       
      +                                c = (unsigned char)(*(int *)__va_arg(*(int **)ap, (int)0));
  7490  002108  C044  FFD9         	movff	vfpfcnvrt@ap,fsr2l
  7491  00210C  C045  FFDA         	movff	vfpfcnvrt@ap+1,fsr2h
  7492  002110  CFDF F046          	movff	indf2,??_vfpfcnvrt
  7493  002114  0E02               	movlw	2
  7494  002116  26DE               	addwf	postinc2,f,c
  7495  002118  CFDF F047          	movff	indf2,??_vfpfcnvrt+1
  7496  00211C  0E00               	movlw	0
  7497  00211E  22DD               	addwfc	postdec2,f,c
  7498  002120  C046  FFD9         	movff	??_vfpfcnvrt,fsr2l
  7499  002124  C047  FFDA         	movff	??_vfpfcnvrt+1,fsr2h
  7500  002128  50DF               	movf	indf2,w,c
  7501  00212A  6E5D               	movwf	vfpfcnvrt@c,c
  7502                           
  7503                           ;C:\Program Files (x86)\Microchip\xc8\v2.05\pic\sources\c99\common\doprnt.c: 795:       
      +                                return ctoa(fp, c);
  7504  00212C  C040  F01C         	movff	vfpfcnvrt@fp,ctoa@fp
  7505  002130  C041  F01D         	movff	vfpfcnvrt@fp+1,ctoa@fp+1
  7506  002134  C05D  F01E         	movff	vfpfcnvrt@c,ctoa@c
  7507  002138  EC63  F024         	call	_ctoa	;wreg free
  7508  00213C  C01C  F040         	movff	?_ctoa,?_vfpfcnvrt
  7509  002140  C01D  F041         	movff	?_ctoa+1,?_vfpfcnvrt+1
  7510  002144  0012               	return	
  7511  002146                     l5622:
  7512                           
  7513                           ;C:\Program Files (x86)\Microchip\xc8\v2.05\pic\sources\c99\common\doprnt.c: 825:       
      +                            if ((*fmt[0] == 'd') || (*fmt[0] == 'i')) {
  7514  002146  C042  FFD9         	movff	vfpfcnvrt@fmt,fsr2l
  7515  00214A  C043  FFDA         	movff	vfpfcnvrt@fmt+1,fsr2h
  7516  00214E  CFDE FFF6          	movff	postinc2,tblptrl
  7517  002152  CFDD FFF7          	movff	postdec2,tblptrh
  7518  002156                     	if	0	;tblptru may be non-zero
  7519  002156                     	endif
  7520  002156                     	if	0	;tblptru may be non-zero
  7521  002156                     	endif
  7522  002156  0008               	tblrd		*
  7523  002158  50F5               	movf	tablat,w,c
  7524  00215A  0A64               	xorlw	100
  7525  00215C  B4D8               	btfsc	status,2,c
  7526  00215E  D00D               	goto	u6030
  7527  002160  C042  FFD9         	movff	vfpfcnvrt@fmt,fsr2l
  7528  002164  C043  FFDA         	movff	vfpfcnvrt@fmt+1,fsr2h
  7529  002168  CFDE FFF6          	movff	postinc2,tblptrl
  7530  00216C  CFDD FFF7          	movff	postdec2,tblptrh
  7531  002170                     	if	0	;tblptru may be non-zero
  7532  002170                     	endif
  7533  002170                     	if	0	;tblptru may be non-zero
  7534  002170                     	endif
  7535  002170  0008               	tblrd		*
  7536  002172  50F5               	movf	tablat,w,c
  7537  002174  0A69               	xorlw	105
  7538  002176  A4D8               	btfss	status,2,c
  7539  002178  D03F               	goto	l5632
  7540  00217A                     u6030:
  7541                           
  7542                           ;C:\Program Files (x86)\Microchip\xc8\v2.05\pic\sources\c99\common\doprnt.c: 827:       
      +                                ++*fmt;
  7543  00217A  C042  FFD9         	movff	vfpfcnvrt@fmt,fsr2l
  7544  00217E  C043  FFDA         	movff	vfpfcnvrt@fmt+1,fsr2h
  7545  002182  2ADE               	incf	postinc2,f,c
  7546  002184  0E00               	movlw	0
  7547  002186  22DD               	addwfc	postdec2,f,c
  7548                           
  7549                           ;C:\Program Files (x86)\Microchip\xc8\v2.05\pic\sources\c99\common\doprnt.c: 828:       
      +                                ll = (long long)(*(int *)__va_arg(*(int **)ap, (int)0));
  7550  002188  C044  FFD9         	movff	vfpfcnvrt@ap,fsr2l
  7551  00218C  C045  FFDA         	movff	vfpfcnvrt@ap+1,fsr2h
  7552  002190  CFDF F046          	movff	indf2,??_vfpfcnvrt
  7553  002194  0E02               	movlw	2
  7554  002196  26DE               	addwf	postinc2,f,c
  7555  002198  CFDF F047          	movff	indf2,??_vfpfcnvrt+1
  7556  00219C  0E00               	movlw	0
  7557  00219E  22DD               	addwfc	postdec2,f,c
  7558  0021A0  C046  FFD9         	movff	??_vfpfcnvrt,fsr2l
  7559  0021A4  C047  FFDA         	movff	??_vfpfcnvrt+1,fsr2h
  7560  0021A8  CFDE F04A          	movff	postinc2,vfpfcnvrt@ll
  7561  0021AC  CFDD F04B          	movff	postdec2,vfpfcnvrt@ll+1
  7562  0021B0  0E00               	movlw	0
  7563  0021B2  BE4B               	btfsc	vfpfcnvrt@ll+1,7,c
  7564  0021B4  0EFF               	movlw	-1
  7565  0021B6  6E4C               	movwf	vfpfcnvrt@ll+2,c
  7566  0021B8  6E4D               	movwf	vfpfcnvrt@ll+3,c
  7567  0021BA  6E4E               	movwf	vfpfcnvrt@ll+4,c
  7568  0021BC  6E4F               	movwf	vfpfcnvrt@ll+5,c
  7569  0021BE  6E50               	movwf	vfpfcnvrt@ll+6,c
  7570  0021C0  6E51               	movwf	vfpfcnvrt@ll+7,c
  7571                           
  7572                           ;C:\Program Files (x86)\Microchip\xc8\v2.05\pic\sources\c99\common\doprnt.c: 830:       
      +                                return dtoa(fp, ll);
  7573  0021C2  C040  F01C         	movff	vfpfcnvrt@fp,dtoa@fp
  7574  0021C6  C041  F01D         	movff	vfpfcnvrt@fp+1,dtoa@fp+1
  7575  0021CA  C04A  F01E         	movff	vfpfcnvrt@ll,dtoa@d
  7576  0021CE  C04B  F01F         	movff	vfpfcnvrt@ll+1,dtoa@d+1
  7577  0021D2  C04C  F020         	movff	vfpfcnvrt@ll+2,dtoa@d+2
  7578  0021D6  C04D  F021         	movff	vfpfcnvrt@ll+3,dtoa@d+3
  7579  0021DA  C04E  F022         	movff	vfpfcnvrt@ll+4,dtoa@d+4
  7580  0021DE  C04F  F023         	movff	vfpfcnvrt@ll+5,dtoa@d+5
  7581  0021E2  C050  F024         	movff	vfpfcnvrt@ll+6,dtoa@d+6
  7582  0021E6  C051  F025         	movff	vfpfcnvrt@ll+7,dtoa@d+7
  7583  0021EA  EC78  F018         	call	_dtoa	;wreg free
  7584  0021EE  C01C  F040         	movff	?_dtoa,?_vfpfcnvrt
  7585  0021F2  C01D  F041         	movff	?_dtoa+1,?_vfpfcnvrt+1
  7586  0021F6  0012               	return	
  7587  0021F8                     l5632:
  7588                           
  7589                           ;C:\Program Files (x86)\Microchip\xc8\v2.05\pic\sources\c99\common\doprnt.c: 920:       
      +                            if (ct[0] == 'f') {
  7590  0021F8  0E66               	movlw	102
  7591  0021FA  185A               	xorwf	vfpfcnvrt@ct,w,c
  7592  0021FC  A4D8               	btfss	status,2,c
  7593  0021FE  D03F               	goto	l5644
  7594                           
  7595                           ;C:\Program Files (x86)\Microchip\xc8\v2.05\pic\sources\c99\common\doprnt.c: 922:       
      +                                c = (*fmt)[0];
  7596  002200  C042  FFD9         	movff	vfpfcnvrt@fmt,fsr2l
  7597  002204  C043  FFDA         	movff	vfpfcnvrt@fmt+1,fsr2h
  7598  002208  CFDE FFF6          	movff	postinc2,tblptrl
  7599  00220C  CFDD FFF7          	movff	postdec2,tblptrh
  7600  002210                     	if	0	;tblptru may be non-zero
  7601  002210                     	endif
  7602  002210                     	if	0	;tblptru may be non-zero
  7603  002210                     	endif
  7604  002210  0008               	tblrd		*
  7605  002212  CFF5 F05D          	movff	tablat,vfpfcnvrt@c
  7606                           
  7607                           ;C:\Program Files (x86)\Microchip\xc8\v2.05\pic\sources\c99\common\doprnt.c: 923:       
      +                                ++*fmt;
  7608  002216  C042  FFD9         	movff	vfpfcnvrt@fmt,fsr2l
  7609  00221A  C043  FFDA         	movff	vfpfcnvrt@fmt+1,fsr2h
  7610  00221E  2ADE               	incf	postinc2,f,c
  7611  002220  0E00               	movlw	0
  7612  002222  22DD               	addwfc	postdec2,f,c
  7613                           
  7614                           ;C:\Program Files (x86)\Microchip\xc8\v2.05\pic\sources\c99\common\doprnt.c: 924:       
      +                                f = (long double)(*(double *)__va_arg(*(double **)ap, (double)0));
  7615  002224  C044  FFD9         	movff	vfpfcnvrt@ap,fsr2l
  7616  002228  C045  FFDA         	movff	vfpfcnvrt@ap+1,fsr2h
  7617  00222C  CFDF F046          	movff	indf2,??_vfpfcnvrt
  7618  002230  0E04               	movlw	4
  7619  002232  26DE               	addwf	postinc2,f,c
  7620  002234  CFDF F047          	movff	indf2,??_vfpfcnvrt+1
  7621  002238  0E00               	movlw	0
  7622  00223A  22DD               	addwfc	postdec2,f,c
  7623  00223C  C046  FFD9         	movff	??_vfpfcnvrt,fsr2l
  7624  002240  C047  FFDA         	movff	??_vfpfcnvrt+1,fsr2h
  7625  002244  CFDE F056          	movff	postinc2,vfpfcnvrt@f
  7626  002248  CFDE F057          	movff	postinc2,vfpfcnvrt@f+1
  7627  00224C  CFDE F058          	movff	postinc2,vfpfcnvrt@f+2
  7628  002250  CFDE F059          	movff	postinc2,vfpfcnvrt@f+3
  7629  002254                     l5640:
  7630                           
  7631                           ;C:\Program Files (x86)\Microchip\xc8\v2.05\pic\sources\c99\common\doprnt.c: 926:       
      +                                return efgtoa(fp, f, c);
  7632  002254  C040  F032         	movff	vfpfcnvrt@fp,efgtoa@fp
  7633  002258  C041  F033         	movff	vfpfcnvrt@fp+1,efgtoa@fp+1
  7634  00225C  C056  F034         	movff	vfpfcnvrt@f,efgtoa@f
  7635  002260  C057  F035         	movff	vfpfcnvrt@f+1,efgtoa@f+1
  7636  002264  C058  F036         	movff	vfpfcnvrt@f+2,efgtoa@f+2
  7637  002268  C059  F037         	movff	vfpfcnvrt@f+3,efgtoa@f+3
  7638  00226C  C05D  F038         	movff	vfpfcnvrt@c,efgtoa@c
  7639  002270  EC6A  F008         	call	_efgtoa	;wreg free
  7640  002274  C032  F040         	movff	?_efgtoa,?_vfpfcnvrt
  7641  002278  C033  F041         	movff	?_efgtoa+1,?_vfpfcnvrt+1
  7642  00227C  0012               	return	
  7643  00227E                     l5644:
  7644                           
  7645                           ;C:\Program Files (x86)\Microchip\xc8\v2.05\pic\sources\c99\common\doprnt.c: 928:       
      +                            if (!strncmp(ct, "lf", ((sizeof("lf")/sizeof("lf"[0]))-1))) {
  7646  00227E  0E5A               	movlw	low vfpfcnvrt@ct
  7647  002280  6E01               	movwf	strncmp@_l,c
  7648  002282  0E00               	movlw	high vfpfcnvrt@ct
  7649  002284  6E02               	movwf	strncmp@_l+1,c
  7650  002286  0EFC               	movlw	low STR_108
  7651  002288  6E03               	movwf	strncmp@_r,c
  7652  00228A  0E7F               	movlw	high STR_108
  7653  00228C  6E04               	movwf	strncmp@_r+1,c
  7654  00228E  0E00               	movlw	0
  7655  002290  6E06               	movwf	strncmp@n+1,c
  7656  002292  0E02               	movlw	2
  7657  002294  6E05               	movwf	strncmp@n,c
  7658  002296  EC29  F021         	call	_strncmp	;wreg free
  7659  00229A  5001               	movf	?_strncmp,w,c
  7660  00229C  1002               	iorwf	?_strncmp+1,w,c
  7661  00229E  A4D8               	btfss	status,2,c
  7662  0022A0  D055               	goto	l5660
  7663                           
  7664                           ;C:\Program Files (x86)\Microchip\xc8\v2.05\pic\sources\c99\common\doprnt.c: 931:       
      +                                if ((0 ? isupper((int)(*fmt)[0]) : ((unsigned)((int)(*fmt)[0])-'A') < 26)) {
  7665  0022A2  C042  FFD9         	movff	vfpfcnvrt@fmt,fsr2l
  7666  0022A6  C043  FFDA         	movff	vfpfcnvrt@fmt+1,fsr2h
  7667  0022AA  CFDE F046          	movff	postinc2,??_vfpfcnvrt
  7668  0022AE  CFDD F047          	movff	postdec2,??_vfpfcnvrt+1
  7669  0022B2  0E01               	movlw	1
  7670  0022B4  2646               	addwf	??_vfpfcnvrt,f,c
  7671  0022B6  0E00               	movlw	0
  7672  0022B8  2247               	addwfc	??_vfpfcnvrt+1,f,c
  7673  0022BA  C046  FFF6         	movff	??_vfpfcnvrt,tblptrl
  7674  0022BE  C047  FFF7         	movff	??_vfpfcnvrt+1,tblptrh
  7675  0022C2                     	if	0	;tblptru may be non-zero
  7676  0022C2                     	endif
  7677  0022C2                     	if	0	;tblptru may be non-zero
  7678  0022C2                     	endif
  7679  0022C2  0008               	tblrd		*
  7680  0022C4  CFF5 F05D          	movff	tablat,vfpfcnvrt@c
  7681  0022C8  0EBF               	movlw	191
  7682  0022CA  6E46               	movwf	??_vfpfcnvrt& (0+255),c
  7683  0022CC  0EFF               	movlw	255
  7684  0022CE  6E47               	movwf	(??_vfpfcnvrt+1)& (0+255),c
  7685  0022D0  C042  FFD9         	movff	vfpfcnvrt@fmt,fsr2l
  7686  0022D4  C043  FFDA         	movff	vfpfcnvrt@fmt+1,fsr2h
  7687  0022D8  CFDE FFF6          	movff	postinc2,tblptrl
  7688  0022DC  CFDD FFF7          	movff	postdec2,tblptrh
  7689  0022E0                     	if	0	;tblptru may be non-zero
  7690  0022E0                     	endif
  7691  0022E0                     	if	0	;tblptru may be non-zero
  7692  0022E0                     	endif
  7693  0022E0  0008               	tblrd		*
  7694  0022E2  50F5               	movf	tablat,w,c
  7695  0022E4  6E48               	movwf	(??_vfpfcnvrt+2)& (0+255),c
  7696  0022E6  6A49               	clrf	(??_vfpfcnvrt+3)& (0+255),c
  7697  0022E8  5046               	movf	??_vfpfcnvrt,w,c
  7698  0022EA  2648               	addwf	??_vfpfcnvrt+2,f,c
  7699  0022EC  5047               	movf	??_vfpfcnvrt+1,w,c
  7700  0022EE  2249               	addwfc	??_vfpfcnvrt+3,f,c
  7701  0022F0  5049               	movf	??_vfpfcnvrt+3,w,c
  7702  0022F2  E106               	bnz	u6060
  7703  0022F4  0E1A               	movlw	26
  7704  0022F6  5C48               	subwf	??_vfpfcnvrt+2,w,c
  7705  0022F8  B0D8               	btfsc	status,0,c
  7706  0022FA  D002               	goto	u6060
  7707  0022FC  0E01               	movlw	1
  7708  0022FE  D001               	goto	u6070
  7709  002300                     u6060:
  7710  002300  0E00               	movlw	0
  7711  002302                     u6070:
  7712  002302  6E54               	movwf	_vfpfcnvrt$1124,c
  7713  002304  6A55               	clrf	_vfpfcnvrt$1124+1,c
  7714  002306  5054               	movf	_vfpfcnvrt$1124,w,c
  7715  002308  1055               	iorwf	_vfpfcnvrt$1124+1,w,c
  7716                           
  7717                           ;C:\Program Files (x86)\Microchip\xc8\v2.05\pic\sources\c99\common\doprnt.c: 934:       
      +                                    f = (long double)(*(double *)__va_arg(*(double **)ap, (double)0));
  7718                           
  7719                           ;C:\Program Files (x86)\Microchip\xc8\v2.05\pic\sources\c99\common\doprnt.c: 933:       
      +                                } else {
  7720                           
  7721                           ;C:\Program Files (x86)\Microchip\xc8\v2.05\pic\sources\c99\common\doprnt.c: 932:       
      +                                    f = (*(long double *)__va_arg(*(long double **)ap, (long double)0));
  7722  00230A  C044  FFD9         	movff	vfpfcnvrt@ap,fsr2l
  7723  00230E  C045  FFDA         	movff	vfpfcnvrt@ap+1,fsr2h
  7724  002312  CFDF F046          	movff	indf2,??_vfpfcnvrt
  7725  002316  0E04               	movlw	4
  7726  002318  26DE               	addwf	postinc2,f,c
  7727  00231A  CFDF F047          	movff	indf2,??_vfpfcnvrt+1
  7728  00231E  0E00               	movlw	0
  7729  002320  22DD               	addwfc	postdec2,f,c
  7730  002322  C046  FFD9         	movff	??_vfpfcnvrt,fsr2l
  7731  002326  C047  FFDA         	movff	??_vfpfcnvrt+1,fsr2h
  7732  00232A  CFDE F056          	movff	postinc2,vfpfcnvrt@f
  7733  00232E  CFDE F057          	movff	postinc2,vfpfcnvrt@f+1
  7734  002332  CFDE F058          	movff	postinc2,vfpfcnvrt@f+2
  7735  002336  CFDE F059          	movff	postinc2,vfpfcnvrt@f+3
  7736                           
  7737                           ;C:\Program Files (x86)\Microchip\xc8\v2.05\pic\sources\c99\common\doprnt.c: 936:       
      +                                *fmt += ((sizeof("lf")/sizeof("lf"[0]))-1);
  7738                           
  7739                           ;C:\Program Files (x86)\Microchip\xc8\v2.05\pic\sources\c99\common\doprnt.c: 935:       
      +                                }
  7740  00233A  0E02               	movlw	2
  7741  00233C  C042  FFD9         	movff	vfpfcnvrt@fmt,fsr2l
  7742  002340  C043  FFDA         	movff	vfpfcnvrt@fmt+1,fsr2h
  7743  002344  26DE               	addwf	postinc2,f,c
  7744  002346  0E00               	movlw	0
  7745  002348  22DD               	addwfc	postdec2,f,c
  7746  00234A  D784               	goto	l5640
  7747  00234C                     l5660:
  7748                           
  7749                           ;C:\Program Files (x86)\Microchip\xc8\v2.05\pic\sources\c99\common\doprnt.c: 1350:      
      +                             if ((*fmt)[0] == '%') {
  7750  00234C  C042  FFD9         	movff	vfpfcnvrt@fmt,fsr2l
  7751  002350  C043  FFDA         	movff	vfpfcnvrt@fmt+1,fsr2h
  7752  002354  CFDE FFF6          	movff	postinc2,tblptrl
  7753  002358  CFDD FFF7          	movff	postdec2,tblptrh
  7754  00235C                     	if	0	;tblptru may be non-zero
  7755  00235C                     	endif
  7756  00235C                     	if	0	;tblptru may be non-zero
  7757  00235C                     	endif
  7758  00235C  0008               	tblrd		*
  7759  00235E  50F5               	movf	tablat,w,c
  7760  002360  0A25               	xorlw	37
  7761  002362  A4D8               	btfss	status,2,c
  7762  002364  D016               	goto	l5670
  7763                           
  7764                           ;C:\Program Files (x86)\Microchip\xc8\v2.05\pic\sources\c99\common\doprnt.c: 1351:      
      +                                 ++*fmt;
  7765  002366  C042  FFD9         	movff	vfpfcnvrt@fmt,fsr2l
  7766  00236A  C043  FFDA         	movff	vfpfcnvrt@fmt+1,fsr2h
  7767  00236E  2ADE               	incf	postinc2,f,c
  7768  002370  0E00               	movlw	0
  7769  002372  22DD               	addwfc	postdec2,f,c
  7770                           
  7771                           ;C:\Program Files (x86)\Microchip\xc8\v2.05\pic\sources\c99\common\doprnt.c: 1352:      
      +                                 fputc((int)'%', fp);
  7772  002374  0E00               	movlw	0
  7773  002376  6E02               	movwf	fputc@c+1,c
  7774  002378  0E25               	movlw	37
  7775  00237A  6E01               	movwf	fputc@c,c
  7776  00237C  C040  F003         	movff	vfpfcnvrt@fp,fputc@fp
  7777  002380  C041  F004         	movff	vfpfcnvrt@fp+1,fputc@fp+1
  7778  002384  EC7A  F021         	call	_fputc	;wreg free
  7779  002388                     l5666:
  7780                           
  7781                           ;C:\Program Files (x86)\Microchip\xc8\v2.05\pic\sources\c99\common\doprnt.c: 1353:      
      +                                 return 1;
  7782  002388  0E00               	movlw	0
  7783  00238A  6E41               	movwf	?_vfpfcnvrt+1,c
  7784  00238C  0E01               	movlw	1
  7785  00238E  6E40               	movwf	?_vfpfcnvrt,c
  7786  002390  0012               	return	
  7787  002392                     l5670:
  7788                           
  7789                           ;C:\Program Files (x86)\Microchip\xc8\v2.05\pic\sources\c99\common\doprnt.c: 1357:      
      +                             ++*fmt;
  7790  002392  C042  FFD9         	movff	vfpfcnvrt@fmt,fsr2l
  7791  002396  C043  FFDA         	movff	vfpfcnvrt@fmt+1,fsr2h
  7792  00239A  2ADE               	incf	postinc2,f,c
  7793  00239C  0E00               	movlw	0
  7794  00239E  22DD               	addwfc	postdec2,f,c
  7795                           
  7796                           ;C:\Program Files (x86)\Microchip\xc8\v2.05\pic\sources\c99\common\doprnt.c: 1358:      
      +                             return 0;
  7797  0023A0  0E00               	movlw	0
  7798  0023A2  6E41               	movwf	?_vfpfcnvrt+1,c
  7799  0023A4  0E00               	movlw	0
  7800  0023A6  6E40               	movwf	?_vfpfcnvrt,c
  7801  0023A8  0012               	return	
  7802  0023AA                     l5676:
  7803                           
  7804                           ;C:\Program Files (x86)\Microchip\xc8\v2.05\pic\sources\c99\common\doprnt.c: 1362:     f
      +                          putc((int)(*fmt)[0], fp);
  7805  0023AA  C042  FFD9         	movff	vfpfcnvrt@fmt,fsr2l
  7806  0023AE  C043  FFDA         	movff	vfpfcnvrt@fmt+1,fsr2h
  7807  0023B2  CFDE FFF6          	movff	postinc2,tblptrl
  7808  0023B6  CFDD FFF7          	movff	postdec2,tblptrh
  7809  0023BA                     	if	0	;tblptru may be non-zero
  7810  0023BA                     	endif
  7811  0023BA                     	if	0	;tblptru may be non-zero
  7812  0023BA                     	endif
  7813  0023BA  0008               	tblrd		*
  7814  0023BC  50F5               	movf	tablat,w,c
  7815  0023BE  6E01               	movwf	fputc@c,c
  7816  0023C0  6A02               	clrf	fputc@c+1,c
  7817  0023C2  C040  F003         	movff	vfpfcnvrt@fp,fputc@fp
  7818  0023C6  C041  F004         	movff	vfpfcnvrt@fp+1,fputc@fp+1
  7819  0023CA  EC7A  F021         	call	_fputc	;wreg free
  7820                           
  7821                           ;C:\Program Files (x86)\Microchip\xc8\v2.05\pic\sources\c99\common\doprnt.c: 1363:     +
      +                          +*fmt;
  7822  0023CE  C042  FFD9         	movff	vfpfcnvrt@fmt,fsr2l
  7823  0023D2  C043  FFDA         	movff	vfpfcnvrt@fmt+1,fsr2h
  7824  0023D6  2ADE               	incf	postinc2,f,c
  7825  0023D8  0E00               	movlw	0
  7826  0023DA  22DD               	addwfc	postdec2,f,c
  7827  0023DC  D7D5               	goto	l5666
  7828  0023DE                     __end_of_vfpfcnvrt:
  7829                           	opt callstack 0
  7830                           
  7831 ;; *************** function _strncmp *****************
  7832 ;; Defined at:
  7833 ;;		line 3 in file "C:\Program Files (x86)\Microchip\xc8\v2.05\pic\sources\c99\common\strncmp.c"
  7834 ;; Parameters:    Size  Location     Type
  7835 ;;  _l              2    0[COMRAM] PTR const unsigned char 
  7836 ;;		 -> vfpfcnvrt@ct(3), 
  7837 ;;  _r              2    2[COMRAM] PTR const unsigned char 
  7838 ;;		 -> STR_110(3), 
  7839 ;;  n               2    4[COMRAM] unsigned int 
  7840 ;; Auto vars:     Size  Location     Type
  7841 ;;  r               2    9[COMRAM] PTR const unsigned char 
  7842 ;;		 -> STR_110(3), 
  7843 ;;  l               2    7[COMRAM] PTR const unsigned char 
  7844 ;;		 -> vfpfcnvrt@ct(3), 
  7845 ;; Return value:  Size  Location     Type
  7846 ;;                  2    0[COMRAM] int 
  7847 ;; Registers used:
  7848 ;;		wreg, fsr2l, fsr2h, status,2, status,0, tblptrl, tblptrh, tblptru
  7849 ;; Tracked objects:
  7850 ;;		On entry : 0/0
  7851 ;;		On exit  : 0/0
  7852 ;;		Unchanged: 0/0
  7853 ;; Data sizes:     COMRAM   BANK0   BANK1   BANK2   BANK3   BANK4   BANK5   BANK6   BANK7
  7854 ;;      Params:         6       0       0       0       0       0       0       0       0
  7855 ;;      Locals:         4       0       0       0       0       0       0       0       0
  7856 ;;      Temps:          1       0       0       0       0       0       0       0       0
  7857 ;;      Totals:        11       0       0       0       0       0       0       0       0
  7858 ;;Total ram usage:       11 bytes
  7859 ;; Hardware stack levels used:    1
  7860 ;; Hardware stack levels required when called:    2
  7861 ;; This function calls:
  7862 ;;		Nothing
  7863 ;; This function is called by:
  7864 ;;		_vfpfcnvrt
  7865 ;; This function uses a non-reentrant model
  7866 ;;
  7867                           
  7868                           	psect	text9
  7869  004252                     __ptext9:
  7870                           	opt callstack 0
  7871  004252                     _strncmp:
  7872                           	opt callstack 25
  7873                           
  7874                           ;incstack = 0
  7875  004252  C001  F008         	movff	strncmp@_l,strncmp@l
  7876  004256  C002  F009         	movff	strncmp@_l+1,strncmp@l+1
  7877  00425A  C003  F00A         	movff	strncmp@_r,strncmp@r
  7878  00425E  C004  F00B         	movff	strncmp@_r+1,strncmp@r+1
  7879  004262  0605               	decf	strncmp@n,f,c
  7880  004264  A0D8               	btfss	status,0,c
  7881  004266  0606               	decf	strncmp@n+1,f,c
  7882  004268  2805               	incf	strncmp@n,w,c
  7883  00426A  E10F               	bnz	l5564
  7884  00426C  2806               	incf	strncmp@n+1,w,c
  7885  00426E  A4D8               	btfss	status,2,c
  7886  004270  D00C               	goto	l5564
  7887  004272  0E00               	movlw	0
  7888  004274  6E02               	movwf	?_strncmp+1,c
  7889  004276  0E00               	movlw	0
  7890  004278  6E01               	movwf	?_strncmp,c
  7891  00427A  0012               	return	
  7892  00427C                     l5562:
  7893  00427C  4A08               	infsnz	strncmp@l,f,c
  7894  00427E  2A09               	incf	strncmp@l+1,f,c
  7895  004280  4A0A               	infsnz	strncmp@r,f,c
  7896  004282  2A0B               	incf	strncmp@r+1,f,c
  7897  004284  0605               	decf	strncmp@n,f,c
  7898  004286  A0D8               	btfss	status,0,c
  7899  004288  0606               	decf	strncmp@n+1,f,c
  7900  00428A                     l5564:
  7901  00428A  C008  FFD9         	movff	strncmp@l,fsr2l
  7902  00428E  C009  FFDA         	movff	strncmp@l+1,fsr2h
  7903  004292  50DF               	movf	indf2,w,c
  7904  004294  B4D8               	btfsc	status,2,c
  7905  004296  D01C               	goto	u5920
  7906  004298  C00A  FFF6         	movff	strncmp@r,tblptrl
  7907  00429C  C00B  FFF7         	movff	strncmp@r+1,tblptrh
  7908  0042A0                     	if	0	;tblptru may be non-zero
  7909  0042A0                     	endif
  7910  0042A0                     	if	0	;tblptru may be non-zero
  7911  0042A0                     	endif
  7912  0042A0  0008               	tblrd		*
  7913  0042A2  50F5               	movf	tablat,w,c
  7914  0042A4  0900               	iorlw	0
  7915  0042A6  B4D8               	btfsc	status,2,c
  7916  0042A8  D013               	goto	u5920
  7917  0042AA  5005               	movf	strncmp@n,w,c
  7918  0042AC  1006               	iorwf	strncmp@n+1,w,c
  7919  0042AE  B4D8               	btfsc	status,2,c
  7920  0042B0  D00F               	goto	u5920
  7921  0042B2  C008  FFD9         	movff	strncmp@l,fsr2l
  7922  0042B6  C009  FFDA         	movff	strncmp@l+1,fsr2h
  7923  0042BA  50DF               	movf	indf2,w,c
  7924  0042BC  6E07               	movwf	??_strncmp& (0+255),c
  7925  0042BE  C00A  FFF6         	movff	strncmp@r,tblptrl
  7926  0042C2  C00B  FFF7         	movff	strncmp@r+1,tblptrh
  7927  0042C6                     	if	0	;tblptru may be non-zero
  7928  0042C6                     	endif
  7929  0042C6                     	if	0	;tblptru may be non-zero
  7930  0042C6                     	endif
  7931  0042C6  0008               	tblrd		*
  7932  0042C8  50F5               	movf	tablat,w,c
  7933  0042CA  1807               	xorwf	??_strncmp,w,c
  7934  0042CC  B4D8               	btfsc	status,2,c
  7935  0042CE  D7D6               	goto	l5562
  7936  0042D0                     u5920:
  7937  0042D0  C008  FFD9         	movff	strncmp@l,fsr2l
  7938  0042D4  C009  FFDA         	movff	strncmp@l+1,fsr2h
  7939  0042D8  50DF               	movf	indf2,w,c
  7940  0042DA  6E07               	movwf	??_strncmp& (0+255),c
  7941  0042DC  C00A  FFF6         	movff	strncmp@r,tblptrl
  7942  0042E0  C00B  FFF7         	movff	strncmp@r+1,tblptrh
  7943  0042E4                     	if	0	;tblptru may be non-zero
  7944  0042E4                     	endif
  7945  0042E4                     	if	0	;tblptru may be non-zero
  7946  0042E4                     	endif
  7947  0042E4  0008               	tblrd		*
  7948  0042E6  50F5               	movf	tablat,w,c
  7949  0042E8  5C07               	subwf	??_strncmp,w,c
  7950  0042EA  6E01               	movwf	?_strncmp,c
  7951  0042EC  6A02               	clrf	?_strncmp+1,c
  7952  0042EE  A0D8               	btfss	status,0,c
  7953  0042F0  0602               	decf	?_strncmp+1,f,c
  7954  0042F2  0012               	return		;funcret
  7955  0042F4                     __end_of_strncmp:
  7956                           	opt callstack 0
  7957                           
  7958 ;; *************** function _efgtoa *****************
  7959 ;; Defined at:
  7960 ;;		line 319 in file "C:\Program Files (x86)\Microchip\xc8\v2.05\pic\sources\c99\common\doprnt.c"
  7961 ;; Parameters:    Size  Location     Type
  7962 ;;  fp              2   49[COMRAM] PTR struct _IO_FILE
  7963 ;;		 -> sprintf@f(6), 
  7964 ;;  f               4   51[COMRAM] PTR struct _IO_FILE
  7965 ;;  c               1   55[COMRAM] unsigned char 
  7966 ;; Auto vars:     Size  Location     Type
  7967 ;;  u               4   52[BANK0 ] unsigned char 
  7968 ;;  g               4   44[BANK0 ] unsigned char 
  7969 ;;  l               4   38[BANK0 ] unsigned char 
  7970 ;;  h               4   34[BANK0 ] unsigned char 
  7971 ;;  ou              4    0[BANK0 ] unsigned char 
  7972 ;;  n               2   50[BANK0 ] int 
  7973 ;;  e               2   48[BANK0 ] int 
  7974 ;;  i               2   42[BANK0 ] int 
  7975 ;;  w               2   31[BANK0 ] int 
  7976 ;;  p               2   28[BANK0 ] int 
  7977 ;;  sign            2   26[BANK0 ] int 
  7978 ;;  d               2   24[BANK0 ] int 
  7979 ;;  ne              2   22[BANK0 ] int 
  7980 ;;  m               2   20[BANK0 ] int 
  7981 ;;  pp              2   18[BANK0 ] int 
  7982 ;;  t               2   16[BANK0 ] int 
  7983 ;;  mode            1   33[BANK0 ] unsigned char 
  7984 ;;  nmode           1   30[BANK0 ] unsigned char 
  7985 ;; Return value:  Size  Location     Type
  7986 ;;                  2   49[COMRAM] int 
  7987 ;; Registers used:
  7988 ;;		wreg, fsr1l, fsr1h, fsr2l, fsr2h, status,2, status,0, tblptrl, tblptrh, tblptru, prodl, prodh, cstack
  7989 ;; Tracked objects:
  7990 ;;		On entry : 0/0
  7991 ;;		On exit  : 0/0
  7992 ;;		Unchanged: 0/0
  7993 ;; Data sizes:     COMRAM   BANK0   BANK1   BANK2   BANK3   BANK4   BANK5   BANK6   BANK7
  7994 ;;      Params:         7       0       0       0       0       0       0       0       0
  7995 ;;      Locals:         0      56       0       0       0       0       0       0       0
  7996 ;;      Temps:          5       0       0       0       0       0       0       0       0
  7997 ;;      Totals:        12      56       0       0       0       0       0       0       0
  7998 ;;Total ram usage:       68 bytes
  7999 ;; Hardware stack levels used:    1
  8000 ;; Hardware stack levels required when called:    6
  8001 ;; This function calls:
  8002 ;;		___awdiv
  8003 ;;		___awmod
  8004 ;;		___fladd
  8005 ;;		___fldiv
  8006 ;;		___fleq
  8007 ;;		___flge
  8008 ;;		___flmul
  8009 ;;		___flneg
  8010 ;;		___flsub
  8011 ;;		___fltol
  8012 ;;		___fpclassifyf
  8013 ;;		_floorf
  8014 ;;		_isupper
  8015 ;;		_pad
  8016 ;;		_strcpy
  8017 ;;		_tolower
  8018 ;; This function is called by:
  8019 ;;		_vfpfcnvrt
  8020 ;; This function uses a non-reentrant model
  8021 ;;
  8022                           
  8023                           	psect	text10
  8024  0010D4                     __ptext10:
  8025                           	opt callstack 0
  8026  0010D4                     _efgtoa:
  8027                           	opt callstack 21
  8028                           
  8029                           ;C:\Program Files (x86)\Microchip\xc8\v2.05\pic\sources\c99\common\doprnt.c: 319: static
      +                           int efgtoa(FILE *fp, long double f, char c);C:\Program Files (x86)\Microchip\xc8\v2.05\
      +                          pic\sources\c99\common\doprnt.c: 320: {;C:\Program Files (x86)\Microchip\xc8\v2.05\pic\s
      +                          ources\c99\common\doprnt.c: 321:     char mode, nmode;;C:\Program Files (x86)\Microchip\
      +                          xc8\v2.05\pic\sources\c99\common\doprnt.c: 322:     int d, e, i, m, n, ne, p, pp, sign, 
      +                          t, w;;C:\Program Files (x86)\Microchip\xc8\v2.05\pic\sources\c99\common\doprnt.c: 323:  
      +                             long double g, h, l, ou, u;
  8030                           
  8031                           ;incstack = 0
  8032  0010D4  0E00               	movlw	0
  8033  0010D6  0100               	movlb	0	; () banked
  8034  0010D8  6F7B               	movwf	(efgtoa@sign+1)& (0+255),b
  8035  0010DA  0E00               	movlw	0
  8036  0010DC  6F7A               	movwf	efgtoa@sign& (0+255),b
  8037                           
  8038                           ; BSR set to: 0
  8039                           ;C:\Program Files (x86)\Microchip\xc8\v2.05\pic\sources\c99\common\doprnt.c: 327:     g 
      +                          = f;
  8040  0010DE  C034  F08C         	movff	efgtoa@f,efgtoa@g
  8041  0010E2  C035  F08D         	movff	efgtoa@f+1,efgtoa@g+1
  8042  0010E6  C036  F08E         	movff	efgtoa@f+2,efgtoa@g+2
  8043  0010EA  C037  F08F         	movff	efgtoa@f+3,efgtoa@g+3
  8044                           
  8045                           ; BSR set to: 0
  8046                           ;C:\Program Files (x86)\Microchip\xc8\v2.05\pic\sources\c99\common\doprnt.c: 328:     if
      +                           (g < 0.0) {
  8047  0010EE  AF8F               	btfss	(efgtoa@g+3)& (0+255),7,b
  8048  0010F0  D016               	goto	l5226
  8049                           
  8050                           ; BSR set to: 0
  8051                           ;C:\Program Files (x86)\Microchip\xc8\v2.05\pic\sources\c99\common\doprnt.c: 329:       
      +                            sign = 1;
  8052  0010F2  0E00               	movlw	0
  8053  0010F4  6F7B               	movwf	(efgtoa@sign+1)& (0+255),b
  8054  0010F6  0E01               	movlw	1
  8055  0010F8  6F7A               	movwf	efgtoa@sign& (0+255),b
  8056                           
  8057                           ; BSR set to: 0
  8058                           ;C:\Program Files (x86)\Microchip\xc8\v2.05\pic\sources\c99\common\doprnt.c: 330:       
      +                            g = -g;
  8059  0010FA  C08C  F001         	movff	efgtoa@g,___flneg@f1
  8060  0010FE  C08D  F002         	movff	efgtoa@g+1,___flneg@f1+1
  8061  001102  C08E  F003         	movff	efgtoa@g+2,___flneg@f1+2
  8062  001106  C08F  F004         	movff	efgtoa@g+3,___flneg@f1+3
  8063  00110A  EC58  F025         	call	___flneg	;wreg free
  8064  00110E  C001  F08C         	movff	?___flneg,efgtoa@g
  8065  001112  C002  F08D         	movff	?___flneg+1,efgtoa@g+1
  8066  001116  C003  F08E         	movff	?___flneg+2,efgtoa@g+2
  8067  00111A  C004  F08F         	movff	?___flneg+3,efgtoa@g+3
  8068  00111E                     l5226:
  8069                           
  8070                           ;C:\Program Files (x86)\Microchip\xc8\v2.05\pic\sources\c99\common\doprnt.c: 334:     n 
      +                          = 0;
  8071  00111E  0E00               	movlw	0
  8072  001120  0100               	movlb	0	; () banked
  8073  001122  6F93               	movwf	(efgtoa@n+1)& (0+255),b
  8074  001124  0E00               	movlw	0
  8075  001126  6F92               	movwf	efgtoa@n& (0+255),b
  8076                           
  8077                           ; BSR set to: 0
  8078                           ;C:\Program Files (x86)\Microchip\xc8\v2.05\pic\sources\c99\common\doprnt.c: 335:     w 
      +                          = width;
  8079  001128  C0EE  F07F         	movff	_width,efgtoa@w
  8080  00112C  C0EF  F080         	movff	_width+1,efgtoa@w+1
  8081                           
  8082                           ; BSR set to: 0
  8083                           ;C:\Program Files (x86)\Microchip\xc8\v2.05\pic\sources\c99\common\doprnt.c: 336:     if
      +                           (sign || (flags & (1 << 2))) {
  8084  001130  517A               	movf	efgtoa@sign& (0+255),w,b
  8085  001132  117B               	iorwf	(efgtoa@sign+1)& (0+255),w,b
  8086  001134  A4D8               	btfss	status,2,c
  8087  001136  D002               	goto	u5310
  8088                           
  8089                           ; BSR set to: 0
  8090  001138  A5F2               	btfss	_flags& (0+255),2,b
  8091  00113A  D013               	goto	l5246
  8092  00113C                     u5310:
  8093                           
  8094                           ; BSR set to: 0
  8095                           ;C:\Program Files (x86)\Microchip\xc8\v2.05\pic\sources\c99\common\doprnt.c: 337:       
      +                            dbuf[n] = sign ? '-' : '+';
  8096  00113C  517A               	movf	efgtoa@sign& (0+255),w,b
  8097  00113E  117B               	iorwf	(efgtoa@sign+1)& (0+255),w,b
  8098  001140  A4D8               	btfss	status,2,c
  8099  001142  D004               	goto	l5238
  8100                           
  8101                           ; BSR set to: 0
  8102  001144  0E00               	movlw	0
  8103  001146  6F65               	movwf	(_efgtoa$1093+1)& (0+255),b
  8104  001148  0E2B               	movlw	43
  8105  00114A  D003               	goto	L5
  8106  00114C                     l5238:
  8107                           
  8108                           ; BSR set to: 0
  8109  00114C  0E00               	movlw	0
  8110  00114E  6F65               	movwf	(_efgtoa$1093+1)& (0+255),b
  8111  001150  0E2D               	movlw	45
  8112  001152                     L5:
  8113  001152  6F64               	movwf	_efgtoa$1093& (0+255),b
  8114                           
  8115                           ; BSR set to: 0
  8116  001154  C064  F11A         	movff	_efgtoa$1093,_dbuf
  8117                           
  8118                           ; BSR set to: 0
  8119                           ;C:\Program Files (x86)\Microchip\xc8\v2.05\pic\sources\c99\common\doprnt.c: 338:       
      +                            ++n;
  8120  001158  4B92               	infsnz	efgtoa@n& (0+255),f,b
  8121  00115A  2B93               	incf	(efgtoa@n+1)& (0+255),f,b
  8122                           
  8123                           ; BSR set to: 0
  8124                           ;C:\Program Files (x86)\Microchip\xc8\v2.05\pic\sources\c99\common\doprnt.c: 339:       
      +                            --w;
  8125  00115C  077F               	decf	efgtoa@w& (0+255),f,b
  8126  00115E  A0D8               	btfss	status,0,c
  8127  001160  0780               	decf	(efgtoa@w+1)& (0+255),f,b
  8128  001162                     l5246:
  8129                           
  8130                           ; BSR set to: 0
  8131                           ;C:\Program Files (x86)\Microchip\xc8\v2.05\pic\sources\c99\common\doprnt.c: 344:       
      +                            if ((0 ? isupper((int)c) : ((unsigned)((int)c)-'A') < 26)) {
  8132  001162  C08C  F001         	movff	efgtoa@g,___fpclassifyf@x
  8133  001166  C08D  F002         	movff	efgtoa@g+1,___fpclassifyf@x+1
  8134  00116A  C08E  F003         	movff	efgtoa@g+2,___fpclassifyf@x+2
  8135  00116E  C08F  F004         	movff	efgtoa@g+3,___fpclassifyf@x+3
  8136  001172  ECA8  F01F         	call	___fpclassifyf	;wreg free
  8137  001176  0401               	decf	?___fpclassifyf,w,c
  8138  001178  1002               	iorwf	?___fpclassifyf+1,w,c
  8139  00117A  A4D8               	btfss	status,2,c
  8140  00117C  D04C               	goto	l5264
  8141  00117E  0EBF               	movlw	191
  8142  001180  6E39               	movwf	??_efgtoa& (0+255),c
  8143  001182  0EFF               	movlw	255
  8144  001184  6E3A               	movwf	(??_efgtoa+1)& (0+255),c
  8145  001186  5038               	movf	efgtoa@c,w,c
  8146  001188  6E3B               	movwf	(??_efgtoa+2)& (0+255),c
  8147  00118A  6A3C               	clrf	(??_efgtoa+3)& (0+255),c
  8148  00118C  5039               	movf	??_efgtoa,w,c
  8149  00118E  263B               	addwf	??_efgtoa+2,f,c
  8150  001190  503A               	movf	??_efgtoa+1,w,c
  8151  001192  223C               	addwfc	??_efgtoa+3,f,c
  8152  001194  503C               	movf	??_efgtoa+3,w,c
  8153  001196  E106               	bnz	u5340
  8154  001198  0E1A               	movlw	26
  8155  00119A  5C3B               	subwf	??_efgtoa+2,w,c
  8156  00119C  B0D8               	btfsc	status,0,c
  8157  00119E  D002               	goto	u5340
  8158  0011A0  0E01               	movlw	1
  8159  0011A2  D001               	goto	u5350
  8160  0011A4                     u5340:
  8161  0011A4  0E00               	movlw	0
  8162  0011A6                     u5350:
  8163  0011A6  0100               	movlb	0	; () banked
  8164  0011A8  6F66               	movwf	_efgtoa$1094& (0+255),b
  8165  0011AA  6B67               	clrf	(_efgtoa$1094+1)& (0+255),b
  8166                           
  8167                           ; BSR set to: 0
  8168  0011AC  5166               	movf	_efgtoa$1094& (0+255),w,b
  8169  0011AE  1167               	iorwf	(_efgtoa$1094+1)& (0+255),w,b
  8170  0011B0  B4D8               	btfsc	status,2,c
  8171  0011B2  D00D               	goto	l5256
  8172                           
  8173                           ; BSR set to: 0
  8174                           ;C:\Program Files (x86)\Microchip\xc8\v2.05\pic\sources\c99\common\doprnt.c: 345:       
      +                                strcpy(&dbuf[n], "INF");
  8175  0011B4  0E1A               	movlw	low _dbuf
  8176  0011B6  2592               	addwf	efgtoa@n& (0+255),w,b
  8177  0011B8  6E01               	movwf	strcpy@dest,c
  8178  0011BA  0E01               	movlw	high _dbuf
  8179  0011BC  2193               	addwfc	(efgtoa@n+1)& (0+255),w,b
  8180  0011BE  6E02               	movwf	strcpy@dest+1,c
  8181  0011C0  0EEC               	movlw	low STR_100
  8182  0011C2  6E03               	movwf	strcpy@src,c
  8183  0011C4  0E7F               	movlw	high STR_100
  8184  0011C6  6E04               	movwf	strcpy@src+1,c
  8185  0011C8  EC3A  F024         	call	_strcpy	;wreg free
  8186                           
  8187                           ;C:\Program Files (x86)\Microchip\xc8\v2.05\pic\sources\c99\common\doprnt.c: 346:       
      +                            } else {
  8188  0011CC  D00C               	goto	l5258
  8189  0011CE                     l5256:
  8190                           
  8191                           ; BSR set to: 0
  8192                           ;C:\Program Files (x86)\Microchip\xc8\v2.05\pic\sources\c99\common\doprnt.c: 347:       
      +                                strcpy(&dbuf[n], "inf");
  8193  0011CE  0E1A               	movlw	low _dbuf
  8194  0011D0  2592               	addwf	efgtoa@n& (0+255),w,b
  8195  0011D2  6E01               	movwf	strcpy@dest,c
  8196  0011D4  0E01               	movlw	high _dbuf
  8197  0011D6  2193               	addwfc	(efgtoa@n+1)& (0+255),w,b
  8198  0011D8  6E02               	movwf	strcpy@dest+1,c
  8199  0011DA  0EF4               	movlw	low STR_101
  8200  0011DC  6E03               	movwf	strcpy@src,c
  8201  0011DE  0E7F               	movlw	high STR_101
  8202  0011E0  6E04               	movwf	strcpy@src+1,c
  8203  0011E2  EC3A  F024         	call	_strcpy	;wreg free
  8204  0011E6                     l5258:
  8205                           
  8206                           ;C:\Program Files (x86)\Microchip\xc8\v2.05\pic\sources\c99\common\doprnt.c: 349:       
      +                            w -= ((sizeof("inf")/sizeof("inf"[0]))-1);
  8207  0011E6  0100               	movlb	0	; () banked
  8208  0011E8  0EFD               	movlw	253
  8209  0011EA  277F               	addwf	efgtoa@w& (0+255),f,b
  8210  0011EC  0EFF               	movlw	255
  8211  0011EE  2380               	addwfc	(efgtoa@w+1)& (0+255),f,b
  8212  0011F0                     l5260:
  8213                           
  8214                           ;C:\Program Files (x86)\Microchip\xc8\v2.05\pic\sources\c99\common\doprnt.c: 350:       
      +                            return pad(fp, &dbuf[0], w);
  8215  0011F0  C032  F011         	movff	efgtoa@fp,pad@fp
  8216  0011F4  C033  F012         	movff	efgtoa@fp+1,pad@fp+1
  8217  0011F8  0E1A               	movlw	low _dbuf
  8218  0011FA  6E13               	movwf	pad@buf,c
  8219  0011FC  0E01               	movlw	high _dbuf
  8220  0011FE  6E14               	movwf	pad@buf+1,c
  8221  001200  C07F  F015         	movff	efgtoa@w,pad@p
  8222  001204  C080  F016         	movff	efgtoa@w+1,pad@p+1
  8223  001208  ECCA  F021         	call	_pad	;wreg free
  8224  00120C  C011  F032         	movff	?_pad,?_efgtoa
  8225  001210  C012  F033         	movff	?_pad+1,?_efgtoa+1
  8226  001214  0012               	return	
  8227  001216                     l5264:
  8228                           
  8229                           ;C:\Program Files (x86)\Microchip\xc8\v2.05\pic\sources\c99\common\doprnt.c: 353:       
      +                            if ((0 ? isupper((int)c) : ((unsigned)((int)c)-'A') < 26)) {
  8230  001216  C08C  F001         	movff	efgtoa@g,___fpclassifyf@x
  8231  00121A  C08D  F002         	movff	efgtoa@g+1,___fpclassifyf@x+1
  8232  00121E  C08E  F003         	movff	efgtoa@g+2,___fpclassifyf@x+2
  8233  001222  C08F  F004         	movff	efgtoa@g+3,___fpclassifyf@x+3
  8234  001226  ECA8  F01F         	call	___fpclassifyf	;wreg free
  8235  00122A  5001               	movf	?___fpclassifyf,w,c
  8236  00122C  1002               	iorwf	?___fpclassifyf+1,w,c
  8237  00122E  A4D8               	btfss	status,2,c
  8238  001230  D035               	goto	l5282
  8239  001232  0EBF               	movlw	191
  8240  001234  6E39               	movwf	??_efgtoa& (0+255),c
  8241  001236  0EFF               	movlw	255
  8242  001238  6E3A               	movwf	(??_efgtoa+1)& (0+255),c
  8243  00123A  5038               	movf	efgtoa@c,w,c
  8244  00123C  6E3B               	movwf	(??_efgtoa+2)& (0+255),c
  8245  00123E  6A3C               	clrf	(??_efgtoa+3)& (0+255),c
  8246  001240  5039               	movf	??_efgtoa,w,c
  8247  001242  263B               	addwf	??_efgtoa+2,f,c
  8248  001244  503A               	movf	??_efgtoa+1,w,c
  8249  001246  223C               	addwfc	??_efgtoa+3,f,c
  8250  001248  503C               	movf	??_efgtoa+3,w,c
  8251  00124A  E106               	bnz	u5380
  8252  00124C  0E1A               	movlw	26
  8253  00124E  5C3B               	subwf	??_efgtoa+2,w,c
  8254  001250  B0D8               	btfsc	status,0,c
  8255  001252  D002               	goto	u5380
  8256  001254  0E01               	movlw	1
  8257  001256  D001               	goto	u5390
  8258  001258                     u5380:
  8259  001258  0E00               	movlw	0
  8260  00125A                     u5390:
  8261  00125A  0100               	movlb	0	; () banked
  8262  00125C  6F68               	movwf	_efgtoa$1098& (0+255),b
  8263  00125E  6B69               	clrf	(_efgtoa$1098+1)& (0+255),b
  8264                           
  8265                           ; BSR set to: 0
  8266  001260  5168               	movf	_efgtoa$1098& (0+255),w,b
  8267  001262  1169               	iorwf	(_efgtoa$1098+1)& (0+255),w,b
  8268  001264  B4D8               	btfsc	status,2,c
  8269  001266  D00D               	goto	l5274
  8270                           
  8271                           ; BSR set to: 0
  8272                           ;C:\Program Files (x86)\Microchip\xc8\v2.05\pic\sources\c99\common\doprnt.c: 354:       
      +                                strcpy(&dbuf[n], "NAN");
  8273  001268  0E1A               	movlw	low _dbuf
  8274  00126A  2592               	addwf	efgtoa@n& (0+255),w,b
  8275  00126C  6E01               	movwf	strcpy@dest,c
  8276  00126E  0E01               	movlw	high _dbuf
  8277  001270  2193               	addwfc	(efgtoa@n+1)& (0+255),w,b
  8278  001272  6E02               	movwf	strcpy@dest+1,c
  8279  001274  0EF0               	movlw	low STR_104
  8280  001276  6E03               	movwf	strcpy@src,c
  8281  001278  0E7F               	movlw	high STR_104
  8282  00127A  6E04               	movwf	strcpy@src+1,c
  8283  00127C  EC3A  F024         	call	_strcpy	;wreg free
  8284                           
  8285                           ;C:\Program Files (x86)\Microchip\xc8\v2.05\pic\sources\c99\common\doprnt.c: 355:       
      +                            } else {
  8286  001280  D7B2               	goto	l5258
  8287  001282                     l5274:
  8288                           
  8289                           ; BSR set to: 0
  8290                           ;C:\Program Files (x86)\Microchip\xc8\v2.05\pic\sources\c99\common\doprnt.c: 356:       
      +                                strcpy(&dbuf[n], "nan");
  8291  001282  0E1A               	movlw	low _dbuf
  8292  001284  2592               	addwf	efgtoa@n& (0+255),w,b
  8293  001286  6E01               	movwf	strcpy@dest,c
  8294  001288  0E01               	movlw	high _dbuf
  8295  00128A  2193               	addwfc	(efgtoa@n+1)& (0+255),w,b
  8296  00128C  6E02               	movwf	strcpy@dest+1,c
  8297  00128E  0EF8               	movlw	low STR_105
  8298  001290  6E03               	movwf	strcpy@src,c
  8299  001292  0E7F               	movlw	high STR_105
  8300  001294  6E04               	movwf	strcpy@src+1,c
  8301  001296  EC3A  F024         	call	_strcpy	;wreg free
  8302  00129A  D7A5               	goto	l5258
  8303  00129C                     l5282:
  8304                           
  8305                           ;C:\Program Files (x86)\Microchip\xc8\v2.05\pic\sources\c99\common\doprnt.c: 363:     u 
      +                          = 1.0;
  8306  00129C  0E00               	movlw	0
  8307  00129E  0100               	movlb	0	; () banked
  8308  0012A0  6F94               	movwf	efgtoa@u& (0+255),b
  8309  0012A2  0E00               	movlw	0
  8310  0012A4  6F95               	movwf	(efgtoa@u+1)& (0+255),b
  8311  0012A6  0E80               	movlw	128
  8312  0012A8  6F96               	movwf	(efgtoa@u+2)& (0+255),b
  8313  0012AA  0E3F               	movlw	63
  8314  0012AC  6F97               	movwf	(efgtoa@u+3)& (0+255),b
  8315                           
  8316                           ;C:\Program Files (x86)\Microchip\xc8\v2.05\pic\sources\c99\common\doprnt.c: 364:     e 
      +                          = 0;
  8317  0012AE  0E00               	movlw	0
  8318  0012B0  6F91               	movwf	(efgtoa@e+1)& (0+255),b
  8319  0012B2  0E00               	movlw	0
  8320  0012B4  6F90               	movwf	efgtoa@e& (0+255),b
  8321                           
  8322                           ; BSR set to: 0
  8323                           ;C:\Program Files (x86)\Microchip\xc8\v2.05\pic\sources\c99\common\doprnt.c: 365:     if
      +                           (!(g == 0.0)) {
  8324  0012B6  C08C  F001         	movff	efgtoa@g,___fleq@ff1
  8325  0012BA  C08D  F002         	movff	efgtoa@g+1,___fleq@ff1+1
  8326  0012BE  C08E  F003         	movff	efgtoa@g+2,___fleq@ff1+2
  8327  0012C2  C08F  F004         	movff	efgtoa@g+3,___fleq@ff1+3
  8328  0012C6  0E00               	movlw	0
  8329  0012C8  6E05               	movwf	___fleq@ff2,c
  8330  0012CA  0E00               	movlw	0
  8331  0012CC  6E06               	movwf	___fleq@ff2+1,c
  8332  0012CE  0E00               	movlw	0
  8333  0012D0  6E07               	movwf	___fleq@ff2+2,c
  8334  0012D2  0E00               	movlw	0
  8335  0012D4  6E08               	movwf	___fleq@ff2+3,c
  8336  0012D6  EC17  F022         	call	___fleq	;wreg free
  8337  0012DA  A0D8               	btfss	status,0,c
  8338  0012DC  D01E               	goto	l5292
  8339  0012DE  D076               	goto	u5430
  8340  0012E0                     l5288:
  8341                           
  8342                           ;C:\Program Files (x86)\Microchip\xc8\v2.05\pic\sources\c99\common\doprnt.c: 367:       
      +                                u = u*10.0;
  8343  0012E0  C094  F001         	movff	efgtoa@u,___flmul@b
  8344  0012E4  C095  F002         	movff	efgtoa@u+1,___flmul@b+1
  8345  0012E8  C096  F003         	movff	efgtoa@u+2,___flmul@b+2
  8346  0012EC  C097  F004         	movff	efgtoa@u+3,___flmul@b+3
  8347  0012F0  0E00               	movlw	0
  8348  0012F2  6E05               	movwf	___flmul@a,c
  8349  0012F4  0E00               	movlw	0
  8350  0012F6  6E06               	movwf	___flmul@a+1,c
  8351  0012F8  0E20               	movlw	32
  8352  0012FA  6E07               	movwf	___flmul@a+2,c
  8353  0012FC  0E41               	movlw	65
  8354  0012FE  6E08               	movwf	___flmul@a+3,c
  8355  001300  EC05  F014         	call	___flmul	;wreg free
  8356  001304  C001  F094         	movff	?___flmul,efgtoa@u
  8357  001308  C002  F095         	movff	?___flmul+1,efgtoa@u+1
  8358  00130C  C003  F096         	movff	?___flmul+2,efgtoa@u+2
  8359  001310  C004  F097         	movff	?___flmul+3,efgtoa@u+3
  8360                           
  8361                           ;C:\Program Files (x86)\Microchip\xc8\v2.05\pic\sources\c99\common\doprnt.c: 368:       
      +                                ++e;
  8362  001314  0100               	movlb	0	; () banked
  8363  001316  4B90               	infsnz	efgtoa@e& (0+255),f,b
  8364  001318  2B91               	incf	(efgtoa@e+1)& (0+255),f,b
  8365  00131A                     l5292:
  8366                           
  8367                           ;C:\Program Files (x86)\Microchip\xc8\v2.05\pic\sources\c99\common\doprnt.c: 366:       
      +                            while (!(g < (u*10.0))) {
  8368  00131A  C08C  F01A         	movff	efgtoa@g,___flge@ff1
  8369  00131E  C08D  F01B         	movff	efgtoa@g+1,___flge@ff1+1
  8370  001322  C08E  F01C         	movff	efgtoa@g+2,___flge@ff1+2
  8371  001326  C08F  F01D         	movff	efgtoa@g+3,___flge@ff1+3
  8372  00132A  0E00               	movlw	0
  8373  00132C  6E05               	movwf	___flmul@a,c
  8374  00132E  0E00               	movlw	0
  8375  001330  6E06               	movwf	___flmul@a+1,c
  8376  001332  0E20               	movlw	32
  8377  001334  6E07               	movwf	___flmul@a+2,c
  8378  001336  0E41               	movlw	65
  8379  001338  6E08               	movwf	___flmul@a+3,c
  8380  00133A  C094  F001         	movff	efgtoa@u,___flmul@b
  8381  00133E  C095  F002         	movff	efgtoa@u+1,___flmul@b+1
  8382  001342  C096  F003         	movff	efgtoa@u+2,___flmul@b+2
  8383  001346  C097  F004         	movff	efgtoa@u+3,___flmul@b+3
  8384  00134A  EC05  F014         	call	___flmul	;wreg free
  8385  00134E  C001  F01E         	movff	?___flmul,___flge@ff2
  8386  001352  C002  F01F         	movff	?___flmul+1,___flge@ff2+1
  8387  001356  C003  F020         	movff	?___flmul+2,___flge@ff2+2
  8388  00135A  C004  F021         	movff	?___flmul+3,___flge@ff2+3
  8389  00135E  EC40  F01F         	call	___flge	;wreg free
  8390  001362  A0D8               	btfss	status,0,c
  8391  001364  D01F               	goto	l5298
  8392  001366  D7BC               	goto	l5288
  8393  001368                     l5294:
  8394                           
  8395                           ;C:\Program Files (x86)\Microchip\xc8\v2.05\pic\sources\c99\common\doprnt.c: 371:       
      +                                u = u/10.0;
  8396  001368  C094  F001         	movff	efgtoa@u,___fldiv@b
  8397  00136C  C095  F002         	movff	efgtoa@u+1,___fldiv@b+1
  8398  001370  C096  F003         	movff	efgtoa@u+2,___fldiv@b+2
  8399  001374  C097  F004         	movff	efgtoa@u+3,___fldiv@b+3
  8400  001378  0E00               	movlw	0
  8401  00137A  6E05               	movwf	___fldiv@a,c
  8402  00137C  0E00               	movlw	0
  8403  00137E  6E06               	movwf	___fldiv@a+1,c
  8404  001380  0E20               	movlw	32
  8405  001382  6E07               	movwf	___fldiv@a+2,c
  8406  001384  0E41               	movlw	65
  8407  001386  6E08               	movwf	___fldiv@a+3,c
  8408  001388  EC34  F017         	call	___fldiv	;wreg free
  8409  00138C  C001  F094         	movff	?___fldiv,efgtoa@u
  8410  001390  C002  F095         	movff	?___fldiv+1,efgtoa@u+1
  8411  001394  C003  F096         	movff	?___fldiv+2,efgtoa@u+2
  8412  001398  C004  F097         	movff	?___fldiv+3,efgtoa@u+3
  8413                           
  8414                           ;C:\Program Files (x86)\Microchip\xc8\v2.05\pic\sources\c99\common\doprnt.c: 372:       
      +                                --e;
  8415  00139C  0100               	movlb	0	; () banked
  8416  00139E  0790               	decf	efgtoa@e& (0+255),f,b
  8417  0013A0  A0D8               	btfss	status,0,c
  8418  0013A2  0791               	decf	(efgtoa@e+1)& (0+255),f,b
  8419  0013A4                     l5298:
  8420                           
  8421                           ;C:\Program Files (x86)\Microchip\xc8\v2.05\pic\sources\c99\common\doprnt.c: 370:       
      +                            while (g < u) {
  8422  0013A4  C08C  F01A         	movff	efgtoa@g,___flge@ff1
  8423  0013A8  C08D  F01B         	movff	efgtoa@g+1,___flge@ff1+1
  8424  0013AC  C08E  F01C         	movff	efgtoa@g+2,___flge@ff1+2
  8425  0013B0  C08F  F01D         	movff	efgtoa@g+3,___flge@ff1+3
  8426  0013B4  C094  F01E         	movff	efgtoa@u,___flge@ff2
  8427  0013B8  C095  F01F         	movff	efgtoa@u+1,___flge@ff2+1
  8428  0013BC  C096  F020         	movff	efgtoa@u+2,___flge@ff2+2
  8429  0013C0  C097  F021         	movff	efgtoa@u+3,___flge@ff2+3
  8430  0013C4  EC40  F01F         	call	___flge	;wreg free
  8431  0013C8  A0D8               	btfss	status,0,c
  8432  0013CA  D7CE               	goto	l5294
  8433  0013CC                     u5430:
  8434                           
  8435                           ;C:\Program Files (x86)\Microchip\xc8\v2.05\pic\sources\c99\common\doprnt.c: 377:     mo
      +                          de = tolower((int)c);
  8436  0013CC  C038  F007         	movff	efgtoa@c,tolower@c
  8437  0013D0  6A08               	clrf	tolower@c+1,c
  8438  0013D2  EC8B  F024         	call	_tolower	;wreg free
  8439  0013D6  5007               	movf	?_tolower,w,c
  8440  0013D8  0100               	movlb	0	; () banked
  8441  0013DA  6F81               	movwf	efgtoa@mode& (0+255),b
  8442                           
  8443                           ; BSR set to: 0
  8444                           ;C:\Program Files (x86)\Microchip\xc8\v2.05\pic\sources\c99\common\doprnt.c: 378:     nm
      +                          ode = mode;
  8445  0013DC  C081  F07E         	movff	efgtoa@mode,efgtoa@nmode
  8446                           
  8447                           ; BSR set to: 0
  8448                           ;C:\Program Files (x86)\Microchip\xc8\v2.05\pic\sources\c99\common\doprnt.c: 379:     if
      +                           (mode == 'g') {
  8449  0013E0  0E67               	movlw	103
  8450  0013E2  1981               	xorwf	efgtoa@mode& (0+255),w,b
  8451  0013E4  A4D8               	btfss	status,2,c
  8452  0013E6  D019               	goto	l5314
  8453                           
  8454                           ; BSR set to: 0
  8455                           ;C:\Program Files (x86)\Microchip\xc8\v2.05\pic\sources\c99\common\doprnt.c: 380:   if (
      +                          prec == 0) {
  8456  0013E8  51F0               	movf	_prec& (0+255),w,b
  8457  0013EA  11F1               	iorwf	(_prec+1)& (0+255),w,b
  8458  0013EC  A4D8               	btfss	status,2,c
  8459  0013EE  D004               	goto	l5310
  8460                           
  8461                           ; BSR set to: 0
  8462                           ;C:\Program Files (x86)\Microchip\xc8\v2.05\pic\sources\c99\common\doprnt.c: 381:    pre
      +                          c = 1;
  8463  0013F0  0E00               	movlw	0
  8464  0013F2  6FF1               	movwf	(_prec+1)& (0+255),b
  8465  0013F4  0E01               	movlw	1
  8466  0013F6  6FF0               	movwf	_prec& (0+255),b
  8467  0013F8                     l5310:
  8468                           
  8469                           ; BSR set to: 0
  8470                           ;C:\Program Files (x86)\Microchip\xc8\v2.05\pic\sources\c99\common\doprnt.c: 383:       
      +                            p = (0 < prec) ? prec : 6;
  8471  0013F8  BFF1               	btfsc	(_prec+1)& (0+255),7,b
  8472  0013FA  D005               	goto	u5460
  8473  0013FC  51F1               	movf	(_prec+1)& (0+255),w,b
  8474  0013FE  E108               	bnz	l416
  8475  001400  05F0               	decf	_prec& (0+255),w,b
  8476  001402  B0D8               	btfsc	status,0,c
  8477  001404  D005               	goto	l416
  8478  001406                     u5460:
  8479                           
  8480                           ; BSR set to: 0
  8481  001406  0E00               	movlw	0
  8482  001408  6F7D               	movwf	(efgtoa@p+1)& (0+255),b
  8483  00140A  0E06               	movlw	6
  8484  00140C  6F7C               	movwf	efgtoa@p& (0+255),b
  8485  00140E  D008               	goto	l5320
  8486  001410                     l416:
  8487                           
  8488                           ; BSR set to: 0
  8489  001410  C0F0  F07C         	movff	_prec,efgtoa@p
  8490  001414  C0F1  F07D         	movff	_prec+1,efgtoa@p+1
  8491  001418  D003               	goto	l5320
  8492  00141A                     l5314:
  8493                           
  8494                           ; BSR set to: 0
  8495                           ;C:\Program Files (x86)\Microchip\xc8\v2.05\pic\sources\c99\common\doprnt.c: 385:       
      +                            p = (prec < 0) ? 6 : prec;
  8496  00141A  AFF1               	btfss	(_prec+1)& (0+255),7,b
  8497  00141C  D7F9               	goto	l416
  8498  00141E  D7F3               	goto	u5460
  8499  001420                     l5320:
  8500                           
  8501                           ; BSR set to: 0
  8502                           ;C:\Program Files (x86)\Microchip\xc8\v2.05\pic\sources\c99\common\doprnt.c: 389:     if
      +                           (mode == 'g') {
  8503  001420  0E67               	movlw	103
  8504  001422  1981               	xorwf	efgtoa@mode& (0+255),w,b
  8505  001424  A4D8               	btfss	status,2,c
  8506  001426  D022               	goto	l5330
  8507                           
  8508                           ; BSR set to: 0
  8509                           ;C:\Program Files (x86)\Microchip\xc8\v2.05\pic\sources\c99\common\doprnt.c: 390:       
      +                            if (!(e < -4) && !((p - 1) < e)) {
  8510  001428  AF91               	btfss	(efgtoa@e+1)& (0+255),7,b
  8511  00142A  D006               	goto	u5490
  8512  00142C  0EFC               	movlw	252
  8513  00142E  5D90               	subwf	efgtoa@e& (0+255),w,b
  8514  001430  0EFF               	movlw	255
  8515  001432  5991               	subwfb	(efgtoa@e+1)& (0+255),w,b
  8516  001434  A0D8               	btfss	status,0,c
  8517  001436  D018               	goto	l5328
  8518  001438                     u5490:
  8519                           
  8520                           ; BSR set to: 0
  8521  001438  0EFF               	movlw	255
  8522  00143A  6E39               	movwf	??_efgtoa& (0+255),c
  8523  00143C  0EFF               	movlw	255
  8524  00143E  6E3A               	movwf	(??_efgtoa+1)& (0+255),c
  8525  001440  C07C  F03B         	movff	efgtoa@p,??_efgtoa+2
  8526  001444  C07D  F03C         	movff	efgtoa@p+1,??_efgtoa+3
  8527  001448  5039               	movf	??_efgtoa,w,c
  8528  00144A  263B               	addwf	??_efgtoa+2,f,c
  8529  00144C  503A               	movf	??_efgtoa+1,w,c
  8530  00144E  223C               	addwfc	??_efgtoa+3,f,c
  8531  001450  5190               	movf	efgtoa@e& (0+255),w,b
  8532  001452  5C3B               	subwf	??_efgtoa+2,w,c
  8533  001454  503C               	movf	??_efgtoa+3,w,c
  8534  001456  0A80               	xorlw	128
  8535  001458  6E3D               	movwf	(??_efgtoa+4)& (0+255),c
  8536  00145A  5191               	movf	(efgtoa@e+1)& (0+255),w,b
  8537  00145C  0A80               	xorlw	128
  8538  00145E  583D               	subwfb	(??_efgtoa+4)& (0+255),w,c
  8539  001460  A0D8               	btfss	status,0,c
  8540  001462  D002               	goto	l5328
  8541                           
  8542                           ; BSR set to: 0
  8543                           ;C:\Program Files (x86)\Microchip\xc8\v2.05\pic\sources\c99\common\doprnt.c: 391:       
      +                                nmode = 'f';
  8544  001464  0E66               	movlw	102
  8545  001466  D001               	goto	L6
  8546  001468                     l5328:
  8547                           
  8548                           ; BSR set to: 0
  8549                           ;C:\Program Files (x86)\Microchip\xc8\v2.05\pic\sources\c99\common\doprnt.c: 393:       
      +                                nmode = 'e';
  8550  001468  0E65               	movlw	101
  8551  00146A                     L6:
  8552  00146A  6F7E               	movwf	efgtoa@nmode& (0+255),b
  8553  00146C                     l5330:
  8554                           
  8555                           ; BSR set to: 0
  8556                           ;C:\Program Files (x86)\Microchip\xc8\v2.05\pic\sources\c99\common\doprnt.c: 398:     m 
      +                          = p;
  8557  00146C  C07C  F074         	movff	efgtoa@p,efgtoa@m
  8558  001470  C07D  F075         	movff	efgtoa@p+1,efgtoa@m+1
  8559                           
  8560                           ; BSR set to: 0
  8561                           ;C:\Program Files (x86)\Microchip\xc8\v2.05\pic\sources\c99\common\doprnt.c: 399:     if
      +                           (!(mode == 'g') || ((nmode == 'f') && (e < 0))) {
  8562  001474  0E67               	movlw	103
  8563  001476  1981               	xorwf	efgtoa@mode& (0+255),w,b
  8564  001478  A4D8               	btfss	status,2,c
  8565  00147A  D005               	goto	u5530
  8566                           
  8567                           ; BSR set to: 0
  8568  00147C  0E66               	movlw	102
  8569  00147E  197E               	xorwf	efgtoa@nmode& (0+255),w,b
  8570  001480  B4D8               	btfsc	status,2,c
  8571                           
  8572                           ; BSR set to: 0
  8573  001482  AF91               	btfss	(efgtoa@e+1)& (0+255),7,b
  8574  001484  D002               	goto	l5340
  8575  001486                     u5530:
  8576                           
  8577                           ; BSR set to: 0
  8578                           ;C:\Program Files (x86)\Microchip\xc8\v2.05\pic\sources\c99\common\doprnt.c: 400:       
      +                            ++m;
  8579  001486  4B74               	infsnz	efgtoa@m& (0+255),f,b
  8580  001488  2B75               	incf	(efgtoa@m+1)& (0+255),f,b
  8581  00148A                     l5340:
  8582                           
  8583                           ; BSR set to: 0
  8584                           ;C:\Program Files (x86)\Microchip\xc8\v2.05\pic\sources\c99\common\doprnt.c: 404:     if
      +                           (nmode == 'f') {
  8585  00148A  0E66               	movlw	102
  8586  00148C  197E               	xorwf	efgtoa@nmode& (0+255),w,b
  8587  00148E  A4D8               	btfss	status,2,c
  8588  001490  D016               	goto	l5350
  8589                           
  8590                           ; BSR set to: 0
  8591                           ;C:\Program Files (x86)\Microchip\xc8\v2.05\pic\sources\c99\common\doprnt.c: 405:       
      +                            if (e < 0) {
  8592  001492  AF91               	btfss	(efgtoa@e+1)& (0+255),7,b
  8593  001494  D00C               	goto	l5346
  8594                           
  8595                           ; BSR set to: 0
  8596                           ;C:\Program Files (x86)\Microchip\xc8\v2.05\pic\sources\c99\common\doprnt.c: 406:       
      +                                u = 1.0;
  8597  001496  0E00               	movlw	0
  8598  001498  6F94               	movwf	efgtoa@u& (0+255),b
  8599  00149A  0E00               	movlw	0
  8600  00149C  6F95               	movwf	(efgtoa@u+1)& (0+255),b
  8601  00149E  0E80               	movlw	128
  8602  0014A0  6F96               	movwf	(efgtoa@u+2)& (0+255),b
  8603  0014A2  0E3F               	movlw	63
  8604  0014A4  6F97               	movwf	(efgtoa@u+3)& (0+255),b
  8605                           
  8606                           ;C:\Program Files (x86)\Microchip\xc8\v2.05\pic\sources\c99\common\doprnt.c: 407:       
      +                                e = 0;
  8607  0014A6  0E00               	movlw	0
  8608  0014A8  6F91               	movwf	(efgtoa@e+1)& (0+255),b
  8609  0014AA  0E00               	movlw	0
  8610  0014AC  6F90               	movwf	efgtoa@e& (0+255),b
  8611  0014AE                     l5346:
  8612                           
  8613                           ; BSR set to: 0
  8614                           ;C:\Program Files (x86)\Microchip\xc8\v2.05\pic\sources\c99\common\doprnt.c: 409:       
      +                            if (!(mode == 'g')) {
  8615  0014AE  0E67               	movlw	103
  8616  0014B0  1981               	xorwf	efgtoa@mode& (0+255),w,b
  8617  0014B2  B4D8               	btfsc	status,2,c
  8618  0014B4  D004               	goto	l5350
  8619                           
  8620                           ; BSR set to: 0
  8621                           ;C:\Program Files (x86)\Microchip\xc8\v2.05\pic\sources\c99\common\doprnt.c: 410:       
      +                                m += e;
  8622  0014B6  5190               	movf	efgtoa@e& (0+255),w,b
  8623  0014B8  2774               	addwf	efgtoa@m& (0+255),f,b
  8624  0014BA  5191               	movf	(efgtoa@e+1)& (0+255),w,b
  8625  0014BC  2375               	addwfc	(efgtoa@m+1)& (0+255),f,b
  8626  0014BE                     l5350:
  8627                           
  8628                           ; BSR set to: 0
  8629                           ;C:\Program Files (x86)\Microchip\xc8\v2.05\pic\sources\c99\common\doprnt.c: 415:     i 
      +                          = 0;
  8630  0014BE  0E00               	movlw	0
  8631  0014C0  6F8B               	movwf	(efgtoa@i+1)& (0+255),b
  8632  0014C2  0E00               	movlw	0
  8633  0014C4  6F8A               	movwf	efgtoa@i& (0+255),b
  8634                           
  8635                           ; BSR set to: 0
  8636                           ;C:\Program Files (x86)\Microchip\xc8\v2.05\pic\sources\c99\common\doprnt.c: 416:     h 
      +                          = g;
  8637  0014C6  C08C  F082         	movff	efgtoa@g,efgtoa@h
  8638  0014CA  C08D  F083         	movff	efgtoa@g+1,efgtoa@h+1
  8639  0014CE  C08E  F084         	movff	efgtoa@g+2,efgtoa@h+2
  8640  0014D2  C08F  F085         	movff	efgtoa@g+3,efgtoa@h+3
  8641                           
  8642                           ; BSR set to: 0
  8643                           ;C:\Program Files (x86)\Microchip\xc8\v2.05\pic\sources\c99\common\doprnt.c: 417:     ou
      +                           = u;
  8644  0014D6  C094  F060         	movff	efgtoa@u,efgtoa@ou
  8645  0014DA  C095  F061         	movff	efgtoa@u+1,efgtoa@ou+1
  8646  0014DE  C096  F062         	movff	efgtoa@u+2,efgtoa@ou+2
  8647  0014E2  C097  F063         	movff	efgtoa@u+3,efgtoa@ou+3
  8648                           
  8649                           ;C:\Program Files (x86)\Microchip\xc8\v2.05\pic\sources\c99\common\doprnt.c: 418:     wh
      +                          ile (i < m) {
  8650  0014E6  D07B               	goto	l5364
  8651  0014E8                     l5356:
  8652                           
  8653                           ; BSR set to: 0
  8654                           ;C:\Program Files (x86)\Microchip\xc8\v2.05\pic\sources\c99\common\doprnt.c: 419:       
      +                            l = floorf(h/u);
  8655  0014E8  C082  F001         	movff	efgtoa@h,___fldiv@b
  8656  0014EC  C083  F002         	movff	efgtoa@h+1,___fldiv@b+1
  8657  0014F0  C084  F003         	movff	efgtoa@h+2,___fldiv@b+2
  8658  0014F4  C085  F004         	movff	efgtoa@h+3,___fldiv@b+3
  8659  0014F8  C094  F005         	movff	efgtoa@u,___fldiv@a
  8660  0014FC  C095  F006         	movff	efgtoa@u+1,___fldiv@a+1
  8661  001500  C096  F007         	movff	efgtoa@u+2,___fldiv@a+2
  8662  001504  C097  F008         	movff	efgtoa@u+3,___fldiv@a+3
  8663  001508  EC34  F017         	call	___fldiv	;wreg free
  8664  00150C  C001  F01A         	movff	?___fldiv,floorf@x
  8665  001510  C002  F01B         	movff	?___fldiv+1,floorf@x+1
  8666  001514  C003  F01C         	movff	?___fldiv+2,floorf@x+2
  8667  001518  C004  F01D         	movff	?___fldiv+3,floorf@x+3
  8668  00151C  EC9C  F019         	call	_floorf	;wreg free
  8669  001520  C01A  F086         	movff	?_floorf,efgtoa@l
  8670  001524  C01B  F087         	movff	?_floorf+1,efgtoa@l+1
  8671  001528  C01C  F088         	movff	?_floorf+2,efgtoa@l+2
  8672  00152C  C01D  F089         	movff	?_floorf+3,efgtoa@l+3
  8673                           
  8674                           ;C:\Program Files (x86)\Microchip\xc8\v2.05\pic\sources\c99\common\doprnt.c: 420:       
      +                            d = (int)l;
  8675  001530  C086  F001         	movff	efgtoa@l,___fltol@f1
  8676  001534  C087  F002         	movff	efgtoa@l+1,___fltol@f1+1
  8677  001538  C088  F003         	movff	efgtoa@l+2,___fltol@f1+2
  8678  00153C  C089  F004         	movff	efgtoa@l+3,___fltol@f1+3
  8679  001540  EC74  F020         	call	___fltol	;wreg free
  8680  001544  C001  F078         	movff	?___fltol,efgtoa@d
  8681  001548  C002  F079         	movff	?___fltol+1,efgtoa@d+1
  8682                           
  8683                           ;C:\Program Files (x86)\Microchip\xc8\v2.05\pic\sources\c99\common\doprnt.c: 421:       
      +                            h -= l*u;
  8684  00154C  C082  F02A         	movff	efgtoa@h,___flsub@b
  8685  001550  C083  F02B         	movff	efgtoa@h+1,___flsub@b+1
  8686  001554  C084  F02C         	movff	efgtoa@h+2,___flsub@b+2
  8687  001558  C085  F02D         	movff	efgtoa@h+3,___flsub@b+3
  8688  00155C  C094  F005         	movff	efgtoa@u,___flmul@a
  8689  001560  C095  F006         	movff	efgtoa@u+1,___flmul@a+1
  8690  001564  C096  F007         	movff	efgtoa@u+2,___flmul@a+2
  8691  001568  C097  F008         	movff	efgtoa@u+3,___flmul@a+3
  8692  00156C  C086  F001         	movff	efgtoa@l,___flmul@b
  8693  001570  C087  F002         	movff	efgtoa@l+1,___flmul@b+1
  8694  001574  C088  F003         	movff	efgtoa@l+2,___flmul@b+2
  8695  001578  C089  F004         	movff	efgtoa@l+3,___flmul@b+3
  8696  00157C  EC05  F014         	call	___flmul	;wreg free
  8697  001580  C001  F02E         	movff	?___flmul,___flsub@a
  8698  001584  C002  F02F         	movff	?___flmul+1,___flsub@a+1
  8699  001588  C003  F030         	movff	?___flmul+2,___flsub@a+2
  8700  00158C  C004  F031         	movff	?___flmul+3,___flsub@a+3
  8701  001590  ECB1  F024         	call	___flsub	;wreg free
  8702  001594  C02A  F082         	movff	?___flsub,efgtoa@h
  8703  001598  C02B  F083         	movff	?___flsub+1,efgtoa@h+1
  8704  00159C  C02C  F084         	movff	?___flsub+2,efgtoa@h+2
  8705  0015A0  C02D  F085         	movff	?___flsub+3,efgtoa@h+3
  8706                           
  8707                           ;C:\Program Files (x86)\Microchip\xc8\v2.05\pic\sources\c99\common\doprnt.c: 422:       
      +                            u = u/10.0;
  8708  0015A4  C094  F001         	movff	efgtoa@u,___fldiv@b
  8709  0015A8  C095  F002         	movff	efgtoa@u+1,___fldiv@b+1
  8710  0015AC  C096  F003         	movff	efgtoa@u+2,___fldiv@b+2
  8711  0015B0  C097  F004         	movff	efgtoa@u+3,___fldiv@b+3
  8712  0015B4  0E00               	movlw	0
  8713  0015B6  6E05               	movwf	___fldiv@a,c
  8714  0015B8  0E00               	movlw	0
  8715  0015BA  6E06               	movwf	___fldiv@a+1,c
  8716  0015BC  0E20               	movlw	32
  8717  0015BE  6E07               	movwf	___fldiv@a+2,c
  8718  0015C0  0E41               	movlw	65
  8719  0015C2  6E08               	movwf	___fldiv@a+3,c
  8720  0015C4  EC34  F017         	call	___fldiv	;wreg free
  8721  0015C8  C001  F094         	movff	?___fldiv,efgtoa@u
  8722  0015CC  C002  F095         	movff	?___fldiv+1,efgtoa@u+1
  8723  0015D0  C003  F096         	movff	?___fldiv+2,efgtoa@u+2
  8724  0015D4  C004  F097         	movff	?___fldiv+3,efgtoa@u+3
  8725                           
  8726                           ;C:\Program Files (x86)\Microchip\xc8\v2.05\pic\sources\c99\common\doprnt.c: 423:       
      +                            ++i;
  8727  0015D8  0100               	movlb	0	; () banked
  8728  0015DA  4B8A               	infsnz	efgtoa@i& (0+255),f,b
  8729  0015DC  2B8B               	incf	(efgtoa@i+1)& (0+255),f,b
  8730  0015DE                     l5364:
  8731                           
  8732                           ; BSR set to: 0
  8733                           ;C:\Program Files (x86)\Microchip\xc8\v2.05\pic\sources\c99\common\doprnt.c: 418:     wh
      +                          ile (i < m) {
  8734  0015DE  5174               	movf	efgtoa@m& (0+255),w,b
  8735  0015E0  5D8A               	subwf	efgtoa@i& (0+255),w,b
  8736  0015E2  518B               	movf	(efgtoa@i+1)& (0+255),w,b
  8737  0015E4  0A80               	xorlw	128
  8738  0015E6  6E39               	movwf	??_efgtoa& (0+255),c
  8739  0015E8  5175               	movf	(efgtoa@m+1)& (0+255),w,b
  8740  0015EA  0A80               	xorlw	128
  8741  0015EC  5839               	subwfb	??_efgtoa& (0+255),w,c
  8742  0015EE  A0D8               	btfss	status,0,c
  8743  0015F0  D77B               	goto	l5356
  8744                           
  8745                           ; BSR set to: 0
  8746                           ;C:\Program Files (x86)\Microchip\xc8\v2.05\pic\sources\c99\common\doprnt.c: 427:     l 
      +                          = u*5.0;
  8747  0015F2  C094  F001         	movff	efgtoa@u,___flmul@b
  8748  0015F6  C095  F002         	movff	efgtoa@u+1,___flmul@b+1
  8749  0015FA  C096  F003         	movff	efgtoa@u+2,___flmul@b+2
  8750  0015FE  C097  F004         	movff	efgtoa@u+3,___flmul@b+3
  8751  001602  0E00               	movlw	0
  8752  001604  6E05               	movwf	___flmul@a,c
  8753  001606  0E00               	movlw	0
  8754  001608  6E06               	movwf	___flmul@a+1,c
  8755  00160A  0EA0               	movlw	160
  8756  00160C  6E07               	movwf	___flmul@a+2,c
  8757  00160E  0E40               	movlw	64
  8758  001610  6E08               	movwf	___flmul@a+3,c
  8759  001612  EC05  F014         	call	___flmul	;wreg free
  8760  001616  C001  F086         	movff	?___flmul,efgtoa@l
  8761  00161A  C002  F087         	movff	?___flmul+1,efgtoa@l+1
  8762  00161E  C003  F088         	movff	?___flmul+2,efgtoa@l+2
  8763  001622  C004  F089         	movff	?___flmul+3,efgtoa@l+3
  8764                           
  8765                           ;C:\Program Files (x86)\Microchip\xc8\v2.05\pic\sources\c99\common\doprnt.c: 428:     if
      +                           (h < l) {
  8766  001626  C082  F01A         	movff	efgtoa@h,___flge@ff1
  8767  00162A  C083  F01B         	movff	efgtoa@h+1,___flge@ff1+1
  8768  00162E  C084  F01C         	movff	efgtoa@h+2,___flge@ff1+2
  8769  001632  C085  F01D         	movff	efgtoa@h+3,___flge@ff1+3
  8770  001636  C086  F01E         	movff	efgtoa@l,___flge@ff2
  8771  00163A  C087  F01F         	movff	efgtoa@l+1,___flge@ff2+1
  8772  00163E  C088  F020         	movff	efgtoa@l+2,___flge@ff2+2
  8773  001642  C089  F021         	movff	efgtoa@l+3,___flge@ff2+3
  8774  001646  EC40  F01F         	call	___flge	;wreg free
  8775  00164A  B0D8               	btfsc	status,0,c
  8776  00164C  D003               	goto	l5372
  8777                           
  8778                           ;C:\Program Files (x86)\Microchip\xc8\v2.05\pic\sources\c99\common\doprnt.c: 429:       
      +                            l = 0.0;
  8779  00164E  0E00               	movlw	0
  8780  001650  0100               	movlb	0	; () banked
  8781  001652  D018               	goto	L7
  8782  001654                     l5372:
  8783                           
  8784                           ;C:\Program Files (x86)\Microchip\xc8\v2.05\pic\sources\c99\common\doprnt.c: 432:       
      +                            if ((h == l) && !(d % 2)) {
  8785  001654  C082  F001         	movff	efgtoa@h,___fleq@ff1
  8786  001658  C083  F002         	movff	efgtoa@h+1,___fleq@ff1+1
  8787  00165C  C084  F003         	movff	efgtoa@h+2,___fleq@ff1+2
  8788  001660  C085  F004         	movff	efgtoa@h+3,___fleq@ff1+3
  8789  001664  C086  F005         	movff	efgtoa@l,___fleq@ff2
  8790  001668  C087  F006         	movff	efgtoa@l+1,___fleq@ff2+1
  8791  00166C  C088  F007         	movff	efgtoa@l+2,___fleq@ff2+2
  8792  001670  C089  F008         	movff	efgtoa@l+3,___fleq@ff2+3
  8793  001674  EC17  F022         	call	___fleq	;wreg free
  8794  001678  A0D8               	btfss	status,0,c
  8795  00167A  D00B               	goto	l5378
  8796  00167C  0100               	movlb	0	; () banked
  8797  00167E  B178               	btfsc	efgtoa@d& (0+255),0,b
  8798  001680  D008               	goto	l5378
  8799                           
  8800                           ; BSR set to: 0
  8801                           ;C:\Program Files (x86)\Microchip\xc8\v2.05\pic\sources\c99\common\doprnt.c: 433:       
      +                                l = 0.0;
  8802  001682  0E00               	movlw	0
  8803  001684                     L7:
  8804  001684  6F86               	movwf	efgtoa@l& (0+255),b
  8805  001686  0E00               	movlw	0
  8806  001688  6F87               	movwf	(efgtoa@l+1)& (0+255),b
  8807  00168A  0E00               	movlw	0
  8808  00168C  6F88               	movwf	(efgtoa@l+2)& (0+255),b
  8809  00168E  0E00               	movlw	0
  8810  001690  6F89               	movwf	(efgtoa@l+3)& (0+255),b
  8811  001692                     l5378:
  8812                           
  8813                           ;C:\Program Files (x86)\Microchip\xc8\v2.05\pic\sources\c99\common\doprnt.c: 438:     h 
      +                          = g + l;
  8814  001692  C08C  F01A         	movff	efgtoa@g,___fladd@b
  8815  001696  C08D  F01B         	movff	efgtoa@g+1,___fladd@b+1
  8816  00169A  C08E  F01C         	movff	efgtoa@g+2,___fladd@b+2
  8817  00169E  C08F  F01D         	movff	efgtoa@g+3,___fladd@b+3
  8818  0016A2  C086  F01E         	movff	efgtoa@l,___fladd@a
  8819  0016A6  C087  F01F         	movff	efgtoa@l+1,___fladd@a+1
  8820  0016AA  C088  F020         	movff	efgtoa@l+2,___fladd@a+2
  8821  0016AE  C089  F021         	movff	efgtoa@l+3,___fladd@a+3
  8822  0016B2  ECAE  F015         	call	___fladd	;wreg free
  8823  0016B6  C01A  F082         	movff	?___fladd,efgtoa@h
  8824  0016BA  C01B  F083         	movff	?___fladd+1,efgtoa@h+1
  8825  0016BE  C01C  F084         	movff	?___fladd+2,efgtoa@h+2
  8826  0016C2  C01D  F085         	movff	?___fladd+3,efgtoa@h+3
  8827                           
  8828                           ;C:\Program Files (x86)\Microchip\xc8\v2.05\pic\sources\c99\common\doprnt.c: 441:     u 
      +                          = ou;
  8829  0016C6  C060  F094         	movff	efgtoa@ou,efgtoa@u
  8830  0016CA  C061  F095         	movff	efgtoa@ou+1,efgtoa@u+1
  8831  0016CE  C062  F096         	movff	efgtoa@ou+2,efgtoa@u+2
  8832  0016D2  C063  F097         	movff	efgtoa@ou+3,efgtoa@u+3
  8833                           
  8834                           ;C:\Program Files (x86)\Microchip\xc8\v2.05\pic\sources\c99\common\doprnt.c: 442:     ne
      +                           = (nmode == 'e') ? 0 : e;
  8835  0016D6  0E65               	movlw	101
  8836  0016D8  0100               	movlb	0	; () banked
  8837  0016DA  197E               	xorwf	efgtoa@nmode& (0+255),w,b
  8838  0016DC  B4D8               	btfsc	status,2,c
  8839  0016DE  D005               	goto	l5386
  8840                           
  8841                           ; BSR set to: 0
  8842  0016E0  C090  F076         	movff	efgtoa@e,efgtoa@ne
  8843  0016E4  C091  F077         	movff	efgtoa@e+1,efgtoa@ne+1
  8844  0016E8  D004               	goto	l442
  8845  0016EA                     l5386:
  8846                           
  8847                           ; BSR set to: 0
  8848  0016EA  0E00               	movlw	0
  8849  0016EC  6F77               	movwf	(efgtoa@ne+1)& (0+255),b
  8850  0016EE  0E00               	movlw	0
  8851  0016F0  6F76               	movwf	efgtoa@ne& (0+255),b
  8852  0016F2                     l442:
  8853                           
  8854                           ; BSR set to: 0
  8855                           ;C:\Program Files (x86)\Microchip\xc8\v2.05\pic\sources\c99\common\doprnt.c: 443:     pp
      +                           = 0;
  8856  0016F2  0E00               	movlw	0
  8857  0016F4  6F73               	movwf	(efgtoa@pp+1)& (0+255),b
  8858  0016F6  0E00               	movlw	0
  8859  0016F8  6F72               	movwf	efgtoa@pp& (0+255),b
  8860                           
  8861                           ;C:\Program Files (x86)\Microchip\xc8\v2.05\pic\sources\c99\common\doprnt.c: 444:     t 
      +                          = 0;
  8862  0016FA  0E00               	movlw	0
  8863  0016FC  6F71               	movwf	(efgtoa@t+1)& (0+255),b
  8864  0016FE  0E00               	movlw	0
  8865  001700  6F70               	movwf	efgtoa@t& (0+255),b
  8866                           
  8867                           ;C:\Program Files (x86)\Microchip\xc8\v2.05\pic\sources\c99\common\doprnt.c: 445:     i 
      +                          = 0;
  8868  001702  0E00               	movlw	0
  8869  001704  6F8B               	movwf	(efgtoa@i+1)& (0+255),b
  8870  001706  0E00               	movlw	0
  8871  001708  6F8A               	movwf	efgtoa@i& (0+255),b
  8872                           
  8873                           ;C:\Program Files (x86)\Microchip\xc8\v2.05\pic\sources\c99\common\doprnt.c: 446:     wh
      +                          ile ((i < m) && (n < (80 - 5))) {
  8874  00170A  D0C6               	goto	l5436
  8875  00170C                     l5388:
  8876                           
  8877                           ; BSR set to: 0
  8878                           ;C:\Program Files (x86)\Microchip\xc8\v2.05\pic\sources\c99\common\doprnt.c: 447:       
      +                            l = floorf(h/u);
  8879  00170C  C082  F001         	movff	efgtoa@h,___fldiv@b
  8880  001710  C083  F002         	movff	efgtoa@h+1,___fldiv@b+1
  8881  001714  C084  F003         	movff	efgtoa@h+2,___fldiv@b+2
  8882  001718  C085  F004         	movff	efgtoa@h+3,___fldiv@b+3
  8883  00171C  C094  F005         	movff	efgtoa@u,___fldiv@a
  8884  001720  C095  F006         	movff	efgtoa@u+1,___fldiv@a+1
  8885  001724  C096  F007         	movff	efgtoa@u+2,___fldiv@a+2
  8886  001728  C097  F008         	movff	efgtoa@u+3,___fldiv@a+3
  8887  00172C  EC34  F017         	call	___fldiv	;wreg free
  8888  001730  C001  F01A         	movff	?___fldiv,floorf@x
  8889  001734  C002  F01B         	movff	?___fldiv+1,floorf@x+1
  8890  001738  C003  F01C         	movff	?___fldiv+2,floorf@x+2
  8891  00173C  C004  F01D         	movff	?___fldiv+3,floorf@x+3
  8892  001740  EC9C  F019         	call	_floorf	;wreg free
  8893  001744  C01A  F086         	movff	?_floorf,efgtoa@l
  8894  001748  C01B  F087         	movff	?_floorf+1,efgtoa@l+1
  8895  00174C  C01C  F088         	movff	?_floorf+2,efgtoa@l+2
  8896  001750  C01D  F089         	movff	?_floorf+3,efgtoa@l+3
  8897                           
  8898                           ;C:\Program Files (x86)\Microchip\xc8\v2.05\pic\sources\c99\common\doprnt.c: 448:       
      +                            d = (int)l;
  8899  001754  C086  F001         	movff	efgtoa@l,___fltol@f1
  8900  001758  C087  F002         	movff	efgtoa@l+1,___fltol@f1+1
  8901  00175C  C088  F003         	movff	efgtoa@l+2,___fltol@f1+2
  8902  001760  C089  F004         	movff	efgtoa@l+3,___fltol@f1+3
  8903  001764  EC74  F020         	call	___fltol	;wreg free
  8904  001768  C001  F078         	movff	?___fltol,efgtoa@d
  8905  00176C  C002  F079         	movff	?___fltol+1,efgtoa@d+1
  8906                           
  8907                           ;C:\Program Files (x86)\Microchip\xc8\v2.05\pic\sources\c99\common\doprnt.c: 449:       
      +                            if (!(flags & (1 << 4)) && !d && (mode == 'g') && (ne < 0)) {
  8908  001770  0100               	movlb	0	; () banked
  8909  001772  B9F2               	btfsc	_flags& (0+255),4,b
  8910  001774  D00C               	goto	l5400
  8911                           
  8912                           ; BSR set to: 0
  8913  001776  5178               	movf	efgtoa@d& (0+255),w,b
  8914  001778  1179               	iorwf	(efgtoa@d+1)& (0+255),w,b
  8915  00177A  A4D8               	btfss	status,2,c
  8916  00177C  D008               	goto	l5400
  8917                           
  8918                           ; BSR set to: 0
  8919  00177E  0E67               	movlw	103
  8920  001780  1981               	xorwf	efgtoa@mode& (0+255),w,b
  8921  001782  B4D8               	btfsc	status,2,c
  8922                           
  8923                           ; BSR set to: 0
  8924  001784  AF77               	btfss	(efgtoa@ne+1)& (0+255),7,b
  8925  001786  D003               	goto	l5400
  8926                           
  8927                           ; BSR set to: 0
  8928                           ;C:\Program Files (x86)\Microchip\xc8\v2.05\pic\sources\c99\common\doprnt.c: 450:       
      +                                ++t;
  8929  001788  4B70               	infsnz	efgtoa@t& (0+255),f,b
  8930  00178A  2B71               	incf	(efgtoa@t+1)& (0+255),f,b
  8931                           
  8932                           ;C:\Program Files (x86)\Microchip\xc8\v2.05\pic\sources\c99\common\doprnt.c: 451:       
      +                            } else {
  8933  00178C  D039               	goto	l5428
  8934  00178E                     l5400:
  8935                           
  8936                           ; BSR set to: 0
  8937                           ;C:\Program Files (x86)\Microchip\xc8\v2.05\pic\sources\c99\common\doprnt.c: 452:       
      +                                if (!pp && (ne < 0)) {
  8938  00178E  5172               	movf	efgtoa@pp& (0+255),w,b
  8939  001790  1173               	iorwf	(efgtoa@pp+1)& (0+255),w,b
  8940  001792  B4D8               	btfsc	status,2,c
  8941                           
  8942                           ; BSR set to: 0
  8943  001794  AF77               	btfss	(efgtoa@ne+1)& (0+255),7,b
  8944  001796  D022               	goto	l5420
  8945                           
  8946                           ; BSR set to: 0
  8947                           ;C:\Program Files (x86)\Microchip\xc8\v2.05\pic\sources\c99\common\doprnt.c: 453:       
      +                                    dbuf[n++] = '.';
  8948  001798  0E1A               	movlw	low _dbuf
  8949  00179A  2592               	addwf	efgtoa@n& (0+255),w,b
  8950  00179C  6ED9               	movwf	fsr2l,c
  8951  00179E  0E01               	movlw	high _dbuf
  8952  0017A0  2193               	addwfc	(efgtoa@n+1)& (0+255),w,b
  8953  0017A2  6EDA               	movwf	fsr2h,c
  8954  0017A4  0E2E               	movlw	46
  8955  0017A6  6EDF               	movwf	indf2,c
  8956                           
  8957                           ; BSR set to: 0
  8958  0017A8  4B92               	infsnz	efgtoa@n& (0+255),f,b
  8959  0017AA  2B93               	incf	(efgtoa@n+1)& (0+255),f,b
  8960                           
  8961                           ; BSR set to: 0
  8962                           ;C:\Program Files (x86)\Microchip\xc8\v2.05\pic\sources\c99\common\doprnt.c: 454:       
      +                                    --w;
  8963  0017AC  077F               	decf	efgtoa@w& (0+255),f,b
  8964  0017AE  A0D8               	btfss	status,0,c
  8965  0017B0  0780               	decf	(efgtoa@w+1)& (0+255),f,b
  8966                           
  8967                           ; BSR set to: 0
  8968                           ;C:\Program Files (x86)\Microchip\xc8\v2.05\pic\sources\c99\common\doprnt.c: 455:       
      +                                    pp = 1;
  8969  0017B2  0E00               	movlw	0
  8970  0017B4  6F73               	movwf	(efgtoa@pp+1)& (0+255),b
  8971  0017B6  0E01               	movlw	1
  8972  0017B8  6F72               	movwf	efgtoa@pp& (0+255),b
  8973  0017BA  D010               	goto	l5420
  8974  0017BC                     l5412:
  8975                           
  8976                           ; BSR set to: 0
  8977                           ;C:\Program Files (x86)\Microchip\xc8\v2.05\pic\sources\c99\common\doprnt.c: 458:       
      +                                    dbuf[n++] = '0';
  8978  0017BC  0E1A               	movlw	low _dbuf
  8979  0017BE  2592               	addwf	efgtoa@n& (0+255),w,b
  8980  0017C0  6ED9               	movwf	fsr2l,c
  8981  0017C2  0E01               	movlw	high _dbuf
  8982  0017C4  2193               	addwfc	(efgtoa@n+1)& (0+255),w,b
  8983  0017C6  6EDA               	movwf	fsr2h,c
  8984  0017C8  0E30               	movlw	48
  8985  0017CA  6EDF               	movwf	indf2,c
  8986                           
  8987                           ; BSR set to: 0
  8988  0017CC  4B92               	infsnz	efgtoa@n& (0+255),f,b
  8989  0017CE  2B93               	incf	(efgtoa@n+1)& (0+255),f,b
  8990                           
  8991                           ; BSR set to: 0
  8992                           ;C:\Program Files (x86)\Microchip\xc8\v2.05\pic\sources\c99\common\doprnt.c: 459:       
      +                                    --w;
  8993  0017D0  077F               	decf	efgtoa@w& (0+255),f,b
  8994  0017D2  A0D8               	btfss	status,0,c
  8995  0017D4  0780               	decf	(efgtoa@w+1)& (0+255),f,b
  8996                           
  8997                           ; BSR set to: 0
  8998                           ;C:\Program Files (x86)\Microchip\xc8\v2.05\pic\sources\c99\common\doprnt.c: 460:       
      +                                    --t;
  8999  0017D6  0770               	decf	efgtoa@t& (0+255),f,b
  9000  0017D8  A0D8               	btfss	status,0,c
  9001  0017DA  0771               	decf	(efgtoa@t+1)& (0+255),f,b
  9002  0017DC                     l5420:
  9003                           
  9004                           ; BSR set to: 0
  9005                           ;C:\Program Files (x86)\Microchip\xc8\v2.05\pic\sources\c99\common\doprnt.c: 457:       
      +                                while (t) {
  9006  0017DC  5170               	movf	efgtoa@t& (0+255),w,b
  9007  0017DE  1171               	iorwf	(efgtoa@t+1)& (0+255),w,b
  9008  0017E0  A4D8               	btfss	status,2,c
  9009  0017E2  D7EC               	goto	l5412
  9010                           
  9011                           ; BSR set to: 0
  9012                           ;C:\Program Files (x86)\Microchip\xc8\v2.05\pic\sources\c99\common\doprnt.c: 462:       
      +                                dbuf[n++] = '0' + d;
  9013  0017E4  0E1A               	movlw	low _dbuf
  9014  0017E6  2592               	addwf	efgtoa@n& (0+255),w,b
  9015  0017E8  6ED9               	movwf	fsr2l,c
  9016  0017EA  0E01               	movlw	high _dbuf
  9017  0017EC  2193               	addwfc	(efgtoa@n+1)& (0+255),w,b
  9018  0017EE  6EDA               	movwf	fsr2h,c
  9019  0017F0  5178               	movf	efgtoa@d& (0+255),w,b
  9020  0017F2  0F30               	addlw	48
  9021  0017F4  6EDF               	movwf	indf2,c
  9022                           
  9023                           ; BSR set to: 0
  9024  0017F6  4B92               	infsnz	efgtoa@n& (0+255),f,b
  9025  0017F8  2B93               	incf	(efgtoa@n+1)& (0+255),f,b
  9026                           
  9027                           ; BSR set to: 0
  9028                           ;C:\Program Files (x86)\Microchip\xc8\v2.05\pic\sources\c99\common\doprnt.c: 463:       
      +                                --w;
  9029  0017FA  077F               	decf	efgtoa@w& (0+255),f,b
  9030  0017FC  A0D8               	btfss	status,0,c
  9031  0017FE  0780               	decf	(efgtoa@w+1)& (0+255),f,b
  9032  001800                     l5428:
  9033                           
  9034                           ; BSR set to: 0
  9035                           ;C:\Program Files (x86)\Microchip\xc8\v2.05\pic\sources\c99\common\doprnt.c: 465:       
      +                            h -= l*u;
  9036  001800  C082  F02A         	movff	efgtoa@h,___flsub@b
  9037  001804  C083  F02B         	movff	efgtoa@h+1,___flsub@b+1
  9038  001808  C084  F02C         	movff	efgtoa@h+2,___flsub@b+2
  9039  00180C  C085  F02D         	movff	efgtoa@h+3,___flsub@b+3
  9040  001810  C094  F005         	movff	efgtoa@u,___flmul@a
  9041  001814  C095  F006         	movff	efgtoa@u+1,___flmul@a+1
  9042  001818  C096  F007         	movff	efgtoa@u+2,___flmul@a+2
  9043  00181C  C097  F008         	movff	efgtoa@u+3,___flmul@a+3
  9044  001820  C086  F001         	movff	efgtoa@l,___flmul@b
  9045  001824  C087  F002         	movff	efgtoa@l+1,___flmul@b+1
  9046  001828  C088  F003         	movff	efgtoa@l+2,___flmul@b+2
  9047  00182C  C089  F004         	movff	efgtoa@l+3,___flmul@b+3
  9048  001830  EC05  F014         	call	___flmul	;wreg free
  9049  001834  C001  F02E         	movff	?___flmul,___flsub@a
  9050  001838  C002  F02F         	movff	?___flmul+1,___flsub@a+1
  9051  00183C  C003  F030         	movff	?___flmul+2,___flsub@a+2
  9052  001840  C004  F031         	movff	?___flmul+3,___flsub@a+3
  9053  001844  ECB1  F024         	call	___flsub	;wreg free
  9054  001848  C02A  F082         	movff	?___flsub,efgtoa@h
  9055  00184C  C02B  F083         	movff	?___flsub+1,efgtoa@h+1
  9056  001850  C02C  F084         	movff	?___flsub+2,efgtoa@h+2
  9057  001854  C02D  F085         	movff	?___flsub+3,efgtoa@h+3
  9058                           
  9059                           ;C:\Program Files (x86)\Microchip\xc8\v2.05\pic\sources\c99\common\doprnt.c: 466:       
      +                            u = u/10.0;
  9060  001858  C094  F001         	movff	efgtoa@u,___fldiv@b
  9061  00185C  C095  F002         	movff	efgtoa@u+1,___fldiv@b+1
  9062  001860  C096  F003         	movff	efgtoa@u+2,___fldiv@b+2
  9063  001864  C097  F004         	movff	efgtoa@u+3,___fldiv@b+3
  9064  001868  0E00               	movlw	0
  9065  00186A  6E05               	movwf	___fldiv@a,c
  9066  00186C  0E00               	movlw	0
  9067  00186E  6E06               	movwf	___fldiv@a+1,c
  9068  001870  0E20               	movlw	32
  9069  001872  6E07               	movwf	___fldiv@a+2,c
  9070  001874  0E41               	movlw	65
  9071  001876  6E08               	movwf	___fldiv@a+3,c
  9072  001878  EC34  F017         	call	___fldiv	;wreg free
  9073  00187C  C001  F094         	movff	?___fldiv,efgtoa@u
  9074  001880  C002  F095         	movff	?___fldiv+1,efgtoa@u+1
  9075  001884  C003  F096         	movff	?___fldiv+2,efgtoa@u+2
  9076  001888  C004  F097         	movff	?___fldiv+3,efgtoa@u+3
  9077                           
  9078                           ;C:\Program Files (x86)\Microchip\xc8\v2.05\pic\sources\c99\common\doprnt.c: 467:       
      +                            --ne;
  9079  00188C  0100               	movlb	0	; () banked
  9080  00188E  0776               	decf	efgtoa@ne& (0+255),f,b
  9081  001890  A0D8               	btfss	status,0,c
  9082  001892  0777               	decf	(efgtoa@ne+1)& (0+255),f,b
  9083                           
  9084                           ; BSR set to: 0
  9085                           ;C:\Program Files (x86)\Microchip\xc8\v2.05\pic\sources\c99\common\doprnt.c: 468:       
      +                            ++i;
  9086  001894  4B8A               	infsnz	efgtoa@i& (0+255),f,b
  9087  001896  2B8B               	incf	(efgtoa@i+1)& (0+255),f,b
  9088  001898                     l5436:
  9089                           
  9090                           ; BSR set to: 0
  9091                           ;C:\Program Files (x86)\Microchip\xc8\v2.05\pic\sources\c99\common\doprnt.c: 446:     wh
      +                          ile ((i < m) && (n < (80 - 5))) {
  9092  001898  5174               	movf	efgtoa@m& (0+255),w,b
  9093  00189A  5D8A               	subwf	efgtoa@i& (0+255),w,b
  9094  00189C  518B               	movf	(efgtoa@i+1)& (0+255),w,b
  9095  00189E  0A80               	xorlw	128
  9096  0018A0  6E39               	movwf	??_efgtoa& (0+255),c
  9097  0018A2  5175               	movf	(efgtoa@m+1)& (0+255),w,b
  9098  0018A4  0A80               	xorlw	128
  9099  0018A6  5839               	subwfb	??_efgtoa& (0+255),w,c
  9100  0018A8  B0D8               	btfsc	status,0,c
  9101  0018AA  D008               	goto	u5700
  9102                           
  9103                           ; BSR set to: 0
  9104  0018AC  BF93               	btfsc	(efgtoa@n+1)& (0+255),7,b
  9105  0018AE  D72E               	goto	l5388
  9106  0018B0  5193               	movf	(efgtoa@n+1)& (0+255),w,b
  9107  0018B2  E104               	bnz	u5700
  9108  0018B4  0E4B               	movlw	75
  9109  0018B6  5D92               	subwf	efgtoa@n& (0+255),w,b
  9110  0018B8  A0D8               	btfss	status,0,c
  9111  0018BA  D728               	goto	l5388
  9112  0018BC                     u5700:
  9113                           
  9114                           ; BSR set to: 0
  9115                           ;C:\Program Files (x86)\Microchip\xc8\v2.05\pic\sources\c99\common\doprnt.c: 470:     if
      +                           (!pp && (flags & (1 << 4))) {
  9116  0018BC  5172               	movf	efgtoa@pp& (0+255),w,b
  9117  0018BE  1173               	iorwf	(efgtoa@pp+1)& (0+255),w,b
  9118  0018C0  B4D8               	btfsc	status,2,c
  9119                           
  9120                           ; BSR set to: 0
  9121  0018C2  A9F2               	btfss	_flags& (0+255),4,b
  9122  0018C4  D00A               	goto	l5448
  9123                           
  9124                           ; BSR set to: 0
  9125                           ;C:\Program Files (x86)\Microchip\xc8\v2.05\pic\sources\c99\common\doprnt.c: 471:       
      +                            dbuf[n++] = '.';
  9126  0018C6  0E1A               	movlw	low _dbuf
  9127  0018C8  2592               	addwf	efgtoa@n& (0+255),w,b
  9128  0018CA  6ED9               	movwf	fsr2l,c
  9129  0018CC  0E01               	movlw	high _dbuf
  9130  0018CE  2193               	addwfc	(efgtoa@n+1)& (0+255),w,b
  9131  0018D0  6EDA               	movwf	fsr2h,c
  9132  0018D2  0E2E               	movlw	46
  9133  0018D4  6EDF               	movwf	indf2,c
  9134                           
  9135                           ; BSR set to: 0
  9136  0018D6  4B92               	infsnz	efgtoa@n& (0+255),f,b
  9137  0018D8  2B93               	incf	(efgtoa@n+1)& (0+255),f,b
  9138  0018DA                     l5448:
  9139                           
  9140                           ; BSR set to: 0
  9141                           ;C:\Program Files (x86)\Microchip\xc8\v2.05\pic\sources\c99\common\doprnt.c: 473:     db
      +                          uf[n] = '\0';
  9142  0018DA  0E1A               	movlw	low _dbuf
  9143  0018DC  2592               	addwf	efgtoa@n& (0+255),w,b
  9144  0018DE  6ED9               	movwf	fsr2l,c
  9145  0018E0  0E01               	movlw	high _dbuf
  9146  0018E2  2193               	addwfc	(efgtoa@n+1)& (0+255),w,b
  9147  0018E4  6EDA               	movwf	fsr2h,c
  9148  0018E6  0E00               	movlw	0
  9149  0018E8  6EDF               	movwf	indf2,c
  9150                           
  9151                           ; BSR set to: 0
  9152                           ;C:\Program Files (x86)\Microchip\xc8\v2.05\pic\sources\c99\common\doprnt.c: 476:     if
      +                           (nmode == 'e') {
  9153  0018EA  0E65               	movlw	101
  9154  0018EC  197E               	xorwf	efgtoa@nmode& (0+255),w,b
  9155  0018EE  A4D8               	btfss	status,2,c
  9156  0018F0  D47F               	goto	l5260
  9157                           
  9158                           ; BSR set to: 0
  9159                           ;C:\Program Files (x86)\Microchip\xc8\v2.05\pic\sources\c99\common\doprnt.c: 477:       
      +                            i = sizeof(dbuf) - 1;
  9160  0018F2  0E00               	movlw	0
  9161  0018F4  6F8B               	movwf	(efgtoa@i+1)& (0+255),b
  9162  0018F6  0E4F               	movlw	79
  9163  0018F8  6F8A               	movwf	efgtoa@i& (0+255),b
  9164                           
  9165                           ; BSR set to: 0
  9166                           ;C:\Program Files (x86)\Microchip\xc8\v2.05\pic\sources\c99\common\doprnt.c: 478:       
      +                            dbuf[i] = '\0';
  9167  0018FA  0E1A               	movlw	low _dbuf
  9168  0018FC  258A               	addwf	efgtoa@i& (0+255),w,b
  9169  0018FE  6ED9               	movwf	fsr2l,c
  9170  001900  0E01               	movlw	high _dbuf
  9171  001902  218B               	addwfc	(efgtoa@i+1)& (0+255),w,b
  9172  001904  6EDA               	movwf	fsr2h,c
  9173  001906  0E00               	movlw	0
  9174  001908  6EDF               	movwf	indf2,c
  9175                           
  9176                           ; BSR set to: 0
  9177                           ;C:\Program Files (x86)\Microchip\xc8\v2.05\pic\sources\c99\common\doprnt.c: 479:       
      +                            sign = 0;
  9178  00190A  0E00               	movlw	0
  9179  00190C  6F7B               	movwf	(efgtoa@sign+1)& (0+255),b
  9180  00190E  0E00               	movlw	0
  9181  001910  6F7A               	movwf	efgtoa@sign& (0+255),b
  9182                           
  9183                           ; BSR set to: 0
  9184                           ;C:\Program Files (x86)\Microchip\xc8\v2.05\pic\sources\c99\common\doprnt.c: 480:       
      +                            if (e < 0) {
  9185  001912  AF91               	btfss	(efgtoa@e+1)& (0+255),7,b
  9186  001914  D008               	goto	l5464
  9187                           
  9188                           ; BSR set to: 0
  9189                           ;C:\Program Files (x86)\Microchip\xc8\v2.05\pic\sources\c99\common\doprnt.c: 481:       
      +                                sign = 1;
  9190  001916  0E00               	movlw	0
  9191  001918  6F7B               	movwf	(efgtoa@sign+1)& (0+255),b
  9192  00191A  0E01               	movlw	1
  9193  00191C  6F7A               	movwf	efgtoa@sign& (0+255),b
  9194                           
  9195                           ; BSR set to: 0
  9196                           ;C:\Program Files (x86)\Microchip\xc8\v2.05\pic\sources\c99\common\doprnt.c: 482:       
      +                                e = -e;
  9197  00191E  6D90               	negf	efgtoa@e& (0+255),b
  9198  001920  1F91               	comf	(efgtoa@e+1)& (0+255),f,b
  9199  001922  B0D8               	btfsc	status,0,c
  9200  001924  2B91               	incf	(efgtoa@e+1)& (0+255),f,b
  9201  001926                     l5464:
  9202                           
  9203                           ; BSR set to: 0
  9204                           ;C:\Program Files (x86)\Microchip\xc8\v2.05\pic\sources\c99\common\doprnt.c: 484:       
      +                            p = 2;
  9205  001926  0E00               	movlw	0
  9206  001928  6F7D               	movwf	(efgtoa@p+1)& (0+255),b
  9207  00192A  0E02               	movlw	2
  9208  00192C  6F7C               	movwf	efgtoa@p& (0+255),b
  9209                           
  9210                           ;C:\Program Files (x86)\Microchip\xc8\v2.05\pic\sources\c99\common\doprnt.c: 485:       
      +                            while (e || (0 < p)) {
  9211  00192E  D02B               	goto	l5476
  9212  001930                     l5466:
  9213                           
  9214                           ; BSR set to: 0
  9215                           ;C:\Program Files (x86)\Microchip\xc8\v2.05\pic\sources\c99\common\doprnt.c: 486:       
      +                                --i;
  9216  001930  078A               	decf	efgtoa@i& (0+255),f,b
  9217  001932  A0D8               	btfss	status,0,c
  9218  001934  078B               	decf	(efgtoa@i+1)& (0+255),f,b
  9219                           
  9220                           ; BSR set to: 0
  9221                           ;C:\Program Files (x86)\Microchip\xc8\v2.05\pic\sources\c99\common\doprnt.c: 487:       
      +                                dbuf[i] = '0' + (e % 10);
  9222  001936  0E1A               	movlw	low _dbuf
  9223  001938  258A               	addwf	efgtoa@i& (0+255),w,b
  9224  00193A  6ED9               	movwf	fsr2l,c
  9225  00193C  0E01               	movlw	high _dbuf
  9226  00193E  218B               	addwfc	(efgtoa@i+1)& (0+255),w,b
  9227  001940  6EDA               	movwf	fsr2h,c
  9228  001942  C090  F001         	movff	efgtoa@e,___awmod@dividend
  9229  001946  C091  F002         	movff	efgtoa@e+1,___awmod@dividend+1
  9230  00194A  0E00               	movlw	0
  9231  00194C  6E04               	movwf	___awmod@divisor+1,c
  9232  00194E  0E0A               	movlw	10
  9233  001950  6E03               	movwf	___awmod@divisor,c
  9234  001952  EC15  F023         	call	___awmod	;wreg free
  9235  001956  5001               	movf	?___awmod,w,c
  9236  001958  0F30               	addlw	48
  9237  00195A  6EDF               	movwf	indf2,c
  9238                           
  9239                           ;C:\Program Files (x86)\Microchip\xc8\v2.05\pic\sources\c99\common\doprnt.c: 488:       
      +                                e = e / 10;
  9240  00195C  C090  F001         	movff	efgtoa@e,___awdiv@dividend
  9241  001960  C091  F002         	movff	efgtoa@e+1,___awdiv@dividend+1
  9242  001964  0E00               	movlw	0
  9243  001966  6E04               	movwf	___awdiv@divisor+1,c
  9244  001968  0E0A               	movlw	10
  9245  00196A  6E03               	movwf	___awdiv@divisor,c
  9246  00196C  EC5C  F022         	call	___awdiv	;wreg free
  9247  001970  C001  F090         	movff	?___awdiv,efgtoa@e
  9248  001974  C002  F091         	movff	?___awdiv+1,efgtoa@e+1
  9249                           
  9250                           ;C:\Program Files (x86)\Microchip\xc8\v2.05\pic\sources\c99\common\doprnt.c: 489:       
      +                                --p;
  9251  001978  0100               	movlb	0	; () banked
  9252  00197A  077C               	decf	efgtoa@p& (0+255),f,b
  9253  00197C  A0D8               	btfss	status,0,c
  9254  00197E  077D               	decf	(efgtoa@p+1)& (0+255),f,b
  9255                           
  9256                           ; BSR set to: 0
  9257                           ;C:\Program Files (x86)\Microchip\xc8\v2.05\pic\sources\c99\common\doprnt.c: 490:       
      +                                --w;
  9258  001980  077F               	decf	efgtoa@w& (0+255),f,b
  9259  001982  A0D8               	btfss	status,0,c
  9260  001984  0780               	decf	(efgtoa@w+1)& (0+255),f,b
  9261  001986                     l5476:
  9262                           
  9263                           ; BSR set to: 0
  9264                           ;C:\Program Files (x86)\Microchip\xc8\v2.05\pic\sources\c99\common\doprnt.c: 485:       
      +                            while (e || (0 < p)) {
  9265  001986  5190               	movf	efgtoa@e& (0+255),w,b
  9266  001988  1191               	iorwf	(efgtoa@e+1)& (0+255),w,b
  9267  00198A  A4D8               	btfss	status,2,c
  9268  00198C  D7D1               	goto	l5466
  9269                           
  9270                           ; BSR set to: 0
  9271  00198E  BF7D               	btfsc	(efgtoa@p+1)& (0+255),7,b
  9272  001990  D005               	goto	u5760
  9273  001992  517D               	movf	(efgtoa@p+1)& (0+255),w,b
  9274  001994  E1CD               	bnz	l5466
  9275  001996  057C               	decf	efgtoa@p& (0+255),w,b
  9276  001998  B0D8               	btfsc	status,0,c
  9277  00199A  D7CA               	goto	l5466
  9278  00199C                     u5760:
  9279                           
  9280                           ; BSR set to: 0
  9281                           ;C:\Program Files (x86)\Microchip\xc8\v2.05\pic\sources\c99\common\doprnt.c: 492:       
      +                            --i;
  9282  00199C  078A               	decf	efgtoa@i& (0+255),f,b
  9283  00199E  A0D8               	btfss	status,0,c
  9284  0019A0  078B               	decf	(efgtoa@i+1)& (0+255),f,b
  9285                           
  9286                           ; BSR set to: 0
  9287                           ;C:\Program Files (x86)\Microchip\xc8\v2.05\pic\sources\c99\common\doprnt.c: 493:       
      +                            dbuf[i] = sign ? '-' : '+';
  9288  0019A2  517A               	movf	efgtoa@sign& (0+255),w,b
  9289  0019A4  117B               	iorwf	(efgtoa@sign+1)& (0+255),w,b
  9290  0019A6  A4D8               	btfss	status,2,c
  9291  0019A8  D004               	goto	l5486
  9292                           
  9293                           ; BSR set to: 0
  9294  0019AA  0E00               	movlw	0
  9295  0019AC  6F6B               	movwf	(_efgtoa$1102+1)& (0+255),b
  9296  0019AE  0E2B               	movlw	43
  9297  0019B0  D003               	goto	L8
  9298  0019B2                     l5486:
  9299                           
  9300                           ; BSR set to: 0
  9301  0019B2  0E00               	movlw	0
  9302  0019B4  6F6B               	movwf	(_efgtoa$1102+1)& (0+255),b
  9303  0019B6  0E2D               	movlw	45
  9304  0019B8                     L8:
  9305  0019B8  6F6A               	movwf	_efgtoa$1102& (0+255),b
  9306                           
  9307                           ; BSR set to: 0
  9308  0019BA  0E1A               	movlw	low _dbuf
  9309  0019BC  258A               	addwf	efgtoa@i& (0+255),w,b
  9310  0019BE  6ED9               	movwf	fsr2l,c
  9311  0019C0  0E01               	movlw	high _dbuf
  9312  0019C2  218B               	addwfc	(efgtoa@i+1)& (0+255),w,b
  9313  0019C4  6EDA               	movwf	fsr2h,c
  9314  0019C6  C06A  FFDF         	movff	_efgtoa$1102,indf2
  9315                           
  9316                           ; BSR set to: 0
  9317                           ;C:\Program Files (x86)\Microchip\xc8\v2.05\pic\sources\c99\common\doprnt.c: 494:       
      +                            --w;
  9318  0019CA  077F               	decf	efgtoa@w& (0+255),f,b
  9319  0019CC  A0D8               	btfss	status,0,c
  9320  0019CE  0780               	decf	(efgtoa@w+1)& (0+255),f,b
  9321                           
  9322                           ; BSR set to: 0
  9323                           ;C:\Program Files (x86)\Microchip\xc8\v2.05\pic\sources\c99\common\doprnt.c: 496:       
      +                            dbuf[i] = (0 ? isupper((int)c) : ((unsigned)((int)c)-'A') < 26) ? 'E' : 'e';
  9324  0019D0  078A               	decf	efgtoa@i& (0+255),f,b
  9325  0019D2  A0D8               	btfss	status,0,c
  9326  0019D4  078B               	decf	(efgtoa@i+1)& (0+255),f,b
  9327                           
  9328                           ; BSR set to: 0
  9329  0019D6  0EBF               	movlw	191
  9330  0019D8  6E39               	movwf	??_efgtoa& (0+255),c
  9331  0019DA  0EFF               	movlw	255
  9332  0019DC  6E3A               	movwf	(??_efgtoa+1)& (0+255),c
  9333  0019DE  5038               	movf	efgtoa@c,w,c
  9334  0019E0  6E3B               	movwf	(??_efgtoa+2)& (0+255),c
  9335  0019E2  6A3C               	clrf	(??_efgtoa+3)& (0+255),c
  9336  0019E4  5039               	movf	??_efgtoa,w,c
  9337  0019E6  263B               	addwf	??_efgtoa+2,f,c
  9338  0019E8  503A               	movf	??_efgtoa+1,w,c
  9339  0019EA  223C               	addwfc	??_efgtoa+3,f,c
  9340  0019EC  503C               	movf	??_efgtoa+3,w,c
  9341  0019EE  E106               	bnz	u5780
  9342  0019F0  0E1A               	movlw	26
  9343  0019F2  5C3B               	subwf	??_efgtoa+2,w,c
  9344  0019F4  B0D8               	btfsc	status,0,c
  9345  0019F6  D002               	goto	u5780
  9346  0019F8  0E01               	movlw	1
  9347  0019FA  D001               	goto	u5790
  9348  0019FC                     u5780:
  9349  0019FC  0E00               	movlw	0
  9350  0019FE                     u5790:
  9351  0019FE  6F6E               	movwf	_efgtoa$1104& (0+255),b
  9352  001A00  6B6F               	clrf	(_efgtoa$1104+1)& (0+255),b
  9353                           
  9354                           ; BSR set to: 0
  9355  001A02  516E               	movf	_efgtoa$1104& (0+255),w,b
  9356  001A04  116F               	iorwf	(_efgtoa$1104+1)& (0+255),w,b
  9357  001A06  A4D8               	btfss	status,2,c
  9358  001A08  D004               	goto	l5502
  9359                           
  9360                           ; BSR set to: 0
  9361  001A0A  0E00               	movlw	0
  9362  001A0C  6F6D               	movwf	(_efgtoa$1103+1)& (0+255),b
  9363  001A0E  0E65               	movlw	101
  9364  001A10  D003               	goto	L9
  9365  001A12                     l5502:
  9366                           
  9367                           ; BSR set to: 0
  9368  001A12  0E00               	movlw	0
  9369  001A14  6F6D               	movwf	(_efgtoa$1103+1)& (0+255),b
  9370  001A16  0E45               	movlw	69
  9371  001A18                     L9:
  9372  001A18  6F6C               	movwf	_efgtoa$1103& (0+255),b
  9373                           
  9374                           ; BSR set to: 0
  9375  001A1A  0E1A               	movlw	low _dbuf
  9376  001A1C  258A               	addwf	efgtoa@i& (0+255),w,b
  9377  001A1E  6ED9               	movwf	fsr2l,c
  9378  001A20  0E01               	movlw	high _dbuf
  9379  001A22  218B               	addwfc	(efgtoa@i+1)& (0+255),w,b
  9380  001A24  6EDA               	movwf	fsr2h,c
  9381  001A26  C06C  FFDF         	movff	_efgtoa$1103,indf2
  9382                           
  9383                           ; BSR set to: 0
  9384                           ;C:\Program Files (x86)\Microchip\xc8\v2.05\pic\sources\c99\common\doprnt.c: 497:       
      +                            --w;
  9385  001A2A  077F               	decf	efgtoa@w& (0+255),f,b
  9386  001A2C  A0D8               	btfss	status,0,c
  9387  001A2E  0780               	decf	(efgtoa@w+1)& (0+255),f,b
  9388                           
  9389                           ; BSR set to: 0
  9390                           ;C:\Program Files (x86)\Microchip\xc8\v2.05\pic\sources\c99\common\doprnt.c: 498:       
      +                            strcpy(&dbuf[n], &dbuf[i]);
  9391  001A30  0E1A               	movlw	low _dbuf
  9392  001A32  2592               	addwf	efgtoa@n& (0+255),w,b
  9393  001A34  6E01               	movwf	strcpy@dest,c
  9394  001A36  0E01               	movlw	high _dbuf
  9395  001A38  2193               	addwfc	(efgtoa@n+1)& (0+255),w,b
  9396  001A3A  6E02               	movwf	strcpy@dest+1,c
  9397  001A3C  0E1A               	movlw	low _dbuf
  9398  001A3E  258A               	addwf	efgtoa@i& (0+255),w,b
  9399  001A40  6E03               	movwf	strcpy@src,c
  9400  001A42  0E01               	movlw	high _dbuf
  9401  001A44  218B               	addwfc	(efgtoa@i+1)& (0+255),w,b
  9402  001A46  6E04               	movwf	strcpy@src+1,c
  9403  001A48  EC3A  F024         	call	_strcpy	;wreg free
  9404  001A4C  EFF8  F008         	goto	l5260
  9405  001A50                     __end_of_efgtoa:
  9406                           	opt callstack 0
  9407                           
  9408 ;; *************** function _tolower *****************
  9409 ;; Defined at:
  9410 ;;		line 4 in file "C:\Program Files (x86)\Microchip\xc8\v2.05\pic\sources\c99\common\tolower.c"
  9411 ;; Parameters:    Size  Location     Type
  9412 ;;  c               2    6[COMRAM] int 
  9413 ;; Auto vars:     Size  Location     Type
  9414 ;;		None
  9415 ;; Return value:  Size  Location     Type
  9416 ;;                  2    6[COMRAM] int 
  9417 ;; Registers used:
  9418 ;;		wreg, status,2, status,0
  9419 ;; Tracked objects:
  9420 ;;		On entry : 0/0
  9421 ;;		On exit  : 0/0
  9422 ;;		Unchanged: 0/0
  9423 ;; Data sizes:     COMRAM   BANK0   BANK1   BANK2   BANK3   BANK4   BANK5   BANK6   BANK7
  9424 ;;      Params:         2       0       0       0       0       0       0       0       0
  9425 ;;      Locals:         2       0       0       0       0       0       0       0       0
  9426 ;;      Temps:          4       0       0       0       0       0       0       0       0
  9427 ;;      Totals:         8       0       0       0       0       0       0       0       0
  9428 ;;Total ram usage:        8 bytes
  9429 ;; Hardware stack levels used:    1
  9430 ;; Hardware stack levels required when called:    3
  9431 ;; This function calls:
  9432 ;;		_isupper
  9433 ;; This function is called by:
  9434 ;;		_efgtoa
  9435 ;;		_vfpfcnvrt
  9436 ;; This function uses a non-reentrant model
  9437 ;;
  9438                           
  9439                           	psect	text11
  9440  004916                     __ptext11:
  9441                           	opt callstack 0
  9442  004916                     _tolower:
  9443                           	opt callstack 24
  9444                           
  9445                           ;incstack = 0
  9446  004916  0EBF               	movlw	191
  9447  004918  6E09               	movwf	??_tolower& (0+255),c
  9448  00491A  0EFF               	movlw	255
  9449  00491C  6E0A               	movwf	(??_tolower+1)& (0+255),c
  9450  00491E  C007  F00B         	movff	tolower@c,??_tolower+2
  9451  004922  C008  F00C         	movff	tolower@c+1,??_tolower+3
  9452  004926  5009               	movf	??_tolower,w,c
  9453  004928  260B               	addwf	??_tolower+2,f,c
  9454  00492A  500A               	movf	??_tolower+1,w,c
  9455  00492C  220C               	addwfc	??_tolower+3,f,c
  9456  00492E  500C               	movf	??_tolower+3,w,c
  9457  004930  E106               	bnz	u4130
  9458  004932  0E1A               	movlw	26
  9459  004934  5C0B               	subwf	??_tolower+2,w,c
  9460  004936  B0D8               	btfsc	status,0,c
  9461  004938  D002               	goto	u4130
  9462  00493A  0E01               	movlw	1
  9463  00493C  D001               	goto	u4140
  9464  00493E                     u4130:
  9465  00493E  0E00               	movlw	0
  9466  004940                     u4140:
  9467  004940  6E0D               	movwf	_tolower$1713,c
  9468  004942  6A0E               	clrf	_tolower$1713+1,c
  9469  004944  500D               	movf	_tolower$1713,w,c
  9470  004946  100E               	iorwf	_tolower$1713+1,w,c
  9471  004948  B4D8               	btfsc	status,2,c
  9472  00494A  D006               	goto	l1318
  9473  00494C  0E20               	movlw	32
  9474  00494E  1007               	iorwf	tolower@c,w,c
  9475  004950  6E07               	movwf	?_tolower,c
  9476  004952  5008               	movf	tolower@c+1,w,c
  9477  004954  6E08               	movwf	?_tolower+1,c
  9478  004956  0012               	return	
  9479  004958                     l1318:
  9480  004958  C007  F007         	movff	tolower@c,?_tolower
  9481  00495C  C008  F008         	movff	tolower@c+1,?_tolower+1
  9482  004960  0012               	return		;funcret
  9483  004962                     __end_of_tolower:
  9484                           	opt callstack 0
  9485                           
  9486 ;; *************** function _isupper *****************
  9487 ;; Defined at:
  9488 ;;		line 5 in file "C:\Program Files (x86)\Microchip\xc8\v2.05\pic\sources\c99\common\isupper.c"
  9489 ;; Parameters:    Size  Location     Type
  9490 ;;  c               2    0[COMRAM] int 
  9491 ;; Auto vars:     Size  Location     Type
  9492 ;;		None
  9493 ;; Return value:  Size  Location     Type
  9494 ;;                  2    0[COMRAM] int 
  9495 ;; Registers used:
  9496 ;;		wreg, status,2, status,0
  9497 ;; Tracked objects:
  9498 ;;		On entry : 0/0
  9499 ;;		On exit  : 0/0
  9500 ;;		Unchanged: 0/0
  9501 ;; Data sizes:     COMRAM   BANK0   BANK1   BANK2   BANK3   BANK4   BANK5   BANK6   BANK7
  9502 ;;      Params:         2       0       0       0       0       0       0       0       0
  9503 ;;      Locals:         0       0       0       0       0       0       0       0       0
  9504 ;;      Temps:          4       0       0       0       0       0       0       0       0
  9505 ;;      Totals:         6       0       0       0       0       0       0       0       0
  9506 ;;Total ram usage:        6 bytes
  9507 ;; Hardware stack levels used:    1
  9508 ;; Hardware stack levels required when called:    2
  9509 ;; This function calls:
  9510 ;;		Nothing
  9511 ;; This function is called by:
  9512 ;;		_efgtoa
  9513 ;;		_vfpfcnvrt
  9514 ;;		_tolower
  9515 ;; This function uses a non-reentrant model
  9516 ;;
  9517                           
  9518                           	psect	text12
  9519  004A50                     __ptext12:
  9520                           	opt callstack 0
  9521  004A50                     _isupper:
  9522                           	opt callstack 24
  9523                           
  9524                           ;incstack = 0
  9525  004A50  0EBF               	movlw	191
  9526  004A52  6E03               	movwf	??_isupper& (0+255),c
  9527  004A54  0EFF               	movlw	255
  9528  004A56  6E04               	movwf	(??_isupper+1)& (0+255),c
  9529  004A58  C001  F005         	movff	isupper@c,??_isupper+2
  9530  004A5C  C002  F006         	movff	isupper@c+1,??_isupper+3
  9531  004A60  5003               	movf	??_isupper,w,c
  9532  004A62  2605               	addwf	??_isupper+2,f,c
  9533  004A64  5004               	movf	??_isupper+1,w,c
  9534  004A66  2206               	addwfc	??_isupper+3,f,c
  9535  004A68  5006               	movf	??_isupper+3,w,c
  9536  004A6A  E106               	bnz	u3580
  9537  004A6C  0E1A               	movlw	26
  9538  004A6E  5C05               	subwf	??_isupper+2,w,c
  9539  004A70  B0D8               	btfsc	status,0,c
  9540  004A72  D002               	goto	u3580
  9541  004A74  0E01               	movlw	1
  9542  004A76  D001               	goto	u3590
  9543  004A78                     u3580:
  9544  004A78  0E00               	movlw	0
  9545  004A7A                     u3590:
  9546  004A7A  6E01               	movwf	?_isupper,c
  9547  004A7C  6A02               	clrf	?_isupper+1,c
  9548  004A7E  0012               	return		;funcret
  9549  004A80                     __end_of_isupper:
  9550                           	opt callstack 0
  9551                           
  9552 ;; *************** function _strcpy *****************
  9553 ;; Defined at:
  9554 ;;		line 7 in file "C:\Program Files (x86)\Microchip\xc8\v2.05\pic\sources\c99\common\strcpy.c"
  9555 ;; Parameters:    Size  Location     Type
  9556 ;;  dest            2    0[COMRAM] PTR unsigned char 
  9557 ;;		 -> dbuf(80), 
  9558 ;;  src             2    2[COMRAM] PTR const unsigned char 
  9559 ;;		 -> STR_105(4), STR_104(4), STR_101(4), STR_100(4), 
  9560 ;;		 -> dbuf(80), 
  9561 ;; Auto vars:     Size  Location     Type
  9562 ;;  d               2    8[COMRAM] PTR unsigned char 
  9563 ;;		 -> dbuf(80), 
  9564 ;;  s               2    6[COMRAM] PTR const unsigned char 
  9565 ;;		 -> STR_105(4), STR_104(4), STR_101(4), STR_100(4), 
  9566 ;;		 -> dbuf(80), 
  9567 ;; Return value:  Size  Location     Type
  9568 ;;                  2    0[COMRAM] PTR unsigned char 
  9569 ;; Registers used:
  9570 ;;		wreg, fsr1l, fsr1h, fsr2l, fsr2h, status,2, status,0, tblptrl, tblptrh, tblptru
  9571 ;; Tracked objects:
  9572 ;;		On entry : 0/0
  9573 ;;		On exit  : 0/0
  9574 ;;		Unchanged: 0/0
  9575 ;; Data sizes:     COMRAM   BANK0   BANK1   BANK2   BANK3   BANK4   BANK5   BANK6   BANK7
  9576 ;;      Params:         4       0       0       0       0       0       0       0       0
  9577 ;;      Locals:         4       0       0       0       0       0       0       0       0
  9578 ;;      Temps:          2       0       0       0       0       0       0       0       0
  9579 ;;      Totals:        10       0       0       0       0       0       0       0       0
  9580 ;;Total ram usage:       10 bytes
  9581 ;; Hardware stack levels used:    1
  9582 ;; Hardware stack levels required when called:    2
  9583 ;; This function calls:
  9584 ;;		Nothing
  9585 ;; This function is called by:
  9586 ;;		_efgtoa
  9587 ;; This function uses a non-reentrant model
  9588 ;;
  9589                           
  9590                           	psect	text13
  9591  004874                     __ptext13:
  9592                           	opt callstack 0
  9593  004874                     _strcpy:
  9594                           	opt callstack 24
  9595                           
  9596                           ;incstack = 0
  9597  004874  C003  F007         	movff	strcpy@src,strcpy@s
  9598  004878  C004  F008         	movff	strcpy@src+1,strcpy@s+1
  9599  00487C  C001  F009         	movff	strcpy@dest,strcpy@d
  9600  004880  C002  F00A         	movff	strcpy@dest+1,strcpy@d+1
  9601  004884                     l4554:
  9602  004884  5007               	movf	strcpy@s,w,c
  9603  004886  6E05               	movwf	??_strcpy& (0+255),c
  9604  004888  5008               	movf	strcpy@s+1,w,c
  9605  00488A  6E06               	movwf	(??_strcpy+1)& (0+255),c
  9606  00488C  4A07               	infsnz	strcpy@s,f,c
  9607  00488E  2A08               	incf	strcpy@s+1,f,c
  9608  004890  C005  FFF6         	movff	??_strcpy,tblptrl
  9609  004894  C006  FFF7         	movff	??_strcpy+1,tblptrh
  9610  004898  6AF8               	clrf	tblptru,c
  9611  00489A  C009  FFD9         	movff	strcpy@d,fsr2l
  9612  00489E  C00A  FFDA         	movff	strcpy@d+1,fsr2h
  9613  0048A2  4A09               	infsnz	strcpy@d,f,c
  9614  0048A4  2A0A               	incf	strcpy@d+1,f,c
  9615  0048A6  0E07               	movlw	(high __ramtop+-1)
  9616  0048A8  64F7               	cpfsgt	tblptrh,c
  9617  0048AA  D003               	bra	u4117
  9618  0048AC  0008               	tblrd		*
  9619  0048AE  50F5               	movf	tablat,w,c
  9620  0048B0  D005               	bra	u4110
  9621  0048B2                     u4117:
  9622  0048B2  CFF6 FFE1          	movff	tblptrl,fsr1l
  9623  0048B6  CFF7 FFE2          	movff	tblptrh,fsr1h
  9624  0048BA  50E7               	movf	indf1,w,c
  9625  0048BC                     u4110:
  9626  0048BC  6EDF               	movwf	indf2,c
  9627  0048BE  50DF               	movf	indf2,w,c
  9628  0048C0  B4D8               	btfsc	status,2,c
  9629  0048C2  0012               	return	
  9630  0048C4  D7DF               	goto	l4554
  9631  0048C6                     __end_of_strcpy:
  9632                           	opt callstack 0
  9633                           
  9634 ;; *************** function _floorf *****************
  9635 ;; Defined at:
  9636 ;;		line 3 in file "C:\Program Files (x86)\Microchip\xc8\v2.05\pic\sources\c99\common\floorf.c"
  9637 ;; Parameters:    Size  Location     Type
  9638 ;;  x               4   25[COMRAM] float 
  9639 ;; Auto vars:     Size  Location     Type
  9640 ;;  u               4   41[COMRAM] struct .
  9641 ;;  m               4   35[COMRAM] unsigned long 
  9642 ;;  e               2   39[COMRAM] int 
  9643 ;; Return value:  Size  Location     Type
  9644 ;;                  4   25[COMRAM] float 
  9645 ;; Registers used:
  9646 ;;		wreg, status,2, status,0
  9647 ;; Tracked objects:
  9648 ;;		On entry : 0/0
  9649 ;;		On exit  : 0/0
  9650 ;;		Unchanged: 0/0
  9651 ;; Data sizes:     COMRAM   BANK0   BANK1   BANK2   BANK3   BANK4   BANK5   BANK6   BANK7
  9652 ;;      Params:         4       0       0       0       0       0       0       0       0
  9653 ;;      Locals:        10       0       0       0       0       0       0       0       0
  9654 ;;      Temps:          6       0       0       0       0       0       0       0       0
  9655 ;;      Totals:        20       0       0       0       0       0       0       0       0
  9656 ;;Total ram usage:       20 bytes
  9657 ;; Hardware stack levels used:    1
  9658 ;; Hardware stack levels required when called:    2
  9659 ;; This function calls:
  9660 ;;		Nothing
  9661 ;; This function is called by:
  9662 ;;		_efgtoa
  9663 ;; This function uses a non-reentrant model
  9664 ;;
  9665                           
  9666                           	psect	text14
  9667  003338                     __ptext14:
  9668                           	opt callstack 0
  9669  003338                     _floorf:
  9670                           	opt callstack 24
  9671                           
  9672                           ;incstack = 0
  9673  003338  C112  F02A         	movff	floorf@F524,floorf@u
  9674  00333C  C113  F02B         	movff	floorf@F524+1,floorf@u+1
  9675  003340  C114  F02C         	movff	floorf@F524+2,floorf@u+2
  9676  003344  C115  F02D         	movff	floorf@F524+3,floorf@u+3
  9677  003348  C01A  F02A         	movff	floorf@x,floorf@u
  9678  00334C  C01B  F02B         	movff	floorf@x+1,floorf@u+1
  9679  003350  C01C  F02C         	movff	floorf@x+2,floorf@u+2
  9680  003354  C01D  F02D         	movff	floorf@x+3,floorf@u+3
  9681  003358  0E81               	movlw	129
  9682  00335A  6E1E               	movwf	??_floorf& (0+255),c
  9683  00335C  0EFF               	movlw	255
  9684  00335E  6E1F               	movwf	(??_floorf+1)& (0+255),c
  9685  003360  C02A  F020         	movff	floorf@u,??_floorf+2
  9686  003364  C02B  F021         	movff	floorf@u+1,??_floorf+3
  9687  003368  C02C  F022         	movff	floorf@u+2,??_floorf+4
  9688  00336C  C02D  F023         	movff	floorf@u+3,??_floorf+5
  9689  003370  0E18               	movlw	24
  9690  003372  D005               	goto	u4160
  9691  003374                     u4165:
  9692  003374  90D8               	bcf	status,0,c
  9693  003376  3223               	rrcf	??_floorf+5,f,c
  9694  003378  3222               	rrcf	??_floorf+4,f,c
  9695  00337A  3221               	rrcf	??_floorf+3,f,c
  9696  00337C  3220               	rrcf	??_floorf+2,f,c
  9697  00337E                     u4160:
  9698  00337E  2EE8               	decfsz	wreg,f,c
  9699  003380  D7F9               	goto	u4165
  9700  003382  5020               	movf	??_floorf+2,w,c
  9701  003384  241E               	addwf	??_floorf,w,c
  9702  003386  6E28               	movwf	floorf@e,c
  9703  003388  0E00               	movlw	0
  9704  00338A  201F               	addwfc	??_floorf+1,w,c
  9705  00338C  6E29               	movwf	floorf@e+1,c
  9706  00338E  BE29               	btfsc	floorf@e+1,7,c
  9707  003390  D00F               	goto	l4572
  9708  003392  5029               	movf	floorf@e+1,w,c
  9709  003394  E104               	bnz	u4170
  9710  003396  0E17               	movlw	23
  9711  003398  5C28               	subwf	floorf@e,w,c
  9712  00339A  A0D8               	btfss	status,0,c
  9713  00339C  D009               	goto	l4572
  9714  00339E                     u4170:
  9715  00339E  C01A  F01A         	movff	floorf@x,?_floorf
  9716  0033A2  C01B  F01B         	movff	floorf@x+1,?_floorf+1
  9717  0033A6  C01C  F01C         	movff	floorf@x+2,?_floorf+2
  9718  0033AA  C01D  F01D         	movff	floorf@x+3,?_floorf+3
  9719  0033AE  0012               	return	
  9720  0033B0                     l4572:
  9721  0033B0  BE29               	btfsc	floorf@e+1,7,c
  9722  0033B2  D05E               	goto	l4582
  9723  0033B4  C028  F01E         	movff	floorf@e,??_floorf
  9724  0033B8  0EFF               	movlw	255
  9725  0033BA  6E1F               	movwf	(??_floorf+1)& (0+255),c
  9726  0033BC  0EFF               	movlw	255
  9727  0033BE  6E20               	movwf	(??_floorf+2)& (0+255),c
  9728  0033C0  0E7F               	movlw	127
  9729  0033C2  6E21               	movwf	(??_floorf+3)& (0+255),c
  9730  0033C4  0E00               	movlw	0
  9731  0033C6  6E22               	movwf	(??_floorf+4)& (0+255),c
  9732  0033C8                     u4195:
  9733  0033C8  661E               	tstfsz	??_floorf,c
  9734  0033CA  D001               	goto	u4196
  9735  0033CC  D007               	goto	u4197
  9736  0033CE                     u4196:
  9737  0033CE  3422               	rlcf	??_floorf+4,w,c
  9738  0033D0  3222               	rrcf	??_floorf+4,f,c
  9739  0033D2  3221               	rrcf	??_floorf+3,f,c
  9740  0033D4  3220               	rrcf	??_floorf+2,f,c
  9741  0033D6  321F               	rrcf	??_floorf+1,f,c
  9742  0033D8  2E1E               	decfsz	??_floorf,f,c
  9743  0033DA  D7F6               	goto	u4195
  9744  0033DC                     u4197:
  9745  0033DC  C01F  F024         	movff	??_floorf+1,floorf@m
  9746  0033E0  C020  F025         	movff	??_floorf+2,floorf@m+1
  9747  0033E4  C021  F026         	movff	??_floorf+3,floorf@m+2
  9748  0033E8  C022  F027         	movff	??_floorf+4,floorf@m+3
  9749  0033EC  5024               	movf	floorf@m,w,c
  9750  0033EE  142A               	andwf	floorf@u,w,c
  9751  0033F0  6E1E               	movwf	??_floorf& (0+255),c
  9752  0033F2  5025               	movf	floorf@m+1,w,c
  9753  0033F4  142B               	andwf	floorf@u+1,w,c
  9754  0033F6  6E1F               	movwf	(??_floorf+1)& (0+255),c
  9755  0033F8  5026               	movf	floorf@m+2,w,c
  9756  0033FA  142C               	andwf	floorf@u+2,w,c
  9757  0033FC  6E20               	movwf	(??_floorf+2)& (0+255),c
  9758  0033FE  5027               	movf	floorf@m+3,w,c
  9759  003400  142D               	andwf	floorf@u+3,w,c
  9760  003402  6E21               	movwf	(??_floorf+3)& (0+255),c
  9761  003404  501E               	movf	??_floorf,w,c
  9762  003406  101F               	iorwf	??_floorf+1,w,c
  9763  003408  1020               	iorwf	??_floorf+2,w,c
  9764  00340A  1021               	iorwf	??_floorf+3,w,c
  9765  00340C  B4D8               	btfsc	status,2,c
  9766  00340E  D7C7               	goto	u4170
  9767  003410  C02A  F01E         	movff	floorf@u,??_floorf
  9768  003414  C02B  F01F         	movff	floorf@u+1,??_floorf+1
  9769  003418  C02C  F020         	movff	floorf@u+2,??_floorf+2
  9770  00341C  C02D  F021         	movff	floorf@u+3,??_floorf+3
  9771  003420  0E20               	movlw	32
  9772  003422  D005               	goto	u4210
  9773  003424                     u4215:
  9774  003424  90D8               	bcf	status,0,c
  9775  003426  3221               	rrcf	??_floorf+3,f,c
  9776  003428  3220               	rrcf	??_floorf+2,f,c
  9777  00342A  321F               	rrcf	??_floorf+1,f,c
  9778  00342C  321E               	rrcf	??_floorf,f,c
  9779  00342E                     u4210:
  9780  00342E  2EE8               	decfsz	wreg,f,c
  9781  003430  D7F9               	goto	u4215
  9782  003432  501E               	movf	??_floorf,w,c
  9783  003434  101F               	iorwf	??_floorf+1,w,c
  9784  003436  1020               	iorwf	??_floorf+2,w,c
  9785  003438  1021               	iorwf	??_floorf+3,w,c
  9786  00343A  B4D8               	btfsc	status,2,c
  9787  00343C  D008               	goto	l1238
  9788  00343E  5024               	movf	floorf@m,w,c
  9789  003440  262A               	addwf	floorf@u,f,c
  9790  003442  5025               	movf	floorf@m+1,w,c
  9791  003444  222B               	addwfc	floorf@u+1,f,c
  9792  003446  5026               	movf	floorf@m+2,w,c
  9793  003448  222C               	addwfc	floorf@u+2,f,c
  9794  00344A  5027               	movf	floorf@m+3,w,c
  9795  00344C  222D               	addwfc	floorf@u+3,f,c
  9796  00344E                     l1238:
  9797  00344E  1C24               	comf	floorf@m,w,c
  9798  003450  6E1E               	movwf	??_floorf& (0+255),c
  9799  003452  1C25               	comf	floorf@m+1,w,c
  9800  003454  6E1F               	movwf	(??_floorf+1)& (0+255),c
  9801  003456  1C26               	comf	floorf@m+2,w,c
  9802  003458  6E20               	movwf	(??_floorf+2)& (0+255),c
  9803  00345A  1C27               	comf	floorf@m+3,w,c
  9804  00345C  6E21               	movwf	(??_floorf+3)& (0+255),c
  9805  00345E  501E               	movf	??_floorf,w,c
  9806  003460  162A               	andwf	floorf@u,f,c
  9807  003462  501F               	movf	??_floorf+1,w,c
  9808  003464  162B               	andwf	floorf@u+1,f,c
  9809  003466  5020               	movf	??_floorf+2,w,c
  9810  003468  162C               	andwf	floorf@u+2,f,c
  9811  00346A  5021               	movf	??_floorf+3,w,c
  9812  00346C  162D               	andwf	floorf@u+3,f,c
  9813  00346E  D036               	goto	l4590
  9814  003470                     l4582:
  9815  003470  C02A  F01E         	movff	floorf@u,??_floorf
  9816  003474  C02B  F01F         	movff	floorf@u+1,??_floorf+1
  9817  003478  C02C  F020         	movff	floorf@u+2,??_floorf+2
  9818  00347C  C02D  F021         	movff	floorf@u+3,??_floorf+3
  9819  003480  0E20               	movlw	32
  9820  003482  D005               	goto	u4230
  9821  003484                     u4235:
  9822  003484  90D8               	bcf	status,0,c
  9823  003486  3221               	rrcf	??_floorf+3,f,c
  9824  003488  3220               	rrcf	??_floorf+2,f,c
  9825  00348A  321F               	rrcf	??_floorf+1,f,c
  9826  00348C  321E               	rrcf	??_floorf,f,c
  9827  00348E                     u4230:
  9828  00348E  2EE8               	decfsz	wreg,f,c
  9829  003490  D7F9               	goto	u4235
  9830  003492  501E               	movf	??_floorf,w,c
  9831  003494  101F               	iorwf	??_floorf+1,w,c
  9832  003496  1020               	iorwf	??_floorf+2,w,c
  9833  003498  1021               	iorwf	??_floorf+3,w,c
  9834  00349A  A4D8               	btfss	status,2,c
  9835  00349C  D008               	goto	l4586
  9836  00349E  0E00               	movlw	0
  9837  0034A0  6E2A               	movwf	floorf@u,c
  9838  0034A2  0E00               	movlw	0
  9839  0034A4  6E2B               	movwf	floorf@u+1,c
  9840  0034A6  0E00               	movlw	0
  9841  0034A8  6E2C               	movwf	floorf@u+2,c
  9842  0034AA  0E00               	movlw	0
  9843  0034AC  D016               	goto	L10
  9844  0034AE                     l4586:
  9845  0034AE  90D8               	bcf	status,0,c
  9846  0034B0  342A               	rlcf	floorf@u,w,c
  9847  0034B2  6E1E               	movwf	??_floorf& (0+255),c
  9848  0034B4  342B               	rlcf	floorf@u+1,w,c
  9849  0034B6  6E1F               	movwf	(??_floorf+1)& (0+255),c
  9850  0034B8  342C               	rlcf	floorf@u+2,w,c
  9851  0034BA  6E20               	movwf	(??_floorf+2)& (0+255),c
  9852  0034BC  342D               	rlcf	floorf@u+3,w,c
  9853  0034BE  6E21               	movwf	(??_floorf+3)& (0+255),c
  9854  0034C0  501E               	movf	??_floorf,w,c
  9855  0034C2  101F               	iorwf	??_floorf+1,w,c
  9856  0034C4  1020               	iorwf	??_floorf+2,w,c
  9857  0034C6  1021               	iorwf	??_floorf+3,w,c
  9858  0034C8  B4D8               	btfsc	status,2,c
  9859  0034CA  D008               	goto	l4590
  9860  0034CC  0E00               	movlw	0
  9861  0034CE  6E2A               	movwf	floorf@u,c
  9862  0034D0  0E00               	movlw	0
  9863  0034D2  6E2B               	movwf	floorf@u+1,c
  9864  0034D4  0E80               	movlw	128
  9865  0034D6  6E2C               	movwf	floorf@u+2,c
  9866  0034D8  0EBF               	movlw	191
  9867  0034DA                     L10:
  9868  0034DA  6E2D               	movwf	floorf@u+3,c
  9869  0034DC                     l4590:
  9870  0034DC  C02A  F01A         	movff	floorf@u,?_floorf
  9871  0034E0  C02B  F01B         	movff	floorf@u+1,?_floorf+1
  9872  0034E4  C02C  F01C         	movff	floorf@u+2,?_floorf+2
  9873  0034E8  C02D  F01D         	movff	floorf@u+3,?_floorf+3
  9874  0034EC  0012               	return		;funcret
  9875  0034EE                     __end_of_floorf:
  9876                           	opt callstack 0
  9877                           
  9878 ;; *************** function ___fpclassifyf *****************
  9879 ;; Defined at:
  9880 ;;		line 4 in file "C:\Program Files (x86)\Microchip\xc8\v2.05\pic\sources\c99\common\__fpclassifyf.c"
  9881 ;; Parameters:    Size  Location     Type
  9882 ;;  x               4    0[COMRAM] float 
  9883 ;; Auto vars:     Size  Location     Type
  9884 ;;  u               4   10[COMRAM] struct .
  9885 ;;  e               2    8[COMRAM] int 
  9886 ;; Return value:  Size  Location     Type
  9887 ;;                  2    0[COMRAM] int 
  9888 ;; Registers used:
  9889 ;;		wreg, status,2, status,0
  9890 ;; Tracked objects:
  9891 ;;		On entry : 0/0
  9892 ;;		On exit  : 0/0
  9893 ;;		Unchanged: 0/0
  9894 ;; Data sizes:     COMRAM   BANK0   BANK1   BANK2   BANK3   BANK4   BANK5   BANK6   BANK7
  9895 ;;      Params:         4       0       0       0       0       0       0       0       0
  9896 ;;      Locals:         6       0       0       0       0       0       0       0       0
  9897 ;;      Temps:          4       0       0       0       0       0       0       0       0
  9898 ;;      Totals:        14       0       0       0       0       0       0       0       0
  9899 ;;Total ram usage:       14 bytes
  9900 ;; Hardware stack levels used:    1
  9901 ;; Hardware stack levels required when called:    2
  9902 ;; This function calls:
  9903 ;;		Nothing
  9904 ;; This function is called by:
  9905 ;;		_efgtoa
  9906 ;; This function uses a non-reentrant model
  9907 ;;
  9908                           
  9909                           	psect	text15
  9910  003F50                     __ptext15:
  9911                           	opt callstack 0
  9912  003F50                     ___fpclassifyf:
  9913                           	opt callstack 24
  9914                           
  9915                           ;incstack = 0
  9916  003F50  C116  F00B         	movff	___fpclassifyf@F463,___fpclassifyf@u
  9917  003F54  C117  F00C         	movff	___fpclassifyf@F463+1,___fpclassifyf@u+1
  9918  003F58  C118  F00D         	movff	___fpclassifyf@F463+2,___fpclassifyf@u+2
  9919  003F5C  C119  F00E         	movff	___fpclassifyf@F463+3,___fpclassifyf@u+3
  9920  003F60  C001  F00B         	movff	___fpclassifyf@x,___fpclassifyf@u
  9921  003F64  C002  F00C         	movff	___fpclassifyf@x+1,___fpclassifyf@u+1
  9922  003F68  C003  F00D         	movff	___fpclassifyf@x+2,___fpclassifyf@u+2
  9923  003F6C  C004  F00E         	movff	___fpclassifyf@x+3,___fpclassifyf@u+3
  9924  003F70  C00B  F005         	movff	___fpclassifyf@u,??___fpclassifyf
  9925  003F74  C00C  F006         	movff	___fpclassifyf@u+1,??___fpclassifyf+1
  9926  003F78  C00D  F007         	movff	___fpclassifyf@u+2,??___fpclassifyf+2
  9927  003F7C  C00E  F008         	movff	___fpclassifyf@u+3,??___fpclassifyf+3
  9928  003F80  0E18               	movlw	24
  9929  003F82  D005               	goto	u4040
  9930  003F84                     u4045:
  9931  003F84  90D8               	bcf	status,0,c
  9932  003F86  3208               	rrcf	??___fpclassifyf+3,f,c
  9933  003F88  3207               	rrcf	??___fpclassifyf+2,f,c
  9934  003F8A  3206               	rrcf	??___fpclassifyf+1,f,c
  9935  003F8C  3205               	rrcf	??___fpclassifyf,f,c
  9936  003F8E                     u4040:
  9937  003F8E  2EE8               	decfsz	wreg,f,c
  9938  003F90  D7F9               	goto	u4045
  9939  003F92  5005               	movf	??___fpclassifyf,w,c
  9940  003F94  6E09               	movwf	___fpclassifyf@e,c
  9941  003F96  6A0A               	clrf	___fpclassifyf@e+1,c
  9942  003F98  5009               	movf	___fpclassifyf@e,w,c
  9943  003F9A  100A               	iorwf	___fpclassifyf@e+1,w,c
  9944  003F9C  A4D8               	btfss	status,2,c
  9945  003F9E  D019               	goto	l4542
  9946  003FA0  90D8               	bcf	status,0,c
  9947  003FA2  340B               	rlcf	___fpclassifyf@u,w,c
  9948  003FA4  6E05               	movwf	??___fpclassifyf& (0+255),c
  9949  003FA6  340C               	rlcf	___fpclassifyf@u+1,w,c
  9950  003FA8  6E06               	movwf	(??___fpclassifyf+1)& (0+255),c
  9951  003FAA  340D               	rlcf	___fpclassifyf@u+2,w,c
  9952  003FAC  6E07               	movwf	(??___fpclassifyf+2)& (0+255),c
  9953  003FAE  340E               	rlcf	___fpclassifyf@u+3,w,c
  9954  003FB0  6E08               	movwf	(??___fpclassifyf+3)& (0+255),c
  9955  003FB2  5005               	movf	??___fpclassifyf,w,c
  9956  003FB4  1006               	iorwf	??___fpclassifyf+1,w,c
  9957  003FB6  1007               	iorwf	??___fpclassifyf+2,w,c
  9958  003FB8  1008               	iorwf	??___fpclassifyf+3,w,c
  9959  003FBA  A4D8               	btfss	status,2,c
  9960  003FBC  D005               	goto	l4538
  9961  003FBE  0E00               	movlw	0
  9962  003FC0  6E02               	movwf	?___fpclassifyf+1,c
  9963  003FC2  0E02               	movlw	2
  9964  003FC4  6E01               	movwf	?___fpclassifyf,c
  9965  003FC6  0012               	return	
  9966  003FC8                     l4538:
  9967  003FC8  0E00               	movlw	0
  9968  003FCA  6E02               	movwf	?___fpclassifyf+1,c
  9969  003FCC  0E03               	movlw	3
  9970  003FCE  6E01               	movwf	?___fpclassifyf,c
  9971  003FD0  0012               	return	
  9972  003FD2                     l4542:
  9973  003FD2  2809               	incf	___fpclassifyf@e,w,c
  9974  003FD4  100A               	iorwf	___fpclassifyf@e+1,w,c
  9975  003FD6  A4D8               	btfss	status,2,c
  9976  003FD8  D01C               	goto	l4548
  9977  003FDA  C00B  F005         	movff	___fpclassifyf@u,??___fpclassifyf
  9978  003FDE  C00C  F006         	movff	___fpclassifyf@u+1,??___fpclassifyf+1
  9979  003FE2  C00D  F007         	movff	___fpclassifyf@u+2,??___fpclassifyf+2
  9980  003FE6  C00E  F008         	movff	___fpclassifyf@u+3,??___fpclassifyf+3
  9981  003FEA  0E09               	movlw	9
  9982  003FEC                     u4085:
  9983  003FEC  90D8               	bcf	status,0,c
  9984  003FEE  3605               	rlcf	??___fpclassifyf,f,c
  9985  003FF0  3606               	rlcf	??___fpclassifyf+1,f,c
  9986  003FF2  3607               	rlcf	??___fpclassifyf+2,f,c
  9987  003FF4  3608               	rlcf	??___fpclassifyf+3,f,c
  9988  003FF6  2EE8               	decfsz	wreg,f,c
  9989  003FF8  D7F9               	goto	u4085
  9990  003FFA  5005               	movf	??___fpclassifyf,w,c
  9991  003FFC  1006               	iorwf	??___fpclassifyf+1,w,c
  9992  003FFE  1007               	iorwf	??___fpclassifyf+2,w,c
  9993  004000  1008               	iorwf	??___fpclassifyf+3,w,c
  9994  004002  A4D8               	btfss	status,2,c
  9995  004004  D002               	goto	u4090
  9996  004006  0E01               	movlw	1
  9997  004008  D001               	goto	u4100
  9998  00400A                     u4090:
  9999  00400A  0E00               	movlw	0
 10000  00400C                     u4100:
 10001  00400C  6E01               	movwf	?___fpclassifyf,c
 10002  00400E  6A02               	clrf	?___fpclassifyf+1,c
 10003  004010  0012               	return	
 10004  004012                     l4548:
 10005  004012  0E00               	movlw	0
 10006  004014  6E02               	movwf	?___fpclassifyf+1,c
 10007  004016  0E04               	movlw	4
 10008  004018  6E01               	movwf	?___fpclassifyf,c
 10009  00401A  0012               	return		;funcret
 10010  00401C                     __end_of___fpclassifyf:
 10011                           	opt callstack 0
 10012                           
 10013 ;; *************** function ___fltol *****************
 10014 ;; Defined at:
 10015 ;;		line 43 in file "C:\Program Files (x86)\Microchip\xc8\v2.05\pic\sources\c99\common\fltol.c"
 10016 ;; Parameters:    Size  Location     Type
 10017 ;;  f1              4    0[COMRAM] int 
 10018 ;; Auto vars:     Size  Location     Type
 10019 ;;  exp1            1    9[COMRAM] unsigned char 
 10020 ;;  sign1           1    8[COMRAM] unsigned char 
 10021 ;; Return value:  Size  Location     Type
 10022 ;;                  4    0[COMRAM] long 
 10023 ;; Registers used:
 10024 ;;		wreg, status,2, status,0
 10025 ;; Tracked objects:
 10026 ;;		On entry : 0/0
 10027 ;;		On exit  : 0/0
 10028 ;;		Unchanged: 0/0
 10029 ;; Data sizes:     COMRAM   BANK0   BANK1   BANK2   BANK3   BANK4   BANK5   BANK6   BANK7
 10030 ;;      Params:         4       0       0       0       0       0       0       0       0
 10031 ;;      Locals:         2       0       0       0       0       0       0       0       0
 10032 ;;      Temps:          4       0       0       0       0       0       0       0       0
 10033 ;;      Totals:        10       0       0       0       0       0       0       0       0
 10034 ;;Total ram usage:       10 bytes
 10035 ;; Hardware stack levels used:    1
 10036 ;; Hardware stack levels required when called:    2
 10037 ;; This function calls:
 10038 ;;		Nothing
 10039 ;; This function is called by:
 10040 ;;		_efgtoa
 10041 ;; This function uses a non-reentrant model
 10042 ;;
 10043                           
 10044                           	psect	text16
 10045  0040E8                     __ptext16:
 10046                           	opt callstack 0
 10047  0040E8                     ___fltol:
 10048                           	opt callstack 24
 10049                           
 10050                           ;incstack = 0
 10051  0040E8  3403               	rlcf	___fltol@f1+2,w,c
 10052  0040EA  3404               	rlcf	___fltol@f1+3,w,c
 10053  0040EC  6E0A               	movwf	___fltol@exp1,c
 10054  0040EE  500A               	movf	___fltol@exp1,w,c
 10055  0040F0  A4D8               	btfss	status,2,c
 10056  0040F2  D009               	goto	l5090
 10057  0040F4                     u5040:
 10058  0040F4  0E00               	movlw	0
 10059  0040F6  6E01               	movwf	?___fltol,c
 10060  0040F8  0E00               	movlw	0
 10061  0040FA  6E02               	movwf	?___fltol+1,c
 10062  0040FC  0E00               	movlw	0
 10063  0040FE  6E03               	movwf	?___fltol+2,c
 10064  004100  0E00               	movlw	0
 10065  004102  6E04               	movwf	?___fltol+3,c
 10066  004104  0012               	return	
 10067  004106                     l5090:
 10068  004106  C001  F005         	movff	___fltol@f1,??___fltol
 10069  00410A  C002  F006         	movff	___fltol@f1+1,??___fltol+1
 10070  00410E  C003  F007         	movff	___fltol@f1+2,??___fltol+2
 10071  004112  C004  F008         	movff	___fltol@f1+3,??___fltol+3
 10072  004116  0E20               	movlw	32
 10073  004118  D005               	goto	u5050
 10074  00411A                     u5055:
 10075  00411A  90D8               	bcf	status,0,c
 10076  00411C  3208               	rrcf	??___fltol+3,f,c
 10077  00411E  3207               	rrcf	??___fltol+2,f,c
 10078  004120  3206               	rrcf	??___fltol+1,f,c
 10079  004122  3205               	rrcf	??___fltol,f,c
 10080  004124                     u5050:
 10081  004124  2EE8               	decfsz	wreg,f,c
 10082  004126  D7F9               	goto	u5055
 10083  004128  5005               	movf	??___fltol,w,c
 10084  00412A  6E09               	movwf	___fltol@sign1,c
 10085  00412C  8E03               	bsf	___fltol@f1+2,7,c
 10086  00412E  0EFF               	movlw	255
 10087  004130  1601               	andwf	___fltol@f1,f,c
 10088  004132  0EFF               	movlw	255
 10089  004134  1602               	andwf	___fltol@f1+1,f,c
 10090  004136  0EFF               	movlw	255
 10091  004138  1603               	andwf	___fltol@f1+2,f,c
 10092  00413A  0E00               	movlw	0
 10093  00413C  1604               	andwf	___fltol@f1+3,f,c
 10094  00413E  0E96               	movlw	150
 10095  004140  5E0A               	subwf	___fltol@exp1,f,c
 10096  004142  AE0A               	btfss	___fltol@exp1,7,c
 10097  004144  D00D               	goto	l5110
 10098  004146  500A               	movf	___fltol@exp1,w,c
 10099  004148  0A80               	xorlw	128
 10100  00414A  0F97               	addlw	151
 10101  00414C  A0D8               	btfss	status,0,c
 10102  00414E  D7D2               	goto	u5040
 10103  004150                     l5106:
 10104  004150  90D8               	bcf	status,0,c
 10105  004152  3204               	rrcf	___fltol@f1+3,f,c
 10106  004154  3203               	rrcf	___fltol@f1+2,f,c
 10107  004156  3202               	rrcf	___fltol@f1+1,f,c
 10108  004158  3201               	rrcf	___fltol@f1,f,c
 10109  00415A  3E0A               	incfsz	___fltol@exp1,f,c
 10110  00415C  D7F9               	goto	l5106
 10111  00415E  D00D               	goto	u5090
 10112  004160                     l5110:
 10113  004160  0E1F               	movlw	31
 10114  004162  640A               	cpfsgt	___fltol@exp1,c
 10115  004164  D007               	goto	l5118
 10116  004166  D7C6               	goto	u5040
 10117  004168                     l5116:
 10118  004168  90D8               	bcf	status,0,c
 10119  00416A  3601               	rlcf	___fltol@f1,f,c
 10120  00416C  3602               	rlcf	___fltol@f1+1,f,c
 10121  00416E  3603               	rlcf	___fltol@f1+2,f,c
 10122  004170  3604               	rlcf	___fltol@f1+3,f,c
 10123  004172  060A               	decf	___fltol@exp1,f,c
 10124  004174                     l5118:
 10125  004174  500A               	movf	___fltol@exp1,w,c
 10126  004176  A4D8               	btfss	status,2,c
 10127  004178  D7F7               	goto	l5116
 10128  00417A                     u5090:
 10129  00417A  5009               	movf	___fltol@sign1,w,c
 10130  00417C  B4D8               	btfsc	status,2,c
 10131  00417E  D008               	goto	l5124
 10132  004180  1E04               	comf	___fltol@f1+3,f,c
 10133  004182  1E03               	comf	___fltol@f1+2,f,c
 10134  004184  1E02               	comf	___fltol@f1+1,f,c
 10135  004186  6C01               	negf	___fltol@f1,c
 10136  004188  0E00               	movlw	0
 10137  00418A  2202               	addwfc	___fltol@f1+1,f,c
 10138  00418C  2203               	addwfc	___fltol@f1+2,f,c
 10139  00418E  2204               	addwfc	___fltol@f1+3,f,c
 10140  004190                     l5124:
 10141  004190  C001  F001         	movff	___fltol@f1,?___fltol
 10142  004194  C002  F002         	movff	___fltol@f1+1,?___fltol+1
 10143  004198  C003  F003         	movff	___fltol@f1+2,?___fltol+2
 10144  00419C  C004  F004         	movff	___fltol@f1+3,?___fltol+3
 10145  0041A0  0012               	return		;funcret
 10146  0041A2                     __end_of___fltol:
 10147                           	opt callstack 0
 10148                           
 10149 ;; *************** function ___flsub *****************
 10150 ;; Defined at:
 10151 ;;		line 245 in file "C:\Program Files (x86)\Microchip\xc8\v2.05\pic\sources\c99\common\sprcadd.c"
 10152 ;; Parameters:    Size  Location     Type
 10153 ;;  b               4   41[COMRAM] long 
 10154 ;;  a               4   45[COMRAM] long 
 10155 ;; Auto vars:     Size  Location     Type
 10156 ;;		None
 10157 ;; Return value:  Size  Location     Type
 10158 ;;                  4   41[COMRAM] long 
 10159 ;; Registers used:
 10160 ;;		wreg, status,2, status,0, cstack
 10161 ;; Tracked objects:
 10162 ;;		On entry : 0/0
 10163 ;;		On exit  : 0/0
 10164 ;;		Unchanged: 0/0
 10165 ;; Data sizes:     COMRAM   BANK0   BANK1   BANK2   BANK3   BANK4   BANK5   BANK6   BANK7
 10166 ;;      Params:         8       0       0       0       0       0       0       0       0
 10167 ;;      Locals:         0       0       0       0       0       0       0       0       0
 10168 ;;      Temps:          0       0       0       0       0       0       0       0       0
 10169 ;;      Totals:         8       0       0       0       0       0       0       0       0
 10170 ;;Total ram usage:        8 bytes
 10171 ;; Hardware stack levels used:    1
 10172 ;; Hardware stack levels required when called:    3
 10173 ;; This function calls:
 10174 ;;		___fladd
 10175 ;; This function is called by:
 10176 ;;		_pago_de_Habitaciones
 10177 ;;		_efgtoa
 10178 ;; This function uses a non-reentrant model
 10179 ;;
 10180                           
 10181                           	psect	text17
 10182  004962                     __ptext17:
 10183                           	opt callstack 0
 10184  004962                     ___flsub:
 10185                           	opt callstack 23
 10186                           
 10187                           ;incstack = 0
 10188  004962  0E00               	movlw	0
 10189  004964  1A2E               	xorwf	___flsub@a,f,c
 10190  004966  0E00               	movlw	0
 10191  004968  1A2F               	xorwf	___flsub@a+1,f,c
 10192  00496A  0E00               	movlw	0
 10193  00496C  1A30               	xorwf	___flsub@a+2,f,c
 10194  00496E  0E80               	movlw	128
 10195  004970  1A31               	xorwf	___flsub@a+3,f,c
 10196  004972  C02A  F01A         	movff	___flsub@b,___fladd@b
 10197  004976  C02B  F01B         	movff	___flsub@b+1,___fladd@b+1
 10198  00497A  C02C  F01C         	movff	___flsub@b+2,___fladd@b+2
 10199  00497E  C02D  F01D         	movff	___flsub@b+3,___fladd@b+3
 10200  004982  C02E  F01E         	movff	___flsub@a,___fladd@a
 10201  004986  C02F  F01F         	movff	___flsub@a+1,___fladd@a+1
 10202  00498A  C030  F020         	movff	___flsub@a+2,___fladd@a+2
 10203  00498E  C031  F021         	movff	___flsub@a+3,___fladd@a+3
 10204  004992  ECAE  F015         	call	___fladd	;wreg free
 10205  004996  C01A  F02A         	movff	?___fladd,?___flsub
 10206  00499A  C01B  F02B         	movff	?___fladd+1,?___flsub+1
 10207  00499E  C01C  F02C         	movff	?___fladd+2,?___flsub+2
 10208  0049A2  C01D  F02D         	movff	?___fladd+3,?___flsub+3
 10209  0049A6  0012               	return		;funcret
 10210  0049A8                     __end_of___flsub:
 10211                           	opt callstack 0
 10212                           
 10213 ;; *************** function ___fladd *****************
 10214 ;; Defined at:
 10215 ;;		line 10 in file "C:\Program Files (x86)\Microchip\xc8\v2.05\pic\sources\c99\common\sprcadd.c"
 10216 ;; Parameters:    Size  Location     Type
 10217 ;;  b               4   25[COMRAM] long 
 10218 ;;  a               4   29[COMRAM] long 
 10219 ;; Auto vars:     Size  Location     Type
 10220 ;;  grs             1   40[COMRAM] unsigned char 
 10221 ;;  bexp            1   39[COMRAM] unsigned char 
 10222 ;;  aexp            1   38[COMRAM] unsigned char 
 10223 ;;  signs           1   37[COMRAM] unsigned char 
 10224 ;; Return value:  Size  Location     Type
 10225 ;;                  4   25[COMRAM] unsigned char 
 10226 ;; Registers used:
 10227 ;;		wreg, status,2, status,0
 10228 ;; Tracked objects:
 10229 ;;		On entry : 0/0
 10230 ;;		On exit  : 0/0
 10231 ;;		Unchanged: 0/0
 10232 ;; Data sizes:     COMRAM   BANK0   BANK1   BANK2   BANK3   BANK4   BANK5   BANK6   BANK7
 10233 ;;      Params:         8       0       0       0       0       0       0       0       0
 10234 ;;      Locals:         4       0       0       0       0       0       0       0       0
 10235 ;;      Temps:          4       0       0       0       0       0       0       0       0
 10236 ;;      Totals:        16       0       0       0       0       0       0       0       0
 10237 ;;Total ram usage:       16 bytes
 10238 ;; Hardware stack levels used:    1
 10239 ;; Hardware stack levels required when called:    2
 10240 ;; This function calls:
 10241 ;;		Nothing
 10242 ;; This function is called by:
 10243 ;;		_pago_de_Habitaciones
 10244 ;;		_efgtoa
 10245 ;;		___flsub
 10246 ;; This function uses a non-reentrant model
 10247 ;;
 10248                           
 10249                           	psect	text18
 10250  002B5C                     __ptext18:
 10251                           	opt callstack 0
 10252  002B5C                     ___fladd:
 10253                           	opt callstack 23
 10254                           
 10255                           ;incstack = 0
 10256  002B5C  501D               	movf	___fladd@b+3,w,c
 10257  002B5E  0B80               	andlw	128
 10258  002B60  6E26               	movwf	___fladd@signs,c
 10259  002B62  501D               	movf	___fladd@b+3,w,c
 10260  002B64  241D               	addwf	___fladd@b+3,w,c
 10261  002B66  6E28               	movwf	___fladd@bexp,c
 10262  002B68  BE1C               	btfsc	___fladd@b+2,7,c
 10263  002B6A  8028               	bsf	___fladd@bexp,0,c
 10264  002B6C  5028               	movf	___fladd@bexp,w,c
 10265  002B6E  B4D8               	btfsc	status,2,c
 10266  002B70  D00D               	goto	l4318
 10267  002B72  2828               	incf	___fladd@bexp,w,c
 10268  002B74  A4D8               	btfss	status,2,c
 10269  002B76  D008               	goto	l4314
 10270  002B78  0E00               	movlw	0
 10271  002B7A  6E1A               	movwf	___fladd@b,c
 10272  002B7C  0E00               	movlw	0
 10273  002B7E  6E1B               	movwf	___fladd@b+1,c
 10274  002B80  0E00               	movlw	0
 10275  002B82  6E1C               	movwf	___fladd@b+2,c
 10276  002B84  0E00               	movlw	0
 10277  002B86  6E1D               	movwf	___fladd@b+3,c
 10278  002B88                     l4314:
 10279  002B88  8E1C               	bsf	___fladd@b+2,7,c
 10280  002B8A  D006               	goto	L11
 10281  002B8C                     l4318:
 10282  002B8C  0E00               	movlw	0
 10283  002B8E  6E1A               	movwf	___fladd@b,c
 10284  002B90  0E00               	movlw	0
 10285  002B92  6E1B               	movwf	___fladd@b+1,c
 10286  002B94  0E00               	movlw	0
 10287  002B96  6E1C               	movwf	___fladd@b+2,c
 10288  002B98                     L11:
 10289  002B98  0E00               	movlw	0
 10290  002B9A  6E1D               	movwf	___fladd@b+3,c
 10291  002B9C  5021               	movf	___fladd@a+3,w,c
 10292  002B9E  0B80               	andlw	128
 10293  002BA0  6E27               	movwf	___fladd@aexp,c
 10294  002BA2  5026               	movf	___fladd@signs,w,c
 10295  002BA4  1827               	xorwf	___fladd@aexp,w,c
 10296  002BA6  A4D8               	btfss	status,2,c
 10297  002BA8  8C26               	bsf	___fladd@signs,6,c
 10298  002BAA  5021               	movf	___fladd@a+3,w,c
 10299  002BAC  2421               	addwf	___fladd@a+3,w,c
 10300  002BAE  6E27               	movwf	___fladd@aexp,c
 10301  002BB0  BE20               	btfsc	___fladd@a+2,7,c
 10302  002BB2  8027               	bsf	___fladd@aexp,0,c
 10303  002BB4  5027               	movf	___fladd@aexp,w,c
 10304  002BB6  B4D8               	btfsc	status,2,c
 10305  002BB8  D00D               	goto	l4342
 10306  002BBA  2827               	incf	___fladd@aexp,w,c
 10307  002BBC  A4D8               	btfss	status,2,c
 10308  002BBE  D008               	goto	l4338
 10309  002BC0  0E00               	movlw	0
 10310  002BC2  6E1E               	movwf	___fladd@a,c
 10311  002BC4  0E00               	movlw	0
 10312  002BC6  6E1F               	movwf	___fladd@a+1,c
 10313  002BC8  0E00               	movlw	0
 10314  002BCA  6E20               	movwf	___fladd@a+2,c
 10315  002BCC  0E00               	movlw	0
 10316  002BCE  6E21               	movwf	___fladd@a+3,c
 10317  002BD0                     l4338:
 10318  002BD0  8E20               	bsf	___fladd@a+2,7,c
 10319  002BD2  D006               	goto	L12
 10320  002BD4                     l4342:
 10321  002BD4  0E00               	movlw	0
 10322  002BD6  6E1E               	movwf	___fladd@a,c
 10323  002BD8  0E00               	movlw	0
 10324  002BDA  6E1F               	movwf	___fladd@a+1,c
 10325  002BDC  0E00               	movlw	0
 10326  002BDE  6E20               	movwf	___fladd@a+2,c
 10327  002BE0                     L12:
 10328  002BE0  0E00               	movlw	0
 10329  002BE2  6E21               	movwf	___fladd@a+3,c
 10330  002BE4  5028               	movf	___fladd@bexp,w,c
 10331  002BE6  5C27               	subwf	___fladd@aexp,w,c
 10332  002BE8  B0D8               	btfsc	status,0,c
 10333  002BEA  D022               	goto	l4380
 10334  002BEC  AC26               	btfss	___fladd@signs,6,c
 10335  002BEE  D002               	goto	l4350
 10336  002BF0  0E80               	movlw	128
 10337  002BF2  1A26               	xorwf	___fladd@signs,f,c
 10338  002BF4                     l4350:
 10339  002BF4  C028  F029         	movff	___fladd@bexp,___fladd@grs
 10340  002BF8  C027  F028         	movff	___fladd@aexp,___fladd@bexp
 10341  002BFC  C029  F027         	movff	___fladd@grs,___fladd@aexp
 10342  002C00  C01A  F029         	movff	___fladd@b,___fladd@grs
 10343  002C04  C01E  F01A         	movff	___fladd@a,___fladd@b
 10344  002C08  C029  F01E         	movff	___fladd@grs,___fladd@a
 10345  002C0C  C01B  F029         	movff	___fladd@b+1,___fladd@grs
 10346  002C10  C01F  F01B         	movff	___fladd@a+1,___fladd@b+1
 10347  002C14  C029  F01F         	movff	___fladd@grs,___fladd@a+1
 10348  002C18  C01C  F029         	movff	___fladd@b+2,___fladd@grs
 10349  002C1C  C020  F01C         	movff	___fladd@a+2,___fladd@b+2
 10350  002C20  C029  F020         	movff	___fladd@grs,___fladd@a+2
 10351  002C24  C01D  F029         	movff	___fladd@b+3,___fladd@grs
 10352  002C28  C021  F01D         	movff	___fladd@a+3,___fladd@b+3
 10353  002C2C  C029  F021         	movff	___fladd@grs,___fladd@a+3
 10354  002C30                     l4380:
 10355  002C30  0E00               	movlw	0
 10356  002C32  6E29               	movwf	___fladd@grs,c
 10357  002C34  5028               	movf	___fladd@bexp,w,c
 10358  002C36  C027  F022         	movff	___fladd@aexp,??___fladd
 10359  002C3A  6A23               	clrf	(??___fladd+1)& (0+255),c
 10360  002C3C  5E22               	subwf	??___fladd,f,c
 10361  002C3E  0E00               	movlw	0
 10362  002C40  5A23               	subwfb	??___fladd+1,f,c
 10363  002C42  BE23               	btfsc	??___fladd+1,7,c
 10364  002C44  D02C               	goto	l1038
 10365  002C46  5023               	movf	??___fladd+1,w,c
 10366  002C48  E104               	bnz	u3690
 10367  002C4A  0E1A               	movlw	26
 10368  002C4C  5C22               	subwf	??___fladd,w,c
 10369  002C4E  A0D8               	btfss	status,0,c
 10370  002C50  D026               	goto	l1038
 10371  002C52                     u3690:
 10372  002C52  501A               	movf	___fladd@b,w,c
 10373  002C54  101B               	iorwf	___fladd@b+1,w,c
 10374  002C56  101C               	iorwf	___fladd@b+2,w,c
 10375  002C58  101D               	iorwf	___fladd@b+3,w,c
 10376  002C5A  B4D8               	btfsc	status,2,c
 10377  002C5C  D002               	goto	u3700
 10378  002C5E  0E01               	movlw	1
 10379  002C60  D001               	goto	u3710
 10380  002C62                     u3700:
 10381  002C62  0E00               	movlw	0
 10382  002C64                     u3710:
 10383  002C64  6E29               	movwf	___fladd@grs,c
 10384  002C66  0E00               	movlw	0
 10385  002C68  6E1A               	movwf	___fladd@b,c
 10386  002C6A  0E00               	movlw	0
 10387  002C6C  6E1B               	movwf	___fladd@b+1,c
 10388  002C6E  0E00               	movlw	0
 10389  002C70  6E1C               	movwf	___fladd@b+2,c
 10390  002C72  0E00               	movlw	0
 10391  002C74  6E1D               	movwf	___fladd@b+3,c
 10392  002C76  C027  F028         	movff	___fladd@aexp,___fladd@bexp
 10393  002C7A  D015               	goto	u3740
 10394  002C7C                     l1039:
 10395  002C7C  A029               	btfss	___fladd@grs,0,c
 10396  002C7E  D005               	goto	l4392
 10397  002C80  90D8               	bcf	status,0,c
 10398  002C82  3029               	rrcf	___fladd@grs,w,c
 10399  002C84  0901               	iorlw	1
 10400  002C86  6E29               	movwf	___fladd@grs,c
 10401  002C88  D002               	goto	l4394
 10402  002C8A                     l4392:
 10403  002C8A  90D8               	bcf	status,0,c
 10404  002C8C  3229               	rrcf	___fladd@grs,f,c
 10405  002C8E                     l4394:
 10406  002C8E  B01A               	btfsc	___fladd@b,0,c
 10407  002C90  8E29               	bsf	___fladd@grs,7,c
 10408  002C92  341D               	rlcf	___fladd@b+3,w,c
 10409  002C94  321D               	rrcf	___fladd@b+3,f,c
 10410  002C96  321C               	rrcf	___fladd@b+2,f,c
 10411  002C98  321B               	rrcf	___fladd@b+1,f,c
 10412  002C9A  321A               	rrcf	___fladd@b,f,c
 10413  002C9C  2A28               	incf	___fladd@bexp,f,c
 10414  002C9E                     l1038:
 10415  002C9E  5027               	movf	___fladd@aexp,w,c
 10416  002CA0  5C28               	subwf	___fladd@bexp,w,c
 10417  002CA2  A0D8               	btfss	status,0,c
 10418  002CA4  D7EB               	goto	l1039
 10419  002CA6                     u3740:
 10420  002CA6  BC26               	btfsc	___fladd@signs,6,c
 10421  002CA8  D028               	goto	l4426
 10422  002CAA  5028               	movf	___fladd@bexp,w,c
 10423  002CAC  A4D8               	btfss	status,2,c
 10424  002CAE  D009               	goto	l4408
 10425  002CB0  0E00               	movlw	0
 10426  002CB2  6E1A               	movwf	?___fladd,c
 10427  002CB4  0E00               	movlw	0
 10428  002CB6  6E1B               	movwf	?___fladd+1,c
 10429  002CB8  0E00               	movlw	0
 10430  002CBA  6E1C               	movwf	?___fladd+2,c
 10431  002CBC  0E00               	movlw	0
 10432  002CBE  6E1D               	movwf	?___fladd+3,c
 10433  002CC0  0012               	return	
 10434  002CC2                     l4408:
 10435  002CC2  501E               	movf	___fladd@a,w,c
 10436  002CC4  261A               	addwf	___fladd@b,f,c
 10437  002CC6  501F               	movf	___fladd@a+1,w,c
 10438  002CC8  221B               	addwfc	___fladd@b+1,f,c
 10439  002CCA  5020               	movf	___fladd@a+2,w,c
 10440  002CCC  221C               	addwfc	___fladd@b+2,f,c
 10441  002CCE  5021               	movf	___fladd@a+3,w,c
 10442  002CD0  221D               	addwfc	___fladd@b+3,f,c
 10443  002CD2  A01D               	btfss	___fladd@b+3,0,c
 10444  002CD4  D071               	goto	u3870
 10445  002CD6  A029               	btfss	___fladd@grs,0,c
 10446  002CD8  D005               	goto	l4416
 10447  002CDA  90D8               	bcf	status,0,c
 10448  002CDC  3029               	rrcf	___fladd@grs,w,c
 10449  002CDE  0901               	iorlw	1
 10450  002CE0  6E29               	movwf	___fladd@grs,c
 10451  002CE2  D002               	goto	l4418
 10452  002CE4                     l4416:
 10453  002CE4  90D8               	bcf	status,0,c
 10454  002CE6  3229               	rrcf	___fladd@grs,f,c
 10455  002CE8                     l4418:
 10456  002CE8  B01A               	btfsc	___fladd@b,0,c
 10457  002CEA  8E29               	bsf	___fladd@grs,7,c
 10458  002CEC  341D               	rlcf	___fladd@b+3,w,c
 10459  002CEE  321D               	rrcf	___fladd@b+3,f,c
 10460  002CF0  321C               	rrcf	___fladd@b+2,f,c
 10461  002CF2  321B               	rrcf	___fladd@b+1,f,c
 10462  002CF4  321A               	rrcf	___fladd@b,f,c
 10463  002CF6  2A28               	incf	___fladd@bexp,f,c
 10464  002CF8  D05F               	goto	u3870
 10465  002CFA                     l4426:
 10466  002CFA  501E               	movf	___fladd@a,w,c
 10467  002CFC  5C1A               	subwf	___fladd@b,w,c
 10468  002CFE  501F               	movf	___fladd@a+1,w,c
 10469  002D00  581B               	subwfb	___fladd@b+1,w,c
 10470  002D02  5020               	movf	___fladd@a+2,w,c
 10471  002D04  581C               	subwfb	___fladd@b+2,w,c
 10472  002D06  501D               	movf	___fladd@b+3,w,c
 10473  002D08  0A80               	xorlw	128
 10474  002D0A  6E22               	movwf	??___fladd& (0+255),c
 10475  002D0C  5021               	movf	___fladd@a+3,w,c
 10476  002D0E  0A80               	xorlw	128
 10477  002D10  5822               	subwfb	??___fladd& (0+255),w,c
 10478  002D12  B0D8               	btfsc	status,0,c
 10479  002D14  D025               	goto	l4436
 10480  002D16  501A               	movf	___fladd@b,w,c
 10481  002D18  5C1E               	subwf	___fladd@a,w,c
 10482  002D1A  6E22               	movwf	??___fladd& (0+255),c
 10483  002D1C  501B               	movf	___fladd@b+1,w,c
 10484  002D1E  581F               	subwfb	___fladd@a+1,w,c
 10485  002D20  6E23               	movwf	(??___fladd+1)& (0+255),c
 10486  002D22  501C               	movf	___fladd@b+2,w,c
 10487  002D24  5820               	subwfb	___fladd@a+2,w,c
 10488  002D26  6E24               	movwf	(??___fladd+2)& (0+255),c
 10489  002D28  501D               	movf	___fladd@b+3,w,c
 10490  002D2A  5821               	subwfb	___fladd@a+3,w,c
 10491  002D2C  6E25               	movwf	(??___fladd+3)& (0+255),c
 10492  002D2E  0EFF               	movlw	255
 10493  002D30  2422               	addwf	??___fladd,w,c
 10494  002D32  6E1A               	movwf	___fladd@b,c
 10495  002D34  0EFF               	movlw	255
 10496  002D36  2023               	addwfc	??___fladd+1,w,c
 10497  002D38  6E1B               	movwf	___fladd@b+1,c
 10498  002D3A  0EFF               	movlw	255
 10499  002D3C  2024               	addwfc	??___fladd+2,w,c
 10500  002D3E  6E1C               	movwf	___fladd@b+2,c
 10501  002D40  0EFF               	movlw	255
 10502  002D42  2025               	addwfc	??___fladd+3,w,c
 10503  002D44  6E1D               	movwf	___fladd@b+3,c
 10504  002D46  0E80               	movlw	128
 10505  002D48  1A26               	xorwf	___fladd@signs,f,c
 10506  002D4A  6C29               	negf	___fladd@grs,c
 10507  002D4C  5029               	movf	___fladd@grs,w,c
 10508  002D4E  A4D8               	btfss	status,2,c
 10509  002D50  D00F               	goto	l1054
 10510  002D52  0E01               	movlw	1
 10511  002D54  261A               	addwf	___fladd@b,f,c
 10512  002D56  0E00               	movlw	0
 10513  002D58  221B               	addwfc	___fladd@b+1,f,c
 10514  002D5A  221C               	addwfc	___fladd@b+2,f,c
 10515  002D5C  221D               	addwfc	___fladd@b+3,f,c
 10516  002D5E  D008               	goto	l1054
 10517  002D60                     l4436:
 10518  002D60  501E               	movf	___fladd@a,w,c
 10519  002D62  5E1A               	subwf	___fladd@b,f,c
 10520  002D64  501F               	movf	___fladd@a+1,w,c
 10521  002D66  5A1B               	subwfb	___fladd@b+1,f,c
 10522  002D68  5020               	movf	___fladd@a+2,w,c
 10523  002D6A  5A1C               	subwfb	___fladd@b+2,f,c
 10524  002D6C  5021               	movf	___fladd@a+3,w,c
 10525  002D6E  5A1D               	subwfb	___fladd@b+3,f,c
 10526  002D70                     l1054:
 10527  002D70  501A               	movf	___fladd@b,w,c
 10528  002D72  101B               	iorwf	___fladd@b+1,w,c
 10529  002D74  101C               	iorwf	___fladd@b+2,w,c
 10530  002D76  101D               	iorwf	___fladd@b+3,w,c
 10531  002D78  A4D8               	btfss	status,2,c
 10532  002D7A  D01C               	goto	l4460
 10533  002D7C  5029               	movf	___fladd@grs,w,c
 10534  002D7E  A4D8               	btfss	status,2,c
 10535  002D80  D019               	goto	l4460
 10536  002D82  0E00               	movlw	0
 10537  002D84  6E1A               	movwf	?___fladd,c
 10538  002D86  0E00               	movlw	0
 10539  002D88  6E1B               	movwf	?___fladd+1,c
 10540  002D8A  0E00               	movlw	0
 10541  002D8C  6E1C               	movwf	?___fladd+2,c
 10542  002D8E  0E00               	movlw	0
 10543  002D90  6E1D               	movwf	?___fladd+3,c
 10544  002D92  0012               	return	
 10545  002D94                     l4444:
 10546  002D94  90D8               	bcf	status,0,c
 10547  002D96  361A               	rlcf	___fladd@b,f,c
 10548  002D98  361B               	rlcf	___fladd@b+1,f,c
 10549  002D9A  361C               	rlcf	___fladd@b+2,f,c
 10550  002D9C  361D               	rlcf	___fladd@b+3,f,c
 10551  002D9E  BE29               	btfsc	___fladd@grs,7,c
 10552  002DA0  801A               	bsf	___fladd@b,0,c
 10553  002DA2  A029               	btfss	___fladd@grs,0,c
 10554  002DA4  D002               	goto	l4454
 10555  002DA6  80D8               	bsf	status,0,c
 10556  002DA8  D001               	goto	L13
 10557  002DAA                     l4454:
 10558  002DAA  90D8               	bcf	status,0,c
 10559  002DAC                     L13:
 10560  002DAC  3629               	rlcf	___fladd@grs,f,c
 10561  002DAE  5028               	movf	___fladd@bexp,w,c
 10562  002DB0  A4D8               	btfss	status,2,c
 10563  002DB2  0628               	decf	___fladd@bexp,f,c
 10564  002DB4                     l4460:
 10565  002DB4  AE1C               	btfss	___fladd@b+2,7,c
 10566  002DB6  D7EE               	goto	l4444
 10567  002DB8                     u3870:
 10568  002DB8  0E00               	movlw	0
 10569  002DBA  6E27               	movwf	___fladd@aexp,c
 10570  002DBC  AE29               	btfss	___fladd@grs,7,c
 10571  002DBE  D00B               	goto	l1063
 10572  002DC0  C029  F022         	movff	___fladd@grs,??___fladd
 10573  002DC4  0E7F               	movlw	127
 10574  002DC6  1622               	andwf	??___fladd,f,c
 10575  002DC8  B4D8               	btfsc	status,2,c
 10576  002DCA  D003               	goto	l1064
 10577  002DCC                     u3890:
 10578  002DCC  0E01               	movlw	1
 10579  002DCE  6E27               	movwf	___fladd@aexp,c
 10580  002DD0  D002               	goto	l1063
 10581  002DD2                     l1064:
 10582  002DD2  B01A               	btfsc	___fladd@b,0,c
 10583  002DD4  D7FB               	goto	u3890
 10584  002DD6                     l1063:
 10585  002DD6  5027               	movf	___fladd@aexp,w,c
 10586  002DD8  B4D8               	btfsc	status,2,c
 10587  002DDA  D020               	goto	l4480
 10588  002DDC  0E01               	movlw	1
 10589  002DDE  261A               	addwf	___fladd@b,f,c
 10590  002DE0  0E00               	movlw	0
 10591  002DE2  221B               	addwfc	___fladd@b+1,f,c
 10592  002DE4  221C               	addwfc	___fladd@b+2,f,c
 10593  002DE6  221D               	addwfc	___fladd@b+3,f,c
 10594  002DE8  A01D               	btfss	___fladd@b+3,0,c
 10595  002DEA  D018               	goto	l4480
 10596  002DEC  C01A  F022         	movff	___fladd@b,??___fladd
 10597  002DF0  C01B  F023         	movff	___fladd@b+1,??___fladd+1
 10598  002DF4  C01C  F024         	movff	___fladd@b+2,??___fladd+2
 10599  002DF8  C01D  F025         	movff	___fladd@b+3,??___fladd+3
 10600  002DFC  3425               	rlcf	??___fladd+3,w,c
 10601  002DFE  3225               	rrcf	??___fladd+3,f,c
 10602  002E00  3224               	rrcf	??___fladd+2,f,c
 10603  002E02  3223               	rrcf	??___fladd+1,f,c
 10604  002E04  3222               	rrcf	??___fladd,f,c
 10605  002E06  C022  F01A         	movff	??___fladd,___fladd@b
 10606  002E0A  C023  F01B         	movff	??___fladd+1,___fladd@b+1
 10607  002E0E  C024  F01C         	movff	??___fladd+2,___fladd@b+2
 10608  002E12  C025  F01D         	movff	??___fladd+3,___fladd@b+3
 10609  002E16  2828               	incf	___fladd@bexp,w,c
 10610  002E18  A4D8               	btfss	status,2,c
 10611  002E1A  2A28               	incf	___fladd@bexp,f,c
 10612  002E1C                     l4480:
 10613  002E1C  2828               	incf	___fladd@bexp,w,c
 10614  002E1E  B4D8               	btfsc	status,2,c
 10615  002E20  D003               	goto	u3950
 10616  002E22  5028               	movf	___fladd@bexp,w,c
 10617  002E24  A4D8               	btfss	status,2,c
 10618  002E26  D00D               	goto	l4488
 10619  002E28                     u3950:
 10620  002E28  0E00               	movlw	0
 10621  002E2A  6E1A               	movwf	___fladd@b,c
 10622  002E2C  0E00               	movlw	0
 10623  002E2E  6E1B               	movwf	___fladd@b+1,c
 10624  002E30  0E00               	movlw	0
 10625  002E32  6E1C               	movwf	___fladd@b+2,c
 10626  002E34  0E00               	movlw	0
 10627  002E36  6E1D               	movwf	___fladd@b+3,c
 10628  002E38  5028               	movf	___fladd@bexp,w,c
 10629  002E3A  A4D8               	btfss	status,2,c
 10630  002E3C  D002               	goto	l4488
 10631  002E3E  0E00               	movlw	0
 10632  002E40  6E26               	movwf	___fladd@signs,c
 10633  002E42                     l4488:
 10634  002E42  A028               	btfss	___fladd@bexp,0,c
 10635  002E44  D002               	goto	l4492
 10636  002E46  8E1C               	bsf	___fladd@b+2,7,c
 10637  002E48  D001               	goto	l4494
 10638  002E4A                     l4492:
 10639  002E4A  9E1C               	bcf	___fladd@b+2,7,c
 10640  002E4C                     l4494:
 10641  002E4C  90D8               	bcf	status,0,c
 10642  002E4E  3028               	rrcf	___fladd@bexp,w,c
 10643  002E50  6E1D               	movwf	___fladd@b+3,c
 10644  002E52  BE26               	btfsc	___fladd@signs,7,c
 10645  002E54  8E1D               	bsf	___fladd@b+3,7,c
 10646  002E56  C01A  F01A         	movff	___fladd@b,?___fladd
 10647  002E5A  C01B  F01B         	movff	___fladd@b+1,?___fladd+1
 10648  002E5E  C01C  F01C         	movff	___fladd@b+2,?___fladd+2
 10649  002E62  C01D  F01D         	movff	___fladd@b+3,?___fladd+3
 10650  002E66  0012               	return		;funcret
 10651  002E68                     __end_of___fladd:
 10652                           	opt callstack 0
 10653                           
 10654 ;; *************** function ___flneg *****************
 10655 ;; Defined at:
 10656 ;;		line 15 in file "C:\Program Files (x86)\Microchip\xc8\v2.05\pic\sources\c99\common\flneg.c"
 10657 ;; Parameters:    Size  Location     Type
 10658 ;;  f1              4    0[COMRAM] unsigned char 
 10659 ;; Auto vars:     Size  Location     Type
 10660 ;;		None
 10661 ;; Return value:  Size  Location     Type
 10662 ;;                  4    0[COMRAM] unsigned char 
 10663 ;; Registers used:
 10664 ;;		wreg, status,2, status,0
 10665 ;; Tracked objects:
 10666 ;;		On entry : 0/0
 10667 ;;		On exit  : 0/0
 10668 ;;		Unchanged: 0/0
 10669 ;; Data sizes:     COMRAM   BANK0   BANK1   BANK2   BANK3   BANK4   BANK5   BANK6   BANK7
 10670 ;;      Params:         4       0       0       0       0       0       0       0       0
 10671 ;;      Locals:         0       0       0       0       0       0       0       0       0
 10672 ;;      Temps:          0       0       0       0       0       0       0       0       0
 10673 ;;      Totals:         4       0       0       0       0       0       0       0       0
 10674 ;;Total ram usage:        4 bytes
 10675 ;; Hardware stack levels used:    1
 10676 ;; Hardware stack levels required when called:    2
 10677 ;; This function calls:
 10678 ;;		Nothing
 10679 ;; This function is called by:
 10680 ;;		_efgtoa
 10681 ;; This function uses a non-reentrant model
 10682 ;;
 10683                           
 10684                           	psect	text19
 10685  004AB0                     __ptext19:
 10686                           	opt callstack 0
 10687  004AB0                     ___flneg:
 10688                           	opt callstack 24
 10689                           
 10690                           ;incstack = 0
 10691  004AB0  5001               	movf	___flneg@f1,w,c
 10692  004AB2  1002               	iorwf	___flneg@f1+1,w,c
 10693  004AB4  1003               	iorwf	___flneg@f1+2,w,c
 10694  004AB6  1004               	iorwf	___flneg@f1+3,w,c
 10695  004AB8  B4D8               	btfsc	status,2,c
 10696  004ABA  D008               	goto	l5080
 10697  004ABC  0E00               	movlw	0
 10698  004ABE  1A01               	xorwf	___flneg@f1,f,c
 10699  004AC0  0E00               	movlw	0
 10700  004AC2  1A02               	xorwf	___flneg@f1+1,f,c
 10701  004AC4  0E00               	movlw	0
 10702  004AC6  1A03               	xorwf	___flneg@f1+2,f,c
 10703  004AC8  0E80               	movlw	128
 10704  004ACA  1A04               	xorwf	___flneg@f1+3,f,c
 10705  004ACC                     l5080:
 10706  004ACC  C001  F001         	movff	___flneg@f1,?___flneg
 10707  004AD0  C002  F002         	movff	___flneg@f1+1,?___flneg+1
 10708  004AD4  C003  F003         	movff	___flneg@f1+2,?___flneg+2
 10709  004AD8  C004  F004         	movff	___flneg@f1+3,?___flneg+3
 10710  004ADC  0012               	return		;funcret
 10711  004ADE                     __end_of___flneg:
 10712                           	opt callstack 0
 10713                           
 10714 ;; *************** function ___flmul *****************
 10715 ;; Defined at:
 10716 ;;		line 8 in file "C:\Program Files (x86)\Microchip\xc8\v2.05\pic\sources\c99\common\sprcmul.c"
 10717 ;; Parameters:    Size  Location     Type
 10718 ;;  b               4    0[COMRAM] unsigned char 
 10719 ;;  a               4    4[COMRAM] unsigned char 
 10720 ;; Auto vars:     Size  Location     Type
 10721 ;;  prod            4   19[COMRAM] struct .
 10722 ;;  grs             4   13[COMRAM] unsigned long 
 10723 ;;  temp            2   23[COMRAM] struct .
 10724 ;;  bexp            1   18[COMRAM] unsigned char 
 10725 ;;  aexp            1   17[COMRAM] unsigned char 
 10726 ;;  sign            1   12[COMRAM] unsigned char 
 10727 ;; Return value:  Size  Location     Type
 10728 ;;                  4    0[COMRAM] unsigned char 
 10729 ;; Registers used:
 10730 ;;		wreg, status,2, status,0, prodl, prodh
 10731 ;; Tracked objects:
 10732 ;;		On entry : 0/0
 10733 ;;		On exit  : 0/0
 10734 ;;		Unchanged: 0/0
 10735 ;; Data sizes:     COMRAM   BANK0   BANK1   BANK2   BANK3   BANK4   BANK5   BANK6   BANK7
 10736 ;;      Params:         8       0       0       0       0       0       0       0       0
 10737 ;;      Locals:        13       0       0       0       0       0       0       0       0
 10738 ;;      Temps:          4       0       0       0       0       0       0       0       0
 10739 ;;      Totals:        25       0       0       0       0       0       0       0       0
 10740 ;;Total ram usage:       25 bytes
 10741 ;; Hardware stack levels used:    1
 10742 ;; Hardware stack levels required when called:    2
 10743 ;; This function calls:
 10744 ;;		Nothing
 10745 ;; This function is called by:
 10746 ;;		_pago_de_Habitaciones
 10747 ;;		_efgtoa
 10748 ;; This function uses a non-reentrant model
 10749 ;;
 10750                           
 10751                           	psect	text20
 10752  00280A                     __ptext20:
 10753                           	opt callstack 0
 10754  00280A                     ___flmul:
 10755                           	opt callstack 24
 10756                           
 10757                           ;incstack = 0
 10758  00280A  5004               	movf	___flmul@b+3,w,c
 10759  00280C  0B80               	andlw	128
 10760  00280E  6E0D               	movwf	___flmul@sign,c
 10761  002810  5004               	movf	___flmul@b+3,w,c
 10762  002812  2404               	addwf	___flmul@b+3,w,c
 10763  002814  6E13               	movwf	___flmul@bexp,c
 10764  002816  BE03               	btfsc	___flmul@b+2,7,c
 10765  002818  8013               	bsf	___flmul@bexp,0,c
 10766  00281A  5013               	movf	___flmul@bexp,w,c
 10767  00281C  B4D8               	btfsc	status,2,c
 10768  00281E  D00D               	goto	l4836
 10769  002820  2813               	incf	___flmul@bexp,w,c
 10770  002822  A4D8               	btfss	status,2,c
 10771  002824  D008               	goto	l4834
 10772  002826  0E00               	movlw	0
 10773  002828  6E01               	movwf	___flmul@b,c
 10774  00282A  0E00               	movlw	0
 10775  00282C  6E02               	movwf	___flmul@b+1,c
 10776  00282E  0E00               	movlw	0
 10777  002830  6E03               	movwf	___flmul@b+2,c
 10778  002832  0E00               	movlw	0
 10779  002834  6E04               	movwf	___flmul@b+3,c
 10780  002836                     l4834:
 10781  002836  8E03               	bsf	___flmul@b+2,7,c
 10782  002838  D008               	goto	l4838
 10783  00283A                     l4836:
 10784  00283A  0E00               	movlw	0
 10785  00283C  6E01               	movwf	___flmul@b,c
 10786  00283E  0E00               	movlw	0
 10787  002840  6E02               	movwf	___flmul@b+1,c
 10788  002842  0E00               	movlw	0
 10789  002844  6E03               	movwf	___flmul@b+2,c
 10790  002846  0E00               	movlw	0
 10791  002848  6E04               	movwf	___flmul@b+3,c
 10792  00284A                     l4838:
 10793  00284A  5008               	movf	___flmul@a+3,w,c
 10794  00284C  0B80               	andlw	128
 10795  00284E  1A0D               	xorwf	___flmul@sign,f,c
 10796  002850  5008               	movf	___flmul@a+3,w,c
 10797  002852  2408               	addwf	___flmul@a+3,w,c
 10798  002854  6E12               	movwf	___flmul@aexp,c
 10799  002856  BE07               	btfsc	___flmul@a+2,7,c
 10800  002858  8012               	bsf	___flmul@aexp,0,c
 10801  00285A  5012               	movf	___flmul@aexp,w,c
 10802  00285C  B4D8               	btfsc	status,2,c
 10803  00285E  D00D               	goto	l4854
 10804  002860  2812               	incf	___flmul@aexp,w,c
 10805  002862  A4D8               	btfss	status,2,c
 10806  002864  D008               	goto	l4852
 10807  002866  0E00               	movlw	0
 10808  002868  6E05               	movwf	___flmul@a,c
 10809  00286A  0E00               	movlw	0
 10810  00286C  6E06               	movwf	___flmul@a+1,c
 10811  00286E  0E00               	movlw	0
 10812  002870  6E07               	movwf	___flmul@a+2,c
 10813  002872  0E00               	movlw	0
 10814  002874  6E08               	movwf	___flmul@a+3,c
 10815  002876                     l4852:
 10816  002876  8E07               	bsf	___flmul@a+2,7,c
 10817  002878  D008               	goto	l1123
 10818  00287A                     l4854:
 10819  00287A  0E00               	movlw	0
 10820  00287C  6E05               	movwf	___flmul@a,c
 10821  00287E  0E00               	movlw	0
 10822  002880  6E06               	movwf	___flmul@a+1,c
 10823  002882  0E00               	movlw	0
 10824  002884  6E07               	movwf	___flmul@a+2,c
 10825  002886  0E00               	movlw	0
 10826  002888  6E08               	movwf	___flmul@a+3,c
 10827  00288A                     l1123:
 10828  00288A  5012               	movf	___flmul@aexp,w,c
 10829  00288C  B4D8               	btfsc	status,2,c
 10830  00288E  D003               	goto	u4710
 10831  002890  5013               	movf	___flmul@bexp,w,c
 10832  002892  A4D8               	btfss	status,2,c
 10833  002894  D009               	goto	l4862
 10834  002896                     u4710:
 10835  002896  0E00               	movlw	0
 10836  002898  6E01               	movwf	?___flmul,c
 10837  00289A  0E00               	movlw	0
 10838  00289C  6E02               	movwf	?___flmul+1,c
 10839  00289E  0E00               	movlw	0
 10840  0028A0  6E03               	movwf	?___flmul+2,c
 10841  0028A2  0E00               	movlw	0
 10842  0028A4  6E04               	movwf	?___flmul+3,c
 10843  0028A6  0012               	return	
 10844  0028A8                     l4862:
 10845  0028A8  5007               	movf	___flmul@a+2,w,c
 10846  0028AA  0201               	mulwf	___flmul@b,c
 10847  0028AC  CFF3 F018          	movff	prodl,___flmul@temp
 10848  0028B0  CFF4 F019          	movff	prodh,___flmul@temp+1
 10849  0028B4  5018               	movf	___flmul@temp,w,c
 10850  0028B6  6E0E               	movwf	___flmul@grs,c
 10851  0028B8  6A0F               	clrf	___flmul@grs+1,c
 10852  0028BA  6A10               	clrf	___flmul@grs+2,c
 10853  0028BC  6A11               	clrf	___flmul@grs+3,c
 10854  0028BE  5019               	movf	___flmul@temp+1,w,c
 10855  0028C0  6E14               	movwf	___flmul@prod,c
 10856  0028C2  6A15               	clrf	___flmul@prod+1,c
 10857  0028C4  6A16               	clrf	___flmul@prod+2,c
 10858  0028C6  6A17               	clrf	___flmul@prod+3,c
 10859  0028C8  5006               	movf	___flmul@a+1,w,c
 10860  0028CA  0202               	mulwf	___flmul@b+1,c
 10861  0028CC  CFF3 F018          	movff	prodl,___flmul@temp
 10862  0028D0  CFF4 F019          	movff	prodh,___flmul@temp+1
 10863  0028D4  5018               	movf	___flmul@temp,w,c
 10864  0028D6  260E               	addwf	___flmul@grs,f,c
 10865  0028D8  0E00               	movlw	0
 10866  0028DA  220F               	addwfc	___flmul@grs+1,f,c
 10867  0028DC  2210               	addwfc	___flmul@grs+2,f,c
 10868  0028DE  2211               	addwfc	___flmul@grs+3,f,c
 10869  0028E0  5019               	movf	___flmul@temp+1,w,c
 10870  0028E2  2614               	addwf	___flmul@prod,f,c
 10871  0028E4  0E00               	movlw	0
 10872  0028E6  2215               	addwfc	___flmul@prod+1,f,c
 10873  0028E8  2216               	addwfc	___flmul@prod+2,f,c
 10874  0028EA  2217               	addwfc	___flmul@prod+3,f,c
 10875  0028EC  5005               	movf	___flmul@a,w,c
 10876  0028EE  0203               	mulwf	___flmul@b+2,c
 10877  0028F0  CFF3 F018          	movff	prodl,___flmul@temp
 10878  0028F4  CFF4 F019          	movff	prodh,___flmul@temp+1
 10879  0028F8  5018               	movf	___flmul@temp,w,c
 10880  0028FA  260E               	addwf	___flmul@grs,f,c
 10881  0028FC  0E00               	movlw	0
 10882  0028FE  220F               	addwfc	___flmul@grs+1,f,c
 10883  002900  2210               	addwfc	___flmul@grs+2,f,c
 10884  002902  2211               	addwfc	___flmul@grs+3,f,c
 10885  002904  5019               	movf	___flmul@temp+1,w,c
 10886  002906  2614               	addwf	___flmul@prod,f,c
 10887  002908  0E00               	movlw	0
 10888  00290A  2215               	addwfc	___flmul@prod+1,f,c
 10889  00290C  2216               	addwfc	___flmul@prod+2,f,c
 10890  00290E  2217               	addwfc	___flmul@prod+3,f,c
 10891  002910  C010  F011         	movff	___flmul@grs+2,___flmul@grs+3
 10892  002914  C00F  F010         	movff	___flmul@grs+1,___flmul@grs+2
 10893  002918  C00E  F00F         	movff	___flmul@grs,___flmul@grs+1
 10894  00291C  6A0E               	clrf	___flmul@grs,c
 10895  00291E  5005               	movf	___flmul@a,w,c
 10896  002920  0202               	mulwf	___flmul@b+1,c
 10897  002922  CFF3 F018          	movff	prodl,___flmul@temp
 10898  002926  CFF4 F019          	movff	prodh,___flmul@temp+1
 10899  00292A  5018               	movf	___flmul@temp,w,c
 10900  00292C  260E               	addwf	___flmul@grs,f,c
 10901  00292E  5019               	movf	___flmul@temp+1,w,c
 10902  002930  220F               	addwfc	___flmul@grs+1,f,c
 10903  002932  0E00               	movlw	0
 10904  002934  2210               	addwfc	___flmul@grs+2,f,c
 10905  002936  0E00               	movlw	0
 10906  002938  2211               	addwfc	___flmul@grs+3,f,c
 10907  00293A  5006               	movf	___flmul@a+1,w,c
 10908  00293C  0201               	mulwf	___flmul@b,c
 10909  00293E  CFF3 F018          	movff	prodl,___flmul@temp
 10910  002942  CFF4 F019          	movff	prodh,___flmul@temp+1
 10911  002946  5018               	movf	___flmul@temp,w,c
 10912  002948  260E               	addwf	___flmul@grs,f,c
 10913  00294A  5019               	movf	___flmul@temp+1,w,c
 10914  00294C  220F               	addwfc	___flmul@grs+1,f,c
 10915  00294E  0E00               	movlw	0
 10916  002950  2210               	addwfc	___flmul@grs+2,f,c
 10917  002952  0E00               	movlw	0
 10918  002954  2211               	addwfc	___flmul@grs+3,f,c
 10919  002956  C010  F011         	movff	___flmul@grs+2,___flmul@grs+3
 10920  00295A  C00F  F010         	movff	___flmul@grs+1,___flmul@grs+2
 10921  00295E  C00E  F00F         	movff	___flmul@grs,___flmul@grs+1
 10922  002962  6A0E               	clrf	___flmul@grs,c
 10923  002964  5005               	movf	___flmul@a,w,c
 10924  002966  0201               	mulwf	___flmul@b,c
 10925  002968  CFF3 F018          	movff	prodl,___flmul@temp
 10926  00296C  CFF4 F019          	movff	prodh,___flmul@temp+1
 10927  002970  5018               	movf	___flmul@temp,w,c
 10928  002972  260E               	addwf	___flmul@grs,f,c
 10929  002974  5019               	movf	___flmul@temp+1,w,c
 10930  002976  220F               	addwfc	___flmul@grs+1,f,c
 10931  002978  0E00               	movlw	0
 10932  00297A  2210               	addwfc	___flmul@grs+2,f,c
 10933  00297C  0E00               	movlw	0
 10934  00297E  2211               	addwfc	___flmul@grs+3,f,c
 10935  002980  5007               	movf	___flmul@a+2,w,c
 10936  002982  0202               	mulwf	___flmul@b+1,c
 10937  002984  CFF3 F018          	movff	prodl,___flmul@temp
 10938  002988  CFF4 F019          	movff	prodh,___flmul@temp+1
 10939  00298C  5018               	movf	___flmul@temp,w,c
 10940  00298E  2614               	addwf	___flmul@prod,f,c
 10941  002990  5019               	movf	___flmul@temp+1,w,c
 10942  002992  2215               	addwfc	___flmul@prod+1,f,c
 10943  002994  0E00               	movlw	0
 10944  002996  2216               	addwfc	___flmul@prod+2,f,c
 10945  002998  0E00               	movlw	0
 10946  00299A  2217               	addwfc	___flmul@prod+3,f,c
 10947  00299C  5006               	movf	___flmul@a+1,w,c
 10948  00299E  0203               	mulwf	___flmul@b+2,c
 10949  0029A0  CFF3 F018          	movff	prodl,___flmul@temp
 10950  0029A4  CFF4 F019          	movff	prodh,___flmul@temp+1
 10951  0029A8  5018               	movf	___flmul@temp,w,c
 10952  0029AA  2614               	addwf	___flmul@prod,f,c
 10953  0029AC  5019               	movf	___flmul@temp+1,w,c
 10954  0029AE  2215               	addwfc	___flmul@prod+1,f,c
 10955  0029B0  0E00               	movlw	0
 10956  0029B2  2216               	addwfc	___flmul@prod+2,f,c
 10957  0029B4  0E00               	movlw	0
 10958  0029B6  2217               	addwfc	___flmul@prod+3,f,c
 10959  0029B8  5007               	movf	___flmul@a+2,w,c
 10960  0029BA  0203               	mulwf	___flmul@b+2,c
 10961  0029BC  CFF3 F018          	movff	prodl,___flmul@temp
 10962  0029C0  CFF4 F019          	movff	prodh,___flmul@temp+1
 10963  0029C4  5018               	movf	___flmul@temp,w,c
 10964  0029C6  6E09               	movwf	??___flmul& (0+255),c
 10965  0029C8  5019               	movf	___flmul@temp+1,w,c
 10966  0029CA  6E0A               	movwf	(??___flmul+1)& (0+255),c
 10967  0029CC  6A0B               	clrf	(??___flmul+2)& (0+255),c
 10968  0029CE  6A0C               	clrf	(??___flmul+3)& (0+255),c
 10969  0029D0  C00B  F00C         	movff	??___flmul+2,??___flmul+3
 10970  0029D4  C00A  F00B         	movff	??___flmul+1,??___flmul+2
 10971  0029D8  C009  F00A         	movff	??___flmul,??___flmul+1
 10972  0029DC  6A09               	clrf	??___flmul,c
 10973  0029DE  5009               	movf	??___flmul,w,c
 10974  0029E0  2614               	addwf	___flmul@prod,f,c
 10975  0029E2  500A               	movf	??___flmul+1,w,c
 10976  0029E4  2215               	addwfc	___flmul@prod+1,f,c
 10977  0029E6  500B               	movf	??___flmul+2,w,c
 10978  0029E8  2216               	addwfc	___flmul@prod+2,f,c
 10979  0029EA  500C               	movf	??___flmul+3,w,c
 10980  0029EC  2217               	addwfc	___flmul@prod+3,f,c
 10981  0029EE  C00E  F009         	movff	___flmul@grs,??___flmul
 10982  0029F2  C00F  F00A         	movff	___flmul@grs+1,??___flmul+1
 10983  0029F6  C010  F00B         	movff	___flmul@grs+2,??___flmul+2
 10984  0029FA  C011  F00C         	movff	___flmul@grs+3,??___flmul+3
 10985  0029FE  0E19               	movlw	25
 10986  002A00  D005               	goto	u4720
 10987  002A02                     u4725:
 10988  002A02  90D8               	bcf	status,0,c
 10989  002A04  320C               	rrcf	??___flmul+3,f,c
 10990  002A06  320B               	rrcf	??___flmul+2,f,c
 10991  002A08  320A               	rrcf	??___flmul+1,f,c
 10992  002A0A  3209               	rrcf	??___flmul,f,c
 10993  002A0C                     u4720:
 10994  002A0C  2EE8               	decfsz	wreg,f,c
 10995  002A0E  D7F9               	goto	u4725
 10996  002A10  5009               	movf	??___flmul,w,c
 10997  002A12  2614               	addwf	___flmul@prod,f,c
 10998  002A14  500A               	movf	??___flmul+1,w,c
 10999  002A16  2215               	addwfc	___flmul@prod+1,f,c
 11000  002A18  500B               	movf	??___flmul+2,w,c
 11001  002A1A  2216               	addwfc	___flmul@prod+2,f,c
 11002  002A1C  500C               	movf	??___flmul+3,w,c
 11003  002A1E  2217               	addwfc	___flmul@prod+3,f,c
 11004  002A20  C010  F011         	movff	___flmul@grs+2,___flmul@grs+3
 11005  002A24  C00F  F010         	movff	___flmul@grs+1,___flmul@grs+2
 11006  002A28  C00E  F00F         	movff	___flmul@grs,___flmul@grs+1
 11007  002A2C  6A0E               	clrf	___flmul@grs,c
 11008  002A2E  5012               	movf	___flmul@aexp,w,c
 11009  002A30  C013  F009         	movff	___flmul@bexp,??___flmul
 11010  002A34  6A0A               	clrf	(??___flmul+1)& (0+255),c
 11011  002A36  2609               	addwf	??___flmul,f,c
 11012  002A38  0E00               	movlw	0
 11013  002A3A  220A               	addwfc	??___flmul+1,f,c
 11014  002A3C  0E82               	movlw	130
 11015  002A3E  2409               	addwf	??___flmul,w,c
 11016  002A40  6E18               	movwf	___flmul@temp,c
 11017  002A42  0EFF               	movlw	255
 11018  002A44  200A               	addwfc	??___flmul+1,w,c
 11019  002A46  6E19               	movwf	___flmul@temp+1,c
 11020  002A48  D00F               	goto	l4910
 11021  002A4A                     l4904:
 11022  002A4A  90D8               	bcf	status,0,c
 11023  002A4C  3614               	rlcf	___flmul@prod,f,c
 11024  002A4E  3615               	rlcf	___flmul@prod+1,f,c
 11025  002A50  3616               	rlcf	___flmul@prod+2,f,c
 11026  002A52  3617               	rlcf	___flmul@prod+3,f,c
 11027  002A54  BE11               	btfsc	___flmul@grs+3,7,c
 11028  002A56  8014               	bsf	___flmul@prod,0,c
 11029  002A58  90D8               	bcf	status,0,c
 11030  002A5A  360E               	rlcf	___flmul@grs,f,c
 11031  002A5C  360F               	rlcf	___flmul@grs+1,f,c
 11032  002A5E  3610               	rlcf	___flmul@grs+2,f,c
 11033  002A60  3611               	rlcf	___flmul@grs+3,f,c
 11034  002A62  0618               	decf	___flmul@temp,f,c
 11035  002A64  A0D8               	btfss	status,0,c
 11036  002A66  0619               	decf	___flmul@temp+1,f,c
 11037  002A68                     l4910:
 11038  002A68  AE16               	btfss	___flmul@prod+2,7,c
 11039  002A6A  D7EF               	goto	l4904
 11040  002A6C  0E00               	movlw	0
 11041  002A6E  6E12               	movwf	___flmul@aexp,c
 11042  002A70  AE11               	btfss	___flmul@grs+3,7,c
 11043  002A72  D017               	goto	l1132
 11044  002A74  0EFF               	movlw	255
 11045  002A76  140E               	andwf	___flmul@grs,w,c
 11046  002A78  6E09               	movwf	??___flmul& (0+255),c
 11047  002A7A  0EFF               	movlw	255
 11048  002A7C  140F               	andwf	___flmul@grs+1,w,c
 11049  002A7E  6E0A               	movwf	(??___flmul+1)& (0+255),c
 11050  002A80  0EFF               	movlw	255
 11051  002A82  1410               	andwf	___flmul@grs+2,w,c
 11052  002A84  6E0B               	movwf	(??___flmul+2)& (0+255),c
 11053  002A86  0E7F               	movlw	127
 11054  002A88  1411               	andwf	___flmul@grs+3,w,c
 11055  002A8A  6E0C               	movwf	(??___flmul+3)& (0+255),c
 11056  002A8C  5009               	movf	??___flmul,w,c
 11057  002A8E  100A               	iorwf	??___flmul+1,w,c
 11058  002A90  100B               	iorwf	??___flmul+2,w,c
 11059  002A92  100C               	iorwf	??___flmul+3,w,c
 11060  002A94  B4D8               	btfsc	status,2,c
 11061  002A96  D003               	goto	l1133
 11062  002A98                     u4760:
 11063  002A98  0E01               	movlw	1
 11064  002A9A  6E12               	movwf	___flmul@aexp,c
 11065  002A9C  D002               	goto	l1132
 11066  002A9E                     l1133:
 11067  002A9E  B014               	btfsc	___flmul@prod,0,c
 11068  002AA0  D7FB               	goto	u4760
 11069  002AA2                     l1132:
 11070  002AA2  5012               	movf	___flmul@aexp,w,c
 11071  002AA4  B4D8               	btfsc	status,2,c
 11072  002AA6  D01F               	goto	l4930
 11073  002AA8  0E01               	movlw	1
 11074  002AAA  2614               	addwf	___flmul@prod,f,c
 11075  002AAC  0E00               	movlw	0
 11076  002AAE  2215               	addwfc	___flmul@prod+1,f,c
 11077  002AB0  2216               	addwfc	___flmul@prod+2,f,c
 11078  002AB2  2217               	addwfc	___flmul@prod+3,f,c
 11079  002AB4  A017               	btfss	___flmul@prod+3,0,c
 11080  002AB6  D017               	goto	l4930
 11081  002AB8  C014  F009         	movff	___flmul@prod,??___flmul
 11082  002ABC  C015  F00A         	movff	___flmul@prod+1,??___flmul+1
 11083  002AC0  C016  F00B         	movff	___flmul@prod+2,??___flmul+2
 11084  002AC4  C017  F00C         	movff	___flmul@prod+3,??___flmul+3
 11085  002AC8  340C               	rlcf	??___flmul+3,w,c
 11086  002ACA  320C               	rrcf	??___flmul+3,f,c
 11087  002ACC  320B               	rrcf	??___flmul+2,f,c
 11088  002ACE  320A               	rrcf	??___flmul+1,f,c
 11089  002AD0  3209               	rrcf	??___flmul,f,c
 11090  002AD2  C009  F014         	movff	??___flmul,___flmul@prod
 11091  002AD6  C00A  F015         	movff	??___flmul+1,___flmul@prod+1
 11092  002ADA  C00B  F016         	movff	??___flmul+2,___flmul@prod+2
 11093  002ADE  C00C  F017         	movff	??___flmul+3,___flmul@prod+3
 11094  002AE2  4A18               	infsnz	___flmul@temp,f,c
 11095  002AE4  2A19               	incf	___flmul@temp+1,f,c
 11096  002AE6                     l4930:
 11097  002AE6  BE19               	btfsc	___flmul@temp+1,7,c
 11098  002AE8  D00D               	goto	l4934
 11099  002AEA  5019               	movf	___flmul@temp+1,w,c
 11100  002AEC  E103               	bnz	u4800
 11101  002AEE  2818               	incf	___flmul@temp,w,c
 11102  002AF0  A0D8               	btfss	status,0,c
 11103  002AF2  D008               	goto	l4934
 11104  002AF4                     u4800:
 11105  002AF4  0E00               	movlw	0
 11106  002AF6  6E14               	movwf	___flmul@prod,c
 11107  002AF8  0E00               	movlw	0
 11108  002AFA  6E15               	movwf	___flmul@prod+1,c
 11109  002AFC  0E80               	movlw	128
 11110  002AFE  6E16               	movwf	___flmul@prod+2,c
 11111  002B00  0E7F               	movlw	127
 11112  002B02  D020               	goto	L14
 11113  002B04                     l4934:
 11114  002B04  BE19               	btfsc	___flmul@temp+1,7,c
 11115  002B06  D005               	goto	u4810
 11116  002B08  5019               	movf	___flmul@temp+1,w,c
 11117  002B0A  E10E               	bnz	l1140
 11118  002B0C  0418               	decf	___flmul@temp,w,c
 11119  002B0E  B0D8               	btfsc	status,0,c
 11120  002B10  D00B               	goto	l1140
 11121  002B12                     u4810:
 11122  002B12  0E00               	movlw	0
 11123  002B14  6E14               	movwf	___flmul@prod,c
 11124  002B16  0E00               	movlw	0
 11125  002B18  6E15               	movwf	___flmul@prod+1,c
 11126  002B1A  0E00               	movlw	0
 11127  002B1C  6E16               	movwf	___flmul@prod+2,c
 11128  002B1E  0E00               	movlw	0
 11129  002B20  6E17               	movwf	___flmul@prod+3,c
 11130  002B22  0E00               	movlw	0
 11131  002B24  6E0D               	movwf	___flmul@sign,c
 11132  002B26  D00F               	goto	l4946
 11133  002B28                     l1140:
 11134  002B28  C018  F013         	movff	___flmul@temp,___flmul@bexp
 11135  002B2C  0EFF               	movlw	255
 11136  002B2E  1614               	andwf	___flmul@prod,f,c
 11137  002B30  0EFF               	movlw	255
 11138  002B32  1615               	andwf	___flmul@prod+1,f,c
 11139  002B34  0E7F               	movlw	127
 11140  002B36  1616               	andwf	___flmul@prod+2,f,c
 11141  002B38  0E00               	movlw	0
 11142  002B3A  1617               	andwf	___flmul@prod+3,f,c
 11143  002B3C  B013               	btfsc	___flmul@bexp,0,c
 11144  002B3E  8E16               	bsf	___flmul@prod+2,7,c
 11145  002B40  90D8               	bcf	status,0,c
 11146  002B42  3013               	rrcf	___flmul@bexp,w,c
 11147  002B44                     L14:
 11148  002B44  6E17               	movwf	___flmul@prod+3,c
 11149  002B46                     l4946:
 11150  002B46  500D               	movf	___flmul@sign,w,c
 11151  002B48  1217               	iorwf	___flmul@prod+3,f,c
 11152  002B4A  C014  F001         	movff	___flmul@prod,?___flmul
 11153  002B4E  C015  F002         	movff	___flmul@prod+1,?___flmul+1
 11154  002B52  C016  F003         	movff	___flmul@prod+2,?___flmul+2
 11155  002B56  C017  F004         	movff	___flmul@prod+3,?___flmul+3
 11156  002B5A  0012               	return		;funcret
 11157  002B5C                     __end_of___flmul:
 11158                           	opt callstack 0
 11159                           
 11160 ;; *************** function ___flge *****************
 11161 ;; Defined at:
 11162 ;;		line 4 in file "C:\Program Files (x86)\Microchip\xc8\v2.05\pic\sources\c99\common\flge.c"
 11163 ;; Parameters:    Size  Location     Type
 11164 ;;  ff1             4   25[COMRAM] unsigned char 
 11165 ;;  ff2             4   29[COMRAM] unsigned char 
 11166 ;; Auto vars:     Size  Location     Type
 11167 ;;		None
 11168 ;; Return value:  Size  Location     Type
 11169 ;;		None               void
 11170 ;; Registers used:
 11171 ;;		wreg, status,2, status,0
 11172 ;; Tracked objects:
 11173 ;;		On entry : 0/0
 11174 ;;		On exit  : 0/0
 11175 ;;		Unchanged: 0/0
 11176 ;; Data sizes:     COMRAM   BANK0   BANK1   BANK2   BANK3   BANK4   BANK5   BANK6   BANK7
 11177 ;;      Params:         8       0       0       0       0       0       0       0       0
 11178 ;;      Locals:         0       0       0       0       0       0       0       0       0
 11179 ;;      Temps:          4       0       0       0       0       0       0       0       0
 11180 ;;      Totals:        12       0       0       0       0       0       0       0       0
 11181 ;;Total ram usage:       12 bytes
 11182 ;; Hardware stack levels used:    1
 11183 ;; Hardware stack levels required when called:    2
 11184 ;; This function calls:
 11185 ;;		Nothing
 11186 ;; This function is called by:
 11187 ;;		_pago_de_Habitaciones
 11188 ;;		_efgtoa
 11189 ;; This function uses a non-reentrant model
 11190 ;;
 11191                           
 11192                           	psect	text21
 11193  003E80                     __ptext21:
 11194                           	opt callstack 0
 11195  003E80                     ___flge:
 11196                           	opt callstack 24
 11197                           
 11198                           ;incstack = 0
 11199  003E80  0E00               	movlw	0
 11200  003E82  141A               	andwf	___flge@ff1,w,c
 11201  003E84  6E22               	movwf	??___flge& (0+255),c
 11202  003E86  0E00               	movlw	0
 11203  003E88  141B               	andwf	___flge@ff1+1,w,c
 11204  003E8A  6E23               	movwf	(??___flge+1)& (0+255),c
 11205  003E8C  0E80               	movlw	128
 11206  003E8E  141C               	andwf	___flge@ff1+2,w,c
 11207  003E90  6E24               	movwf	(??___flge+2)& (0+255),c
 11208  003E92  0E7F               	movlw	127
 11209  003E94  141D               	andwf	___flge@ff1+3,w,c
 11210  003E96  6E25               	movwf	(??___flge+3)& (0+255),c
 11211  003E98  5022               	movf	??___flge,w,c
 11212  003E9A  1023               	iorwf	??___flge+1,w,c
 11213  003E9C  1024               	iorwf	??___flge+2,w,c
 11214  003E9E  1025               	iorwf	??___flge+3,w,c
 11215  003EA0  A4D8               	btfss	status,2,c
 11216  003EA2  D008               	goto	l5058
 11217  003EA4  0E00               	movlw	0
 11218  003EA6  6E1A               	movwf	___flge@ff1,c
 11219  003EA8  0E00               	movlw	0
 11220  003EAA  6E1B               	movwf	___flge@ff1+1,c
 11221  003EAC  0E00               	movlw	0
 11222  003EAE  6E1C               	movwf	___flge@ff1+2,c
 11223  003EB0  0E00               	movlw	0
 11224  003EB2  6E1D               	movwf	___flge@ff1+3,c
 11225  003EB4                     l5058:
 11226  003EB4  0E00               	movlw	0
 11227  003EB6  141E               	andwf	___flge@ff2,w,c
 11228  003EB8  6E22               	movwf	??___flge& (0+255),c
 11229  003EBA  0E00               	movlw	0
 11230  003EBC  141F               	andwf	___flge@ff2+1,w,c
 11231  003EBE  6E23               	movwf	(??___flge+1)& (0+255),c
 11232  003EC0  0E80               	movlw	128
 11233  003EC2  1420               	andwf	___flge@ff2+2,w,c
 11234  003EC4  6E24               	movwf	(??___flge+2)& (0+255),c
 11235  003EC6  0E7F               	movlw	127
 11236  003EC8  1421               	andwf	___flge@ff2+3,w,c
 11237  003ECA  6E25               	movwf	(??___flge+3)& (0+255),c
 11238  003ECC  5022               	movf	??___flge,w,c
 11239  003ECE  1023               	iorwf	??___flge+1,w,c
 11240  003ED0  1024               	iorwf	??___flge+2,w,c
 11241  003ED2  1025               	iorwf	??___flge+3,w,c
 11242  003ED4  A4D8               	btfss	status,2,c
 11243  003ED6  D008               	goto	l5062
 11244  003ED8  0E00               	movlw	0
 11245  003EDA  6E1E               	movwf	___flge@ff2,c
 11246  003EDC  0E00               	movlw	0
 11247  003EDE  6E1F               	movwf	___flge@ff2+1,c
 11248  003EE0  0E00               	movlw	0
 11249  003EE2  6E20               	movwf	___flge@ff2+2,c
 11250  003EE4  0E00               	movlw	0
 11251  003EE6  6E21               	movwf	___flge@ff2+3,c
 11252  003EE8                     l5062:
 11253  003EE8  AE1D               	btfss	___flge@ff1+3,7,c
 11254  003EEA  D009               	goto	l5066
 11255  003EEC  6C1A               	negf	___flge@ff1,c
 11256  003EEE  1E1B               	comf	___flge@ff1+1,f,c
 11257  003EF0  B0D8               	btfsc	status,0,c
 11258  003EF2  2A1B               	incf	___flge@ff1+1,f,c
 11259  003EF4  1E1C               	comf	___flge@ff1+2,f,c
 11260  003EF6  B0D8               	btfsc	status,0,c
 11261  003EF8  2A1C               	incf	___flge@ff1+2,f,c
 11262  003EFA  0E80               	movlw	128
 11263  003EFC  561D               	subfwb	___flge@ff1+3,f,c
 11264  003EFE                     l5066:
 11265  003EFE  AE21               	btfss	___flge@ff2+3,7,c
 11266  003F00  D009               	goto	l774
 11267  003F02  6C1E               	negf	___flge@ff2,c
 11268  003F04  1E1F               	comf	___flge@ff2+1,f,c
 11269  003F06  B0D8               	btfsc	status,0,c
 11270  003F08  2A1F               	incf	___flge@ff2+1,f,c
 11271  003F0A  1E20               	comf	___flge@ff2+2,f,c
 11272  003F0C  B0D8               	btfsc	status,0,c
 11273  003F0E  2A20               	incf	___flge@ff2+2,f,c
 11274  003F10  0E80               	movlw	128
 11275  003F12  5621               	subfwb	___flge@ff2+3,f,c
 11276  003F14                     l774:
 11277  003F14  0E00               	movlw	0
 11278  003F16  1A1A               	xorwf	___flge@ff1,f,c
 11279  003F18  0E00               	movlw	0
 11280  003F1A  1A1B               	xorwf	___flge@ff1+1,f,c
 11281  003F1C  0E00               	movlw	0
 11282  003F1E  1A1C               	xorwf	___flge@ff1+2,f,c
 11283  003F20  0E80               	movlw	128
 11284  003F22  1A1D               	xorwf	___flge@ff1+3,f,c
 11285  003F24  0E00               	movlw	0
 11286  003F26  1A1E               	xorwf	___flge@ff2,f,c
 11287  003F28  0E00               	movlw	0
 11288  003F2A  1A1F               	xorwf	___flge@ff2+1,f,c
 11289  003F2C  0E00               	movlw	0
 11290  003F2E  1A20               	xorwf	___flge@ff2+2,f,c
 11291  003F30  0E80               	movlw	128
 11292  003F32  1A21               	xorwf	___flge@ff2+3,f,c
 11293  003F34  501E               	movf	___flge@ff2,w,c
 11294  003F36  5C1A               	subwf	___flge@ff1,w,c
 11295  003F38  501F               	movf	___flge@ff2+1,w,c
 11296  003F3A  581B               	subwfb	___flge@ff1+1,w,c
 11297  003F3C  5020               	movf	___flge@ff2+2,w,c
 11298  003F3E  581C               	subwfb	___flge@ff1+2,w,c
 11299  003F40  5021               	movf	___flge@ff2+3,w,c
 11300  003F42  581D               	subwfb	___flge@ff1+3,w,c
 11301  003F44  B0D8               	btfsc	status,0,c
 11302  003F46  D002               	goto	l5072
 11303  003F48  90D8               	bcf	status,0,c
 11304  003F4A  0012               	return	
 11305  003F4C                     l5072:
 11306  003F4C  80D8               	bsf	status,0,c
 11307  003F4E  0012               	return		;funcret
 11308  003F50                     __end_of___flge:
 11309                           	opt callstack 0
 11310                           
 11311 ;; *************** function ___fleq *****************
 11312 ;; Defined at:
 11313 ;;		line 4 in file "C:\Program Files (x86)\Microchip\xc8\v2.05\pic\sources\c99\common\fleq.c"
 11314 ;; Parameters:    Size  Location     Type
 11315 ;;  ff1             4    0[COMRAM] unsigned char 
 11316 ;;  ff2             4    4[COMRAM] unsigned char 
 11317 ;; Auto vars:     Size  Location     Type
 11318 ;;		None
 11319 ;; Return value:  Size  Location     Type
 11320 ;;		None               void
 11321 ;; Registers used:
 11322 ;;		wreg, status,2, status,0
 11323 ;; Tracked objects:
 11324 ;;		On entry : 0/0
 11325 ;;		On exit  : 0/0
 11326 ;;		Unchanged: 0/0
 11327 ;; Data sizes:     COMRAM   BANK0   BANK1   BANK2   BANK3   BANK4   BANK5   BANK6   BANK7
 11328 ;;      Params:         8       0       0       0       0       0       0       0       0
 11329 ;;      Locals:         0       0       0       0       0       0       0       0       0
 11330 ;;      Temps:          4       0       0       0       0       0       0       0       0
 11331 ;;      Totals:        12       0       0       0       0       0       0       0       0
 11332 ;;Total ram usage:       12 bytes
 11333 ;; Hardware stack levels used:    1
 11334 ;; Hardware stack levels required when called:    2
 11335 ;; This function calls:
 11336 ;;		Nothing
 11337 ;; This function is called by:
 11338 ;;		_efgtoa
 11339 ;; This function uses a non-reentrant model
 11340 ;;
 11341                           
 11342                           	psect	text22
 11343  00442E                     __ptext22:
 11344                           	opt callstack 0
 11345  00442E                     ___fleq:
 11346                           	opt callstack 24
 11347                           
 11348                           ;incstack = 0
 11349  00442E  0E00               	movlw	0
 11350  004430  1401               	andwf	___fleq@ff1,w,c
 11351  004432  6E09               	movwf	??___fleq& (0+255),c
 11352  004434  0E00               	movlw	0
 11353  004436  1402               	andwf	___fleq@ff1+1,w,c
 11354  004438  6E0A               	movwf	(??___fleq+1)& (0+255),c
 11355  00443A  0E80               	movlw	128
 11356  00443C  1403               	andwf	___fleq@ff1+2,w,c
 11357  00443E  6E0B               	movwf	(??___fleq+2)& (0+255),c
 11358  004440  0E7F               	movlw	127
 11359  004442  1404               	andwf	___fleq@ff1+3,w,c
 11360  004444  6E0C               	movwf	(??___fleq+3)& (0+255),c
 11361  004446  5009               	movf	??___fleq,w,c
 11362  004448  100A               	iorwf	??___fleq+1,w,c
 11363  00444A  100B               	iorwf	??___fleq+2,w,c
 11364  00444C  100C               	iorwf	??___fleq+3,w,c
 11365  00444E  A4D8               	btfss	status,2,c
 11366  004450  D008               	goto	l5042
 11367  004452  0E00               	movlw	0
 11368  004454  6E01               	movwf	___fleq@ff1,c
 11369  004456  0E00               	movlw	0
 11370  004458  6E02               	movwf	___fleq@ff1+1,c
 11371  00445A  0E00               	movlw	0
 11372  00445C  6E03               	movwf	___fleq@ff1+2,c
 11373  00445E  0E00               	movlw	0
 11374  004460  6E04               	movwf	___fleq@ff1+3,c
 11375  004462                     l5042:
 11376  004462  0E00               	movlw	0
 11377  004464  1405               	andwf	___fleq@ff2,w,c
 11378  004466  6E09               	movwf	??___fleq& (0+255),c
 11379  004468  0E00               	movlw	0
 11380  00446A  1406               	andwf	___fleq@ff2+1,w,c
 11381  00446C  6E0A               	movwf	(??___fleq+1)& (0+255),c
 11382  00446E  0E80               	movlw	128
 11383  004470  1407               	andwf	___fleq@ff2+2,w,c
 11384  004472  6E0B               	movwf	(??___fleq+2)& (0+255),c
 11385  004474  0E7F               	movlw	127
 11386  004476  1408               	andwf	___fleq@ff2+3,w,c
 11387  004478  6E0C               	movwf	(??___fleq+3)& (0+255),c
 11388  00447A  5009               	movf	??___fleq,w,c
 11389  00447C  100A               	iorwf	??___fleq+1,w,c
 11390  00447E  100B               	iorwf	??___fleq+2,w,c
 11391  004480  100C               	iorwf	??___fleq+3,w,c
 11392  004482  A4D8               	btfss	status,2,c
 11393  004484  D008               	goto	l5046
 11394  004486  0E00               	movlw	0
 11395  004488  6E05               	movwf	___fleq@ff2,c
 11396  00448A  0E00               	movlw	0
 11397  00448C  6E06               	movwf	___fleq@ff2+1,c
 11398  00448E  0E00               	movlw	0
 11399  004490  6E07               	movwf	___fleq@ff2+2,c
 11400  004492  0E00               	movlw	0
 11401  004494  6E08               	movwf	___fleq@ff2+3,c
 11402  004496                     l5046:
 11403  004496  5005               	movf	___fleq@ff2,w,c
 11404  004498  1801               	xorwf	___fleq@ff1,w,c
 11405  00449A  E10A               	bnz	u4970
 11406  00449C  5006               	movf	___fleq@ff2+1,w,c
 11407  00449E  1802               	xorwf	___fleq@ff1+1,w,c
 11408  0044A0  E107               	bnz	u4970
 11409  0044A2  5007               	movf	___fleq@ff2+2,w,c
 11410  0044A4  1803               	xorwf	___fleq@ff1+2,w,c
 11411  0044A6  E104               	bnz	u4970
 11412  0044A8  5008               	movf	___fleq@ff2+3,w,c
 11413  0044AA  1804               	xorwf	___fleq@ff1+3,w,c
 11414  0044AC  B4D8               	btfsc	status,2,c
 11415  0044AE  D002               	goto	l5050
 11416  0044B0                     u4970:
 11417  0044B0  90D8               	bcf	status,0,c
 11418  0044B2  0012               	return	
 11419  0044B4                     l5050:
 11420  0044B4  80D8               	bsf	status,0,c
 11421  0044B6  0012               	return		;funcret
 11422  0044B8                     __end_of___fleq:
 11423                           	opt callstack 0
 11424                           
 11425 ;; *************** function ___fldiv *****************
 11426 ;; Defined at:
 11427 ;;		line 11 in file "C:\Program Files (x86)\Microchip\xc8\v2.05\pic\sources\c99\common\sprcdiv.c"
 11428 ;; Parameters:    Size  Location     Type
 11429 ;;  b               4    0[COMRAM] unsigned char 
 11430 ;;  a               4    4[COMRAM] unsigned char 
 11431 ;; Auto vars:     Size  Location     Type
 11432 ;;  grs             4   19[COMRAM] unsigned long 
 11433 ;;  rem             4   12[COMRAM] unsigned long 
 11434 ;;  new_exp         2   17[COMRAM] short 
 11435 ;;  aexp            1   24[COMRAM] unsigned char 
 11436 ;;  bexp            1   23[COMRAM] unsigned char 
 11437 ;;  sign            1   16[COMRAM] unsigned char 
 11438 ;; Return value:  Size  Location     Type
 11439 ;;                  4    0[COMRAM] unsigned char 
 11440 ;; Registers used:
 11441 ;;		wreg, status,2, status,0
 11442 ;; Tracked objects:
 11443 ;;		On entry : 0/0
 11444 ;;		On exit  : 0/0
 11445 ;;		Unchanged: 0/0
 11446 ;; Data sizes:     COMRAM   BANK0   BANK1   BANK2   BANK3   BANK4   BANK5   BANK6   BANK7
 11447 ;;      Params:         8       0       0       0       0       0       0       0       0
 11448 ;;      Locals:        13       0       0       0       0       0       0       0       0
 11449 ;;      Temps:          4       0       0       0       0       0       0       0       0
 11450 ;;      Totals:        25       0       0       0       0       0       0       0       0
 11451 ;;Total ram usage:       25 bytes
 11452 ;; Hardware stack levels used:    1
 11453 ;; Hardware stack levels required when called:    2
 11454 ;; This function calls:
 11455 ;;		Nothing
 11456 ;; This function is called by:
 11457 ;;		_efgtoa
 11458 ;; This function uses a non-reentrant model
 11459 ;;
 11460                           
 11461                           	psect	text23
 11462  002E68                     __ptext23:
 11463                           	opt callstack 0
 11464  002E68                     ___fldiv:
 11465                           	opt callstack 24
 11466                           
 11467                           ;incstack = 0
 11468  002E68  5004               	movf	___fldiv@b+3,w,c
 11469  002E6A  0B80               	andlw	128
 11470  002E6C  6E11               	movwf	___fldiv@sign,c
 11471  002E6E  5004               	movf	___fldiv@b+3,w,c
 11472  002E70  2404               	addwf	___fldiv@b+3,w,c
 11473  002E72  6E18               	movwf	___fldiv@bexp,c
 11474  002E74  BE03               	btfsc	___fldiv@b+2,7,c
 11475  002E76  8018               	bsf	___fldiv@bexp,0,c
 11476  002E78  5018               	movf	___fldiv@bexp,w,c
 11477  002E7A  B4D8               	btfsc	status,2,c
 11478  002E7C  D00D               	goto	l4700
 11479  002E7E  2818               	incf	___fldiv@bexp,w,c
 11480  002E80  A4D8               	btfss	status,2,c
 11481  002E82  D008               	goto	l4696
 11482  002E84  0E00               	movlw	0
 11483  002E86  6E01               	movwf	___fldiv@b,c
 11484  002E88  0E00               	movlw	0
 11485  002E8A  6E02               	movwf	___fldiv@b+1,c
 11486  002E8C  0E00               	movlw	0
 11487  002E8E  6E03               	movwf	___fldiv@b+2,c
 11488  002E90  0E00               	movlw	0
 11489  002E92  6E04               	movwf	___fldiv@b+3,c
 11490  002E94                     l4696:
 11491  002E94  8E03               	bsf	___fldiv@b+2,7,c
 11492  002E96  D006               	goto	L15
 11493  002E98                     l4700:
 11494  002E98  0E00               	movlw	0
 11495  002E9A  6E01               	movwf	___fldiv@b,c
 11496  002E9C  0E00               	movlw	0
 11497  002E9E  6E02               	movwf	___fldiv@b+1,c
 11498  002EA0  0E00               	movlw	0
 11499  002EA2  6E03               	movwf	___fldiv@b+2,c
 11500  002EA4                     L15:
 11501  002EA4  0E00               	movlw	0
 11502  002EA6  6E04               	movwf	___fldiv@b+3,c
 11503  002EA8  5008               	movf	___fldiv@a+3,w,c
 11504  002EAA  0B80               	andlw	128
 11505  002EAC  1A11               	xorwf	___fldiv@sign,f,c
 11506  002EAE  5008               	movf	___fldiv@a+3,w,c
 11507  002EB0  2408               	addwf	___fldiv@a+3,w,c
 11508  002EB2  6E19               	movwf	___fldiv@aexp,c
 11509  002EB4  BE07               	btfsc	___fldiv@a+2,7,c
 11510  002EB6  8019               	bsf	___fldiv@aexp,0,c
 11511  002EB8  5019               	movf	___fldiv@aexp,w,c
 11512  002EBA  B4D8               	btfsc	status,2,c
 11513  002EBC  D00D               	goto	l4720
 11514  002EBE  2819               	incf	___fldiv@aexp,w,c
 11515  002EC0  A4D8               	btfss	status,2,c
 11516  002EC2  D008               	goto	l4716
 11517  002EC4  0E00               	movlw	0
 11518  002EC6  6E05               	movwf	___fldiv@a,c
 11519  002EC8  0E00               	movlw	0
 11520  002ECA  6E06               	movwf	___fldiv@a+1,c
 11521  002ECC  0E00               	movlw	0
 11522  002ECE  6E07               	movwf	___fldiv@a+2,c
 11523  002ED0  0E00               	movlw	0
 11524  002ED2  6E08               	movwf	___fldiv@a+3,c
 11525  002ED4                     l4716:
 11526  002ED4  8E07               	bsf	___fldiv@a+2,7,c
 11527  002ED6  D006               	goto	L16
 11528  002ED8                     l4720:
 11529  002ED8  0E00               	movlw	0
 11530  002EDA  6E05               	movwf	___fldiv@a,c
 11531  002EDC  0E00               	movlw	0
 11532  002EDE  6E06               	movwf	___fldiv@a+1,c
 11533  002EE0  0E00               	movlw	0
 11534  002EE2  6E07               	movwf	___fldiv@a+2,c
 11535  002EE4                     L16:
 11536  002EE4  0E00               	movlw	0
 11537  002EE6  6E08               	movwf	___fldiv@a+3,c
 11538  002EE8  5005               	movf	___fldiv@a,w,c
 11539  002EEA  1006               	iorwf	___fldiv@a+1,w,c
 11540  002EEC  1007               	iorwf	___fldiv@a+2,w,c
 11541  002EEE  1008               	iorwf	___fldiv@a+3,w,c
 11542  002EF0  A4D8               	btfss	status,2,c
 11543  002EF2  D017               	goto	l4734
 11544  002EF4  0E00               	movlw	0
 11545  002EF6  6E01               	movwf	___fldiv@b,c
 11546  002EF8  0E00               	movlw	0
 11547  002EFA  6E02               	movwf	___fldiv@b+1,c
 11548  002EFC  0E00               	movlw	0
 11549  002EFE  6E03               	movwf	___fldiv@b+2,c
 11550  002F00  0E00               	movlw	0
 11551  002F02  6E04               	movwf	___fldiv@b+3,c
 11552  002F04  0E80               	movlw	128
 11553  002F06  1203               	iorwf	___fldiv@b+2,f,c
 11554  002F08  0E7F               	movlw	127
 11555  002F0A  1204               	iorwf	___fldiv@b+3,f,c
 11556  002F0C                     l4728:
 11557  002F0C  5011               	movf	___fldiv@sign,w,c
 11558  002F0E  1204               	iorwf	___fldiv@b+3,f,c
 11559  002F10  C001  F001         	movff	___fldiv@b,?___fldiv
 11560  002F14  C002  F002         	movff	___fldiv@b+1,?___fldiv+1
 11561  002F18  C003  F003         	movff	___fldiv@b+2,?___fldiv+2
 11562  002F1C  C004  F004         	movff	___fldiv@b+3,?___fldiv+3
 11563  002F20  0012               	return	
 11564  002F22                     l4734:
 11565  002F22  5018               	movf	___fldiv@bexp,w,c
 11566  002F24  A4D8               	btfss	status,2,c
 11567  002F26  D009               	goto	l4742
 11568  002F28  0E00               	movlw	0
 11569  002F2A  6E01               	movwf	?___fldiv,c
 11570  002F2C  0E00               	movlw	0
 11571  002F2E  6E02               	movwf	?___fldiv+1,c
 11572  002F30  0E00               	movlw	0
 11573  002F32  6E03               	movwf	?___fldiv+2,c
 11574  002F34  0E00               	movlw	0
 11575  002F36  6E04               	movwf	?___fldiv+3,c
 11576  002F38  0012               	return	
 11577  002F3A                     l4742:
 11578  002F3A  5019               	movf	___fldiv@aexp,w,c
 11579  002F3C  C018  F009         	movff	___fldiv@bexp,??___fldiv
 11580  002F40  6A0A               	clrf	(??___fldiv+1)& (0+255),c
 11581  002F42  5E09               	subwf	??___fldiv,f,c
 11582  002F44  0E00               	movlw	0
 11583  002F46  5A0A               	subwfb	??___fldiv+1,f,c
 11584  002F48  0E7F               	movlw	127
 11585  002F4A  2409               	addwf	??___fldiv,w,c
 11586  002F4C  6E12               	movwf	___fldiv@new_exp,c
 11587  002F4E  0E00               	movlw	0
 11588  002F50  200A               	addwfc	??___fldiv+1,w,c
 11589  002F52  6E13               	movwf	___fldiv@new_exp+1,c
 11590  002F54  C001  F00D         	movff	___fldiv@b,___fldiv@rem
 11591  002F58  C002  F00E         	movff	___fldiv@b+1,___fldiv@rem+1
 11592  002F5C  C003  F00F         	movff	___fldiv@b+2,___fldiv@rem+2
 11593  002F60  C004  F010         	movff	___fldiv@b+3,___fldiv@rem+3
 11594  002F64  0E00               	movlw	0
 11595  002F66  6E01               	movwf	___fldiv@b,c
 11596  002F68  0E00               	movlw	0
 11597  002F6A  6E02               	movwf	___fldiv@b+1,c
 11598  002F6C  0E00               	movlw	0
 11599  002F6E  6E03               	movwf	___fldiv@b+2,c
 11600  002F70  0E00               	movlw	0
 11601  002F72  6E04               	movwf	___fldiv@b+3,c
 11602  002F74  0E00               	movlw	0
 11603  002F76  6E14               	movwf	___fldiv@grs,c
 11604  002F78  0E00               	movlw	0
 11605  002F7A  6E15               	movwf	___fldiv@grs+1,c
 11606  002F7C  0E00               	movlw	0
 11607  002F7E  6E16               	movwf	___fldiv@grs+2,c
 11608  002F80  0E00               	movlw	0
 11609  002F82  6E17               	movwf	___fldiv@grs+3,c
 11610  002F84  0E00               	movlw	0
 11611  002F86  6E19               	movwf	___fldiv@aexp,c
 11612  002F88  D028               	goto	l1093
 11613  002F8A                     l4752:
 11614  002F8A  5019               	movf	___fldiv@aexp,w,c
 11615  002F8C  B4D8               	btfsc	status,2,c
 11616  002F8E  D011               	goto	l4760
 11617  002F90  90D8               	bcf	status,0,c
 11618  002F92  360D               	rlcf	___fldiv@rem,f,c
 11619  002F94  360E               	rlcf	___fldiv@rem+1,f,c
 11620  002F96  360F               	rlcf	___fldiv@rem+2,f,c
 11621  002F98  3610               	rlcf	___fldiv@rem+3,f,c
 11622  002F9A  90D8               	bcf	status,0,c
 11623  002F9C  3601               	rlcf	___fldiv@b,f,c
 11624  002F9E  3602               	rlcf	___fldiv@b+1,f,c
 11625  002FA0  3603               	rlcf	___fldiv@b+2,f,c
 11626  002FA2  3604               	rlcf	___fldiv@b+3,f,c
 11627  002FA4  BE17               	btfsc	___fldiv@grs+3,7,c
 11628  002FA6  8001               	bsf	___fldiv@b,0,c
 11629  002FA8  90D8               	bcf	status,0,c
 11630  002FAA  3614               	rlcf	___fldiv@grs,f,c
 11631  002FAC  3615               	rlcf	___fldiv@grs+1,f,c
 11632  002FAE  3616               	rlcf	___fldiv@grs+2,f,c
 11633  002FB0  3617               	rlcf	___fldiv@grs+3,f,c
 11634  002FB2                     l4760:
 11635  002FB2  5005               	movf	___fldiv@a,w,c
 11636  002FB4  5C0D               	subwf	___fldiv@rem,w,c
 11637  002FB6  5006               	movf	___fldiv@a+1,w,c
 11638  002FB8  580E               	subwfb	___fldiv@rem+1,w,c
 11639  002FBA  5007               	movf	___fldiv@a+2,w,c
 11640  002FBC  580F               	subwfb	___fldiv@rem+2,w,c
 11641  002FBE  5008               	movf	___fldiv@a+3,w,c
 11642  002FC0  5810               	subwfb	___fldiv@rem+3,w,c
 11643  002FC2  A0D8               	btfss	status,0,c
 11644  002FC4  D009               	goto	l4766
 11645  002FC6  8C17               	bsf	___fldiv@grs+3,6,c
 11646  002FC8  5005               	movf	___fldiv@a,w,c
 11647  002FCA  5E0D               	subwf	___fldiv@rem,f,c
 11648  002FCC  5006               	movf	___fldiv@a+1,w,c
 11649  002FCE  5A0E               	subwfb	___fldiv@rem+1,f,c
 11650  002FD0  5007               	movf	___fldiv@a+2,w,c
 11651  002FD2  5A0F               	subwfb	___fldiv@rem+2,f,c
 11652  002FD4  5008               	movf	___fldiv@a+3,w,c
 11653  002FD6  5A10               	subwfb	___fldiv@rem+3,f,c
 11654  002FD8                     l4766:
 11655  002FD8  2A19               	incf	___fldiv@aexp,f,c
 11656  002FDA                     l1093:
 11657  002FDA  0E19               	movlw	25
 11658  002FDC  6419               	cpfsgt	___fldiv@aexp,c
 11659  002FDE  D7D5               	goto	l4752
 11660  002FE0  500D               	movf	___fldiv@rem,w,c
 11661  002FE2  100E               	iorwf	___fldiv@rem+1,w,c
 11662  002FE4  100F               	iorwf	___fldiv@rem+2,w,c
 11663  002FE6  1010               	iorwf	___fldiv@rem+3,w,c
 11664  002FE8  B4D8               	btfsc	status,2,c
 11665  002FEA  D011               	goto	l4778
 11666  002FEC  8014               	bsf	___fldiv@grs,0,c
 11667  002FEE  D00F               	goto	l4778
 11668  002FF0                     l4772:
 11669  002FF0  90D8               	bcf	status,0,c
 11670  002FF2  3601               	rlcf	___fldiv@b,f,c
 11671  002FF4  3602               	rlcf	___fldiv@b+1,f,c
 11672  002FF6  3603               	rlcf	___fldiv@b+2,f,c
 11673  002FF8  3604               	rlcf	___fldiv@b+3,f,c
 11674  002FFA  BE17               	btfsc	___fldiv@grs+3,7,c
 11675  002FFC  8001               	bsf	___fldiv@b,0,c
 11676  002FFE  90D8               	bcf	status,0,c
 11677  003000  3614               	rlcf	___fldiv@grs,f,c
 11678  003002  3615               	rlcf	___fldiv@grs+1,f,c
 11679  003004  3616               	rlcf	___fldiv@grs+2,f,c
 11680  003006  3617               	rlcf	___fldiv@grs+3,f,c
 11681  003008  0612               	decf	___fldiv@new_exp,f,c
 11682  00300A  A0D8               	btfss	status,0,c
 11683  00300C  0613               	decf	___fldiv@new_exp+1,f,c
 11684  00300E                     l4778:
 11685  00300E  AE03               	btfss	___fldiv@b+2,7,c
 11686  003010  D7EF               	goto	l4772
 11687  003012  0E00               	movlw	0
 11688  003014  6E19               	movwf	___fldiv@aexp,c
 11689  003016  AE17               	btfss	___fldiv@grs+3,7,c
 11690  003018  D017               	goto	l1104
 11691  00301A  0EFF               	movlw	255
 11692  00301C  1414               	andwf	___fldiv@grs,w,c
 11693  00301E  6E09               	movwf	??___fldiv& (0+255),c
 11694  003020  0EFF               	movlw	255
 11695  003022  1415               	andwf	___fldiv@grs+1,w,c
 11696  003024  6E0A               	movwf	(??___fldiv+1)& (0+255),c
 11697  003026  0EFF               	movlw	255
 11698  003028  1416               	andwf	___fldiv@grs+2,w,c
 11699  00302A  6E0B               	movwf	(??___fldiv+2)& (0+255),c
 11700  00302C  0E7F               	movlw	127
 11701  00302E  1417               	andwf	___fldiv@grs+3,w,c
 11702  003030  6E0C               	movwf	(??___fldiv+3)& (0+255),c
 11703  003032  5009               	movf	??___fldiv,w,c
 11704  003034  100A               	iorwf	??___fldiv+1,w,c
 11705  003036  100B               	iorwf	??___fldiv+2,w,c
 11706  003038  100C               	iorwf	??___fldiv+3,w,c
 11707  00303A  B4D8               	btfsc	status,2,c
 11708  00303C  D003               	goto	l1105
 11709  00303E                     u4570:
 11710  00303E  0E01               	movlw	1
 11711  003040  6E19               	movwf	___fldiv@aexp,c
 11712  003042  D002               	goto	l1104
 11713  003044                     l1105:
 11714  003044  B001               	btfsc	___fldiv@b,0,c
 11715  003046  D7FB               	goto	u4570
 11716  003048                     l1104:
 11717  003048  5019               	movf	___fldiv@aexp,w,c
 11718  00304A  B4D8               	btfsc	status,2,c
 11719  00304C  D01F               	goto	l4798
 11720  00304E  0E01               	movlw	1
 11721  003050  2601               	addwf	___fldiv@b,f,c
 11722  003052  0E00               	movlw	0
 11723  003054  2202               	addwfc	___fldiv@b+1,f,c
 11724  003056  2203               	addwfc	___fldiv@b+2,f,c
 11725  003058  2204               	addwfc	___fldiv@b+3,f,c
 11726  00305A  A004               	btfss	___fldiv@b+3,0,c
 11727  00305C  D017               	goto	l4798
 11728  00305E  C001  F009         	movff	___fldiv@b,??___fldiv
 11729  003062  C002  F00A         	movff	___fldiv@b+1,??___fldiv+1
 11730  003066  C003  F00B         	movff	___fldiv@b+2,??___fldiv+2
 11731  00306A  C004  F00C         	movff	___fldiv@b+3,??___fldiv+3
 11732  00306E  340C               	rlcf	??___fldiv+3,w,c
 11733  003070  320C               	rrcf	??___fldiv+3,f,c
 11734  003072  320B               	rrcf	??___fldiv+2,f,c
 11735  003074  320A               	rrcf	??___fldiv+1,f,c
 11736  003076  3209               	rrcf	??___fldiv,f,c
 11737  003078  C009  F001         	movff	??___fldiv,___fldiv@b
 11738  00307C  C00A  F002         	movff	??___fldiv+1,___fldiv@b+1
 11739  003080  C00B  F003         	movff	??___fldiv+2,___fldiv@b+2
 11740  003084  C00C  F004         	movff	??___fldiv+3,___fldiv@b+3
 11741  003088  4A12               	infsnz	___fldiv@new_exp,f,c
 11742  00308A  2A13               	incf	___fldiv@new_exp+1,f,c
 11743  00308C                     l4798:
 11744  00308C  BE13               	btfsc	___fldiv@new_exp+1,7,c
 11745  00308E  D010               	goto	l4802
 11746  003090  5013               	movf	___fldiv@new_exp+1,w,c
 11747  003092  E103               	bnz	u4610
 11748  003094  2812               	incf	___fldiv@new_exp,w,c
 11749  003096  A0D8               	btfss	status,0,c
 11750  003098  D00B               	goto	l4802
 11751  00309A                     u4610:
 11752  00309A  0E00               	movlw	0
 11753  00309C  6E13               	movwf	___fldiv@new_exp+1,c
 11754  00309E  6812               	setf	___fldiv@new_exp,c
 11755  0030A0  0E00               	movlw	0
 11756  0030A2  6E01               	movwf	___fldiv@b,c
 11757  0030A4  0E00               	movlw	0
 11758  0030A6  6E02               	movwf	___fldiv@b+1,c
 11759  0030A8  0E00               	movlw	0
 11760  0030AA  6E03               	movwf	___fldiv@b+2,c
 11761  0030AC  0E00               	movlw	0
 11762  0030AE  6E04               	movwf	___fldiv@b+3,c
 11763  0030B0                     l4802:
 11764  0030B0  BE13               	btfsc	___fldiv@new_exp+1,7,c
 11765  0030B2  D005               	goto	u4620
 11766  0030B4  5013               	movf	___fldiv@new_exp+1,w,c
 11767  0030B6  E111               	bnz	l4806
 11768  0030B8  0412               	decf	___fldiv@new_exp,w,c
 11769  0030BA  B0D8               	btfsc	status,0,c
 11770  0030BC  D00E               	goto	l4806
 11771  0030BE                     u4620:
 11772  0030BE  0E00               	movlw	0
 11773  0030C0  6E13               	movwf	___fldiv@new_exp+1,c
 11774  0030C2  0E00               	movlw	0
 11775  0030C4  6E12               	movwf	___fldiv@new_exp,c
 11776  0030C6  0E00               	movlw	0
 11777  0030C8  6E01               	movwf	___fldiv@b,c
 11778  0030CA  0E00               	movlw	0
 11779  0030CC  6E02               	movwf	___fldiv@b+1,c
 11780  0030CE  0E00               	movlw	0
 11781  0030D0  6E03               	movwf	___fldiv@b+2,c
 11782  0030D2  0E00               	movlw	0
 11783  0030D4  6E04               	movwf	___fldiv@b+3,c
 11784  0030D6  0E00               	movlw	0
 11785  0030D8  6E11               	movwf	___fldiv@sign,c
 11786  0030DA                     l4806:
 11787  0030DA  C012  F018         	movff	___fldiv@new_exp,___fldiv@bexp
 11788  0030DE  A018               	btfss	___fldiv@bexp,0,c
 11789  0030E0  D002               	goto	l4812
 11790  0030E2  8E03               	bsf	___fldiv@b+2,7,c
 11791  0030E4  D001               	goto	l4814
 11792  0030E6                     l4812:
 11793  0030E6  9E03               	bcf	___fldiv@b+2,7,c
 11794  0030E8                     l4814:
 11795  0030E8  90D8               	bcf	status,0,c
 11796  0030EA  3018               	rrcf	___fldiv@bexp,w,c
 11797  0030EC  6E04               	movwf	___fldiv@b+3,c
 11798  0030EE  D70E               	goto	l4728
 11799  0030F0                     __end_of___fldiv:
 11800                           	opt callstack 0
 11801                           
 11802 ;; *************** function ___awmod *****************
 11803 ;; Defined at:
 11804 ;;		line 7 in file "C:\Program Files (x86)\Microchip\xc8\v2.05\pic\sources\c99\common\awmod.c"
 11805 ;; Parameters:    Size  Location     Type
 11806 ;;  dividend        2    0[COMRAM] int 
 11807 ;;  divisor         2    2[COMRAM] int 
 11808 ;; Auto vars:     Size  Location     Type
 11809 ;;  sign            1    5[COMRAM] unsigned char 
 11810 ;;  counter         1    4[COMRAM] unsigned char 
 11811 ;; Return value:  Size  Location     Type
 11812 ;;                  2    0[COMRAM] int 
 11813 ;; Registers used:
 11814 ;;		wreg, status,2, status,0
 11815 ;; Tracked objects:
 11816 ;;		On entry : 0/0
 11817 ;;		On exit  : 0/0
 11818 ;;		Unchanged: 0/0
 11819 ;; Data sizes:     COMRAM   BANK0   BANK1   BANK2   BANK3   BANK4   BANK5   BANK6   BANK7
 11820 ;;      Params:         4       0       0       0       0       0       0       0       0
 11821 ;;      Locals:         2       0       0       0       0       0       0       0       0
 11822 ;;      Temps:          0       0       0       0       0       0       0       0       0
 11823 ;;      Totals:         6       0       0       0       0       0       0       0       0
 11824 ;;Total ram usage:        6 bytes
 11825 ;; Hardware stack levels used:    1
 11826 ;; Hardware stack levels required when called:    2
 11827 ;; This function calls:
 11828 ;;		Nothing
 11829 ;; This function is called by:
 11830 ;;		_efgtoa
 11831 ;; This function uses a non-reentrant model
 11832 ;;
 11833                           
 11834                           	psect	text24
 11835  00462A                     __ptext24:
 11836                           	opt callstack 0
 11837  00462A                     ___awmod:
 11838                           	opt callstack 24
 11839                           
 11840                           ;incstack = 0
 11841  00462A  0E00               	movlw	0
 11842  00462C  6E06               	movwf	___awmod@sign,c
 11843  00462E  AE02               	btfss	___awmod@dividend+1,7,c
 11844  004630  D006               	goto	l5010
 11845  004632  6C01               	negf	___awmod@dividend,c
 11846  004634  1E02               	comf	___awmod@dividend+1,f,c
 11847  004636  B0D8               	btfsc	status,0,c
 11848  004638  2A02               	incf	___awmod@dividend+1,f,c
 11849  00463A  0E01               	movlw	1
 11850  00463C  6E06               	movwf	___awmod@sign,c
 11851  00463E                     l5010:
 11852  00463E  AE04               	btfss	___awmod@divisor+1,7,c
 11853  004640  D004               	goto	l5014
 11854  004642  6C03               	negf	___awmod@divisor,c
 11855  004644  1E04               	comf	___awmod@divisor+1,f,c
 11856  004646  B0D8               	btfsc	status,0,c
 11857  004648  2A04               	incf	___awmod@divisor+1,f,c
 11858  00464A                     l5014:
 11859  00464A  5003               	movf	___awmod@divisor,w,c
 11860  00464C  1004               	iorwf	___awmod@divisor+1,w,c
 11861  00464E  B4D8               	btfsc	status,2,c
 11862  004650  D018               	goto	l5030
 11863  004652  0E01               	movlw	1
 11864  004654  6E05               	movwf	___awmod@counter,c
 11865  004656  D004               	goto	l5020
 11866  004658                     l5018:
 11867  004658  90D8               	bcf	status,0,c
 11868  00465A  3603               	rlcf	___awmod@divisor,f,c
 11869  00465C  3604               	rlcf	___awmod@divisor+1,f,c
 11870  00465E  2A05               	incf	___awmod@counter,f,c
 11871  004660                     l5020:
 11872  004660  AE04               	btfss	___awmod@divisor+1,7,c
 11873  004662  D7FA               	goto	l5018
 11874  004664                     u4920:
 11875  004664  5003               	movf	___awmod@divisor,w,c
 11876  004666  5C01               	subwf	___awmod@dividend,w,c
 11877  004668  5004               	movf	___awmod@divisor+1,w,c
 11878  00466A  5802               	subwfb	___awmod@dividend+1,w,c
 11879  00466C  A0D8               	btfss	status,0,c
 11880  00466E  D004               	goto	l5026
 11881  004670  5003               	movf	___awmod@divisor,w,c
 11882  004672  5E01               	subwf	___awmod@dividend,f,c
 11883  004674  5004               	movf	___awmod@divisor+1,w,c
 11884  004676  5A02               	subwfb	___awmod@dividend+1,f,c
 11885  004678                     l5026:
 11886  004678  90D8               	bcf	status,0,c
 11887  00467A  3204               	rrcf	___awmod@divisor+1,f,c
 11888  00467C  3203               	rrcf	___awmod@divisor,f,c
 11889  00467E  2E05               	decfsz	___awmod@counter,f,c
 11890  004680  D7F1               	goto	u4920
 11891  004682                     l5030:
 11892  004682  5006               	movf	___awmod@sign,w,c
 11893  004684  B4D8               	btfsc	status,2,c
 11894  004686  D004               	goto	l5034
 11895  004688  6C01               	negf	___awmod@dividend,c
 11896  00468A  1E02               	comf	___awmod@dividend+1,f,c
 11897  00468C  B0D8               	btfsc	status,0,c
 11898  00468E  2A02               	incf	___awmod@dividend+1,f,c
 11899  004690                     l5034:
 11900  004690  C001  F001         	movff	___awmod@dividend,?___awmod
 11901  004694  C002  F002         	movff	___awmod@dividend+1,?___awmod+1
 11902  004698  0012               	return		;funcret
 11903  00469A                     __end_of___awmod:
 11904                           	opt callstack 0
 11905                           
 11906 ;; *************** function ___awdiv *****************
 11907 ;; Defined at:
 11908 ;;		line 7 in file "C:\Program Files (x86)\Microchip\xc8\v2.05\pic\sources\c99\common\awdiv.c"
 11909 ;; Parameters:    Size  Location     Type
 11910 ;;  dividend        2    0[COMRAM] int 
 11911 ;;  divisor         2    2[COMRAM] int 
 11912 ;; Auto vars:     Size  Location     Type
 11913 ;;  quotient        2    6[COMRAM] int 
 11914 ;;  sign            1    5[COMRAM] unsigned char 
 11915 ;;  counter         1    4[COMRAM] unsigned char 
 11916 ;; Return value:  Size  Location     Type
 11917 ;;                  2    0[COMRAM] int 
 11918 ;; Registers used:
 11919 ;;		wreg, status,2, status,0
 11920 ;; Tracked objects:
 11921 ;;		On entry : 0/0
 11922 ;;		On exit  : 0/0
 11923 ;;		Unchanged: 0/0
 11924 ;; Data sizes:     COMRAM   BANK0   BANK1   BANK2   BANK3   BANK4   BANK5   BANK6   BANK7
 11925 ;;      Params:         4       0       0       0       0       0       0       0       0
 11926 ;;      Locals:         4       0       0       0       0       0       0       0       0
 11927 ;;      Temps:          0       0       0       0       0       0       0       0       0
 11928 ;;      Totals:         8       0       0       0       0       0       0       0       0
 11929 ;;Total ram usage:        8 bytes
 11930 ;; Hardware stack levels used:    1
 11931 ;; Hardware stack levels required when called:    2
 11932 ;; This function calls:
 11933 ;;		Nothing
 11934 ;; This function is called by:
 11935 ;;		_efgtoa
 11936 ;; This function uses a non-reentrant model
 11937 ;;
 11938                           
 11939                           	psect	text25
 11940  0044B8                     __ptext25:
 11941                           	opt callstack 0
 11942  0044B8                     ___awdiv:
 11943                           	opt callstack 24
 11944                           
 11945                           ;incstack = 0
 11946  0044B8  0E00               	movlw	0
 11947  0044BA  6E06               	movwf	___awdiv@sign,c
 11948  0044BC  AE04               	btfss	___awdiv@divisor+1,7,c
 11949  0044BE  D006               	goto	l4966
 11950  0044C0  6C03               	negf	___awdiv@divisor,c
 11951  0044C2  1E04               	comf	___awdiv@divisor+1,f,c
 11952  0044C4  B0D8               	btfsc	status,0,c
 11953  0044C6  2A04               	incf	___awdiv@divisor+1,f,c
 11954  0044C8  0E01               	movlw	1
 11955  0044CA  6E06               	movwf	___awdiv@sign,c
 11956  0044CC                     l4966:
 11957  0044CC  AE02               	btfss	___awdiv@dividend+1,7,c
 11958  0044CE  D006               	goto	l4972
 11959  0044D0  6C01               	negf	___awdiv@dividend,c
 11960  0044D2  1E02               	comf	___awdiv@dividend+1,f,c
 11961  0044D4  B0D8               	btfsc	status,0,c
 11962  0044D6  2A02               	incf	___awdiv@dividend+1,f,c
 11963  0044D8  0E01               	movlw	1
 11964  0044DA  1A06               	xorwf	___awdiv@sign,f,c
 11965  0044DC                     l4972:
 11966  0044DC  0E00               	movlw	0
 11967  0044DE  6E08               	movwf	___awdiv@quotient+1,c
 11968  0044E0  0E00               	movlw	0
 11969  0044E2  6E07               	movwf	___awdiv@quotient,c
 11970  0044E4  5003               	movf	___awdiv@divisor,w,c
 11971  0044E6  1004               	iorwf	___awdiv@divisor+1,w,c
 11972  0044E8  B4D8               	btfsc	status,2,c
 11973  0044EA  D01C               	goto	l4994
 11974  0044EC  0E01               	movlw	1
 11975  0044EE  6E05               	movwf	___awdiv@counter,c
 11976  0044F0  D004               	goto	l4980
 11977  0044F2                     l4978:
 11978  0044F2  90D8               	bcf	status,0,c
 11979  0044F4  3603               	rlcf	___awdiv@divisor,f,c
 11980  0044F6  3604               	rlcf	___awdiv@divisor+1,f,c
 11981  0044F8  2A05               	incf	___awdiv@counter,f,c
 11982  0044FA                     l4980:
 11983  0044FA  AE04               	btfss	___awdiv@divisor+1,7,c
 11984  0044FC  D7FA               	goto	l4978
 11985  0044FE                     u4860:
 11986  0044FE  90D8               	bcf	status,0,c
 11987  004500  3607               	rlcf	___awdiv@quotient,f,c
 11988  004502  3608               	rlcf	___awdiv@quotient+1,f,c
 11989  004504  5003               	movf	___awdiv@divisor,w,c
 11990  004506  5C01               	subwf	___awdiv@dividend,w,c
 11991  004508  5004               	movf	___awdiv@divisor+1,w,c
 11992  00450A  5802               	subwfb	___awdiv@dividend+1,w,c
 11993  00450C  A0D8               	btfss	status,0,c
 11994  00450E  D005               	goto	l4990
 11995  004510  5003               	movf	___awdiv@divisor,w,c
 11996  004512  5E01               	subwf	___awdiv@dividend,f,c
 11997  004514  5004               	movf	___awdiv@divisor+1,w,c
 11998  004516  5A02               	subwfb	___awdiv@dividend+1,f,c
 11999  004518  8007               	bsf	___awdiv@quotient,0,c
 12000  00451A                     l4990:
 12001  00451A  90D8               	bcf	status,0,c
 12002  00451C  3204               	rrcf	___awdiv@divisor+1,f,c
 12003  00451E  3203               	rrcf	___awdiv@divisor,f,c
 12004  004520  2E05               	decfsz	___awdiv@counter,f,c
 12005  004522  D7ED               	goto	u4860
 12006  004524                     l4994:
 12007  004524  5006               	movf	___awdiv@sign,w,c
 12008  004526  B4D8               	btfsc	status,2,c
 12009  004528  D004               	goto	l4998
 12010  00452A  6C07               	negf	___awdiv@quotient,c
 12011  00452C  1E08               	comf	___awdiv@quotient+1,f,c
 12012  00452E  B0D8               	btfsc	status,0,c
 12013  004530  2A08               	incf	___awdiv@quotient+1,f,c
 12014  004532                     l4998:
 12015  004532  C007  F001         	movff	___awdiv@quotient,?___awdiv
 12016  004536  C008  F002         	movff	___awdiv@quotient+1,?___awdiv+1
 12017  00453A  0012               	return		;funcret
 12018  00453C                     __end_of___awdiv:
 12019                           	opt callstack 0
 12020                           
 12021 ;; *************** function _dtoa *****************
 12022 ;; Defined at:
 12023 ;;		line 274 in file "C:\Program Files (x86)\Microchip\xc8\v2.05\pic\sources\c99\common\doprnt.c"
 12024 ;; Parameters:    Size  Location     Type
 12025 ;;  fp              2   27[COMRAM] PTR struct _IO_FILE
 12026 ;;		 -> sprintf@f(6), 
 12027 ;;  d               8   29[COMRAM] long long 
 12028 ;; Auto vars:     Size  Location     Type
 12029 ;;  n               8   53[COMRAM] long long 
 12030 ;;  i               2   61[COMRAM] int 
 12031 ;;  s               2   51[COMRAM] int 
 12032 ;;  w               2   49[COMRAM] int 
 12033 ;;  p               2   47[COMRAM] int 
 12034 ;; Return value:  Size  Location     Type
 12035 ;;                  2   27[COMRAM] int 
 12036 ;; Registers used:
 12037 ;;		wreg, fsr1l, fsr1h, fsr2l, fsr2h, status,2, status,0, cstack
 12038 ;; Tracked objects:
 12039 ;;		On entry : 0/0
 12040 ;;		On exit  : 0/0
 12041 ;;		Unchanged: 0/0
 12042 ;; Data sizes:     COMRAM   BANK0   BANK1   BANK2   BANK3   BANK4   BANK5   BANK6   BANK7
 12043 ;;      Params:        10       0       0       0       0       0       0       0       0
 12044 ;;      Locals:        18       0       0       0       0       0       0       0       0
 12045 ;;      Temps:          8       0       0       0       0       0       0       0       0
 12046 ;;      Totals:        36       0       0       0       0       0       0       0       0
 12047 ;;Total ram usage:       36 bytes
 12048 ;; Hardware stack levels used:    1
 12049 ;; Hardware stack levels required when called:    6
 12050 ;; This function calls:
 12051 ;;		___aodiv
 12052 ;;		___aomod
 12053 ;;		_abs
 12054 ;;		_pad
 12055 ;; This function is called by:
 12056 ;;		_vfpfcnvrt
 12057 ;; This function uses a non-reentrant model
 12058 ;;
 12059                           
 12060                           	psect	text26
 12061  0030F0                     __ptext26:
 12062                           	opt callstack 0
 12063  0030F0                     _dtoa:
 12064                           	opt callstack 21
 12065                           
 12066                           ;C:\Program Files (x86)\Microchip\xc8\v2.05\pic\sources\c99\common\doprnt.c: 274: static
      +                           int dtoa(FILE *fp, long long d);C:\Program Files (x86)\Microchip\xc8\v2.05\pic\sources\
      +                          c99\common\doprnt.c: 275: {;C:\Program Files (x86)\Microchip\xc8\v2.05\pic\sources\c99\c
      +                          ommon\doprnt.c: 276:     int i, p, s, w;;C:\Program Files (x86)\Microchip\xc8\v2.05\pic\
      +                          sources\c99\common\doprnt.c: 277:     long long n;;C:\Program Files (x86)\Microchip\xc8\
      +                          v2.05\pic\sources\c99\common\doprnt.c: 280:     n = d;
 12067                           
 12068                           ;incstack = 0
 12069  0030F0  C01E  F036         	movff	dtoa@d,dtoa@n
 12070  0030F4  C01F  F037         	movff	dtoa@d+1,dtoa@n+1
 12071  0030F8  C020  F038         	movff	dtoa@d+2,dtoa@n+2
 12072  0030FC  C021  F039         	movff	dtoa@d+3,dtoa@n+3
 12073  003100  C022  F03A         	movff	dtoa@d+4,dtoa@n+4
 12074  003104  C023  F03B         	movff	dtoa@d+5,dtoa@n+5
 12075  003108  C024  F03C         	movff	dtoa@d+6,dtoa@n+6
 12076  00310C  C025  F03D         	movff	dtoa@d+7,dtoa@n+7
 12077                           
 12078                           ;C:\Program Files (x86)\Microchip\xc8\v2.05\pic\sources\c99\common\doprnt.c: 281:     s 
      +                          = n < 0 ? 1 : 0;
 12079  003110  AE3D               	btfss	dtoa@n+7,7,c
 12080  003112  D002               	goto	u5140
 12081  003114  0E01               	movlw	1
 12082  003116  D001               	goto	u5150
 12083  003118                     u5140:
 12084  003118  0E00               	movlw	0
 12085  00311A                     u5150:
 12086  00311A  6E34               	movwf	dtoa@s,c
 12087  00311C  6A35               	clrf	dtoa@s+1,c
 12088                           
 12089                           ;C:\Program Files (x86)\Microchip\xc8\v2.05\pic\sources\c99\common\doprnt.c: 282:     if
      +                           (s) {
 12090  00311E  5034               	movf	dtoa@s,w,c
 12091  003120  1035               	iorwf	dtoa@s+1,w,c
 12092  003122  B4D8               	btfsc	status,2,c
 12093  003124  D010               	goto	l5160
 12094                           
 12095                           ;C:\Program Files (x86)\Microchip\xc8\v2.05\pic\sources\c99\common\doprnt.c: 283:       
      +                            n = -n;
 12096  003126  1E3D               	comf	dtoa@n+7,f,c
 12097  003128  1E3C               	comf	dtoa@n+6,f,c
 12098  00312A  1E3B               	comf	dtoa@n+5,f,c
 12099  00312C  1E3A               	comf	dtoa@n+4,f,c
 12100  00312E  1E39               	comf	dtoa@n+3,f,c
 12101  003130  1E38               	comf	dtoa@n+2,f,c
 12102  003132  1E37               	comf	dtoa@n+1,f,c
 12103  003134  6C36               	negf	dtoa@n,c
 12104  003136  0E00               	movlw	0
 12105  003138  2237               	addwfc	dtoa@n+1,f,c
 12106  00313A  2238               	addwfc	dtoa@n+2,f,c
 12107  00313C  2239               	addwfc	dtoa@n+3,f,c
 12108  00313E  223A               	addwfc	dtoa@n+4,f,c
 12109  003140  223B               	addwfc	dtoa@n+5,f,c
 12110  003142  223C               	addwfc	dtoa@n+6,f,c
 12111  003144  223D               	addwfc	dtoa@n+7,f,c
 12112  003146                     l5160:
 12113                           
 12114                           ;C:\Program Files (x86)\Microchip\xc8\v2.05\pic\sources\c99\common\doprnt.c: 287:     if
      +                           (!(prec < 0)) {
 12115  003146  0100               	movlb	0	; () banked
 12116  003148  AFF1               	btfss	(_prec+1)& (0+255),7,b
 12117                           
 12118                           ; BSR set to: 0
 12119                           ;C:\Program Files (x86)\Microchip\xc8\v2.05\pic\sources\c99\common\doprnt.c: 288:       
      +                            flags &= ~(1 << 1);
 12120  00314A  93F2               	bcf	_flags& (0+255),1,b
 12121                           
 12122                           ; BSR set to: 0
 12123                           ;C:\Program Files (x86)\Microchip\xc8\v2.05\pic\sources\c99\common\doprnt.c: 290:     p 
      +                          = (0 < prec) ? prec : 1;
 12124  00314C  BFF1               	btfsc	(_prec+1)& (0+255),7,b
 12125  00314E  D005               	goto	u5180
 12126  003150  51F1               	movf	(_prec+1)& (0+255),w,b
 12127  003152  E108               	bnz	l360
 12128  003154  05F0               	decf	_prec& (0+255),w,b
 12129  003156  B0D8               	btfsc	status,0,c
 12130  003158  D005               	goto	l360
 12131  00315A                     u5180:
 12132                           
 12133                           ; BSR set to: 0
 12134  00315A  0E00               	movlw	0
 12135  00315C  6E31               	movwf	dtoa@p+1,c
 12136  00315E  0E01               	movlw	1
 12137  003160  6E30               	movwf	dtoa@p,c
 12138  003162  D004               	goto	l362
 12139  003164                     l360:
 12140                           
 12141                           ; BSR set to: 0
 12142  003164  C0F0  F030         	movff	_prec,dtoa@p
 12143  003168  C0F1  F031         	movff	_prec+1,dtoa@p+1
 12144  00316C                     l362:
 12145                           
 12146                           ; BSR set to: 0
 12147                           ;C:\Program Files (x86)\Microchip\xc8\v2.05\pic\sources\c99\common\doprnt.c: 291:     w 
      +                          = width;
 12148  00316C  C0EE  F032         	movff	_width,dtoa@w
 12149  003170  C0EF  F033         	movff	_width+1,dtoa@w+1
 12150                           
 12151                           ; BSR set to: 0
 12152                           ;C:\Program Files (x86)\Microchip\xc8\v2.05\pic\sources\c99\common\doprnt.c: 292:     if
      +                           (s || (flags & (1 << 2))) {
 12153  003174  5034               	movf	dtoa@s,w,c
 12154  003176  1035               	iorwf	dtoa@s+1,w,c
 12155  003178  A4D8               	btfss	status,2,c
 12156  00317A  D002               	goto	u5200
 12157                           
 12158                           ; BSR set to: 0
 12159  00317C  A5F2               	btfss	_flags& (0+255),2,b
 12160  00317E  D003               	goto	l5174
 12161  003180                     u5200:
 12162                           
 12163                           ; BSR set to: 0
 12164                           ;C:\Program Files (x86)\Microchip\xc8\v2.05\pic\sources\c99\common\doprnt.c: 293:       
      +                            --w;
 12165  003180  0632               	decf	dtoa@w,f,c
 12166  003182  A0D8               	btfss	status,0,c
 12167  003184  0633               	decf	dtoa@w+1,f,c
 12168  003186                     l5174:
 12169                           
 12170                           ; BSR set to: 0
 12171                           ;C:\Program Files (x86)\Microchip\xc8\v2.05\pic\sources\c99\common\doprnt.c: 297:     i 
      +                          = sizeof(dbuf) - 1;
 12172  003186  0E00               	movlw	0
 12173  003188  6E3F               	movwf	dtoa@i+1,c
 12174  00318A  0E4F               	movlw	79
 12175  00318C  6E3E               	movwf	dtoa@i,c
 12176                           
 12177                           ; BSR set to: 0
 12178                           ;C:\Program Files (x86)\Microchip\xc8\v2.05\pic\sources\c99\common\doprnt.c: 298:     db
      +                          uf[i] = '\0';
 12179  00318E  0E00               	movlw	0
 12180  003190  0101               	movlb	1	; () banked
 12181  003192  6F69               	movwf	(_dbuf+79)& (0+255),b
 12182                           
 12183                           ;C:\Program Files (x86)\Microchip\xc8\v2.05\pic\sources\c99\common\doprnt.c: 299:     wh
      +                          ile (!(i < 1) && (n || (0 < p) || ((0 < w) && (flags & (1 << 1))))) {
 12184  003194  D07C               	goto	l5188
 12185  003196                     l5178:
 12186                           
 12187                           ;C:\Program Files (x86)\Microchip\xc8\v2.05\pic\sources\c99\common\doprnt.c: 300:       
      +                            --i;
 12188  003196  063E               	decf	dtoa@i,f,c
 12189  003198  A0D8               	btfss	status,0,c
 12190  00319A  063F               	decf	dtoa@i+1,f,c
 12191                           
 12192                           ;C:\Program Files (x86)\Microchip\xc8\v2.05\pic\sources\c99\common\doprnt.c: 301:       
      +                            dbuf[i] = '0' + abs(n % 10);
 12193  00319C  0E1A               	movlw	low _dbuf
 12194  00319E  243E               	addwf	dtoa@i,w,c
 12195  0031A0  6ED9               	movwf	fsr2l,c
 12196  0031A2  0E01               	movlw	high _dbuf
 12197  0031A4  203F               	addwfc	dtoa@i+1,w,c
 12198  0031A6  6EDA               	movwf	fsr2h,c
 12199  0031A8  C036  F001         	movff	dtoa@n,___aomod@dividend
 12200  0031AC  C037  F002         	movff	dtoa@n+1,___aomod@dividend+1
 12201  0031B0  C038  F003         	movff	dtoa@n+2,___aomod@dividend+2
 12202  0031B4  C039  F004         	movff	dtoa@n+3,___aomod@dividend+3
 12203  0031B8  C03A  F005         	movff	dtoa@n+4,___aomod@dividend+4
 12204  0031BC  C03B  F006         	movff	dtoa@n+5,___aomod@dividend+5
 12205  0031C0  C03C  F007         	movff	dtoa@n+6,___aomod@dividend+6
 12206  0031C4  C03D  F008         	movff	dtoa@n+7,___aomod@dividend+7
 12207  0031C8  0E0A               	movlw	10
 12208  0031CA  6E09               	movwf	___aomod@divisor,c
 12209  0031CC  0E00               	movlw	0
 12210  0031CE  6E0A               	movwf	___aomod@divisor+1,c
 12211  0031D0  0E00               	movlw	0
 12212  0031D2  6E0B               	movwf	___aomod@divisor+2,c
 12213  0031D4  0E00               	movlw	0
 12214  0031D6  6E0C               	movwf	___aomod@divisor+3,c
 12215  0031D8  0E00               	movlw	0
 12216  0031DA  6E0D               	movwf	___aomod@divisor+4,c
 12217  0031DC  0E00               	movlw	0
 12218  0031DE  6E0E               	movwf	___aomod@divisor+5,c
 12219  0031E0  0E00               	movlw	0
 12220  0031E2  6E0F               	movwf	___aomod@divisor+6,c
 12221  0031E4  0E00               	movlw	0
 12222  0031E6  6E10               	movwf	___aomod@divisor+7,c
 12223  0031E8  EC04  F01D         	call	___aomod	;wreg free
 12224  0031EC  C001  F026         	movff	?___aomod,??_dtoa
 12225  0031F0  C002  F027         	movff	?___aomod+1,??_dtoa+1
 12226  0031F4  C003  F028         	movff	?___aomod+2,??_dtoa+2
 12227  0031F8  C004  F029         	movff	?___aomod+3,??_dtoa+3
 12228  0031FC  C005  F02A         	movff	?___aomod+4,??_dtoa+4
 12229  003200  C006  F02B         	movff	?___aomod+5,??_dtoa+5
 12230  003204  C007  F02C         	movff	?___aomod+6,??_dtoa+6
 12231  003208  C008  F02D         	movff	?___aomod+7,??_dtoa+7
 12232  00320C  C026  F013         	movff	??_dtoa,abs@a
 12233  003210  C028  F014         	movff	??_dtoa+2,abs@a+1
 12234  003214  EC0F  F025         	call	_abs	;wreg free
 12235  003218  5013               	movf	?_abs,w,c
 12236  00321A  0F30               	addlw	48
 12237  00321C  6EDF               	movwf	indf2,c
 12238                           
 12239                           ;C:\Program Files (x86)\Microchip\xc8\v2.05\pic\sources\c99\common\doprnt.c: 302:       
      +                            --p;
 12240  00321E  0630               	decf	dtoa@p,f,c
 12241  003220  A0D8               	btfss	status,0,c
 12242  003222  0631               	decf	dtoa@p+1,f,c
 12243                           
 12244                           ;C:\Program Files (x86)\Microchip\xc8\v2.05\pic\sources\c99\common\doprnt.c: 303:       
      +                            --w;
 12245  003224  0632               	decf	dtoa@w,f,c
 12246  003226  A0D8               	btfss	status,0,c
 12247  003228  0633               	decf	dtoa@w+1,f,c
 12248                           
 12249                           ;C:\Program Files (x86)\Microchip\xc8\v2.05\pic\sources\c99\common\doprnt.c: 304:       
      +                            n = n / 10;
 12250  00322A  C036  F001         	movff	dtoa@n,___aodiv@dividend
 12251  00322E  C037  F002         	movff	dtoa@n+1,___aodiv@dividend+1
 12252  003232  C038  F003         	movff	dtoa@n+2,___aodiv@dividend+2
 12253  003236  C039  F004         	movff	dtoa@n+3,___aodiv@dividend+3
 12254  00323A  C03A  F005         	movff	dtoa@n+4,___aodiv@dividend+4
 12255  00323E  C03B  F006         	movff	dtoa@n+5,___aodiv@dividend+5
 12256  003242  C03C  F007         	movff	dtoa@n+6,___aodiv@dividend+6
 12257  003246  C03D  F008         	movff	dtoa@n+7,___aodiv@dividend+7
 12258  00324A  0E0A               	movlw	10
 12259  00324C  6E09               	movwf	___aodiv@divisor,c
 12260  00324E  0E00               	movlw	0
 12261  003250  6E0A               	movwf	___aodiv@divisor+1,c
 12262  003252  0E00               	movlw	0
 12263  003254  6E0B               	movwf	___aodiv@divisor+2,c
 12264  003256  0E00               	movlw	0
 12265  003258  6E0C               	movwf	___aodiv@divisor+3,c
 12266  00325A  0E00               	movlw	0
 12267  00325C  6E0D               	movwf	___aodiv@divisor+4,c
 12268  00325E  0E00               	movlw	0
 12269  003260  6E0E               	movwf	___aodiv@divisor+5,c
 12270  003262  0E00               	movlw	0
 12271  003264  6E0F               	movwf	___aodiv@divisor+6,c
 12272  003266  0E00               	movlw	0
 12273  003268  6E10               	movwf	___aodiv@divisor+7,c
 12274  00326A  EC20  F01B         	call	___aodiv	;wreg free
 12275  00326E  C001  F036         	movff	?___aodiv,dtoa@n
 12276  003272  C002  F037         	movff	?___aodiv+1,dtoa@n+1
 12277  003276  C003  F038         	movff	?___aodiv+2,dtoa@n+2
 12278  00327A  C004  F039         	movff	?___aodiv+3,dtoa@n+3
 12279  00327E  C005  F03A         	movff	?___aodiv+4,dtoa@n+4
 12280  003282  C006  F03B         	movff	?___aodiv+5,dtoa@n+5
 12281  003286  C007  F03C         	movff	?___aodiv+6,dtoa@n+6
 12282  00328A  C008  F03D         	movff	?___aodiv+7,dtoa@n+7
 12283  00328E                     l5188:
 12284                           
 12285                           ;C:\Program Files (x86)\Microchip\xc8\v2.05\pic\sources\c99\common\doprnt.c: 299:     wh
      +                          ile (!(i < 1) && (n || (0 < p) || ((0 < w) && (flags & (1 << 1))))) {
 12286  00328E  BE3F               	btfsc	dtoa@i+1,7,c
 12287  003290  D020               	goto	u5250
 12288  003292  503F               	movf	dtoa@i+1,w,c
 12289  003294  E103               	bnz	u5210
 12290  003296  043E               	decf	dtoa@i,w,c
 12291  003298  A0D8               	btfss	status,0,c
 12292  00329A  D01B               	goto	u5250
 12293  00329C                     u5210:
 12294  00329C  5036               	movf	dtoa@n,w,c
 12295  00329E  1037               	iorwf	dtoa@n+1,w,c
 12296  0032A0  1038               	iorwf	dtoa@n+2,w,c
 12297  0032A2  1039               	iorwf	dtoa@n+3,w,c
 12298  0032A4  103A               	iorwf	dtoa@n+4,w,c
 12299  0032A6  103B               	iorwf	dtoa@n+5,w,c
 12300  0032A8  103C               	iorwf	dtoa@n+6,w,c
 12301  0032AA  103D               	iorwf	dtoa@n+7,w,c
 12302  0032AC  A4D8               	btfss	status,2,c
 12303  0032AE  D773               	goto	l5178
 12304  0032B0  BE31               	btfsc	dtoa@p+1,7,c
 12305  0032B2  D005               	goto	u5230
 12306  0032B4  5031               	movf	dtoa@p+1,w,c
 12307  0032B6  E102               	bnz	u5231
 12308  0032B8  0430               	decf	dtoa@p,w,c
 12309  0032BA  B0D8               	btfsc	status,0,c
 12310  0032BC                     u5231:
 12311  0032BC  D76C               	goto	l5178
 12312  0032BE                     u5230:
 12313  0032BE  BE33               	btfsc	dtoa@w+1,7,c
 12314  0032C0  D008               	goto	u5250
 12315  0032C2  5033               	movf	dtoa@w+1,w,c
 12316  0032C4  E103               	bnz	u5240
 12317  0032C6  0432               	decf	dtoa@w,w,c
 12318  0032C8  A0D8               	btfss	status,0,c
 12319  0032CA  D003               	goto	u5250
 12320  0032CC                     u5240:
 12321  0032CC  0100               	movlb	0	; () banked
 12322  0032CE  B3F2               	btfsc	_flags& (0+255),1,b
 12323  0032D0  D762               	goto	l5178
 12324  0032D2                     u5250:
 12325                           
 12326                           ;C:\Program Files (x86)\Microchip\xc8\v2.05\pic\sources\c99\common\doprnt.c: 308:     if
      +                           (s || (flags & (1 << 2))) {
 12327  0032D2  5034               	movf	dtoa@s,w,c
 12328  0032D4  1035               	iorwf	dtoa@s+1,w,c
 12329  0032D6  A4D8               	btfss	status,2,c
 12330  0032D8  D003               	goto	u5270
 12331  0032DA  0100               	movlb	0	; () banked
 12332  0032DC  A5F2               	btfss	_flags& (0+255),2,b
 12333  0032DE  D017               	goto	l5212
 12334  0032E0                     u5270:
 12335                           
 12336                           ;C:\Program Files (x86)\Microchip\xc8\v2.05\pic\sources\c99\common\doprnt.c: 309:       
      +                            --i;
 12337  0032E0  063E               	decf	dtoa@i,f,c
 12338  0032E2  A0D8               	btfss	status,0,c
 12339  0032E4  063F               	decf	dtoa@i+1,f,c
 12340                           
 12341                           ;C:\Program Files (x86)\Microchip\xc8\v2.05\pic\sources\c99\common\doprnt.c: 310:       
      +                            dbuf[i] = s ? '-' : '+';
 12342  0032E6  5034               	movf	dtoa@s,w,c
 12343  0032E8  1035               	iorwf	dtoa@s+1,w,c
 12344  0032EA  A4D8               	btfss	status,2,c
 12345  0032EC  D004               	goto	l5208
 12346  0032EE  0E00               	movlw	0
 12347  0032F0  6E2F               	movwf	_dtoa$1070+1,c
 12348  0032F2  0E2B               	movlw	43
 12349  0032F4  D003               	goto	L17
 12350  0032F6                     l5208:
 12351  0032F6  0E00               	movlw	0
 12352  0032F8  6E2F               	movwf	_dtoa$1070+1,c
 12353  0032FA  0E2D               	movlw	45
 12354  0032FC                     L17:
 12355  0032FC  6E2E               	movwf	_dtoa$1070,c
 12356  0032FE  0E1A               	movlw	low _dbuf
 12357  003300  243E               	addwf	dtoa@i,w,c
 12358  003302  6ED9               	movwf	fsr2l,c
 12359  003304  0E01               	movlw	high _dbuf
 12360  003306  203F               	addwfc	dtoa@i+1,w,c
 12361  003308  6EDA               	movwf	fsr2h,c
 12362  00330A  C02E  FFDF         	movff	_dtoa$1070,indf2
 12363  00330E                     l5212:
 12364                           
 12365                           ;C:\Program Files (x86)\Microchip\xc8\v2.05\pic\sources\c99\common\doprnt.c: 314:     re
      +                          turn pad(fp, &dbuf[i], w);
 12366  00330E  C01C  F011         	movff	dtoa@fp,pad@fp
 12367  003312  C01D  F012         	movff	dtoa@fp+1,pad@fp+1
 12368  003316  0E1A               	movlw	low _dbuf
 12369  003318  243E               	addwf	dtoa@i,w,c
 12370  00331A  6E13               	movwf	pad@buf,c
 12371  00331C  0E01               	movlw	high _dbuf
 12372  00331E  203F               	addwfc	dtoa@i+1,w,c
 12373  003320  6E14               	movwf	pad@buf+1,c
 12374  003322  C032  F015         	movff	dtoa@w,pad@p
 12375  003326  C033  F016         	movff	dtoa@w+1,pad@p+1
 12376  00332A  ECCA  F021         	call	_pad	;wreg free
 12377  00332E  C011  F01C         	movff	?_pad,?_dtoa
 12378  003332  C012  F01D         	movff	?_pad+1,?_dtoa+1
 12379  003336  0012               	return		;funcret
 12380  003338                     __end_of_dtoa:
 12381                           	opt callstack 0
 12382                           
 12383 ;; *************** function _abs *****************
 12384 ;; Defined at:
 12385 ;;		line 1 in file "C:\Program Files (x86)\Microchip\xc8\v2.05\pic\sources\c99\common\abs.c"
 12386 ;; Parameters:    Size  Location     Type
 12387 ;;  a               2   18[COMRAM] int 
 12388 ;; Auto vars:     Size  Location     Type
 12389 ;;		None
 12390 ;; Return value:  Size  Location     Type
 12391 ;;                  2   18[COMRAM] int 
 12392 ;; Registers used:
 12393 ;;		wreg, status,2, status,0
 12394 ;; Tracked objects:
 12395 ;;		On entry : 0/0
 12396 ;;		On exit  : 0/0
 12397 ;;		Unchanged: 0/0
 12398 ;; Data sizes:     COMRAM   BANK0   BANK1   BANK2   BANK3   BANK4   BANK5   BANK6   BANK7
 12399 ;;      Params:         2       0       0       0       0       0       0       0       0
 12400 ;;      Locals:         0       0       0       0       0       0       0       0       0
 12401 ;;      Temps:          2       0       0       0       0       0       0       0       0
 12402 ;;      Totals:         4       0       0       0       0       0       0       0       0
 12403 ;;Total ram usage:        4 bytes
 12404 ;; Hardware stack levels used:    1
 12405 ;; Hardware stack levels required when called:    2
 12406 ;; This function calls:
 12407 ;;		Nothing
 12408 ;; This function is called by:
 12409 ;;		_dtoa
 12410 ;; This function uses a non-reentrant model
 12411 ;;
 12412                           
 12413                           	psect	text27
 12414  004A1E                     __ptext27:
 12415                           	opt callstack 0
 12416  004A1E                     _abs:
 12417                           	opt callstack 24
 12418                           
 12419                           ;incstack = 0
 12420  004A1E  BE14               	btfsc	abs@a+1,7,c
 12421  004A20  D005               	goto	u4030
 12422  004A22  5014               	movf	abs@a+1,w,c
 12423  004A24  E110               	bnz	l1195
 12424  004A26  0413               	decf	abs@a,w,c
 12425  004A28  B0D8               	btfsc	status,0,c
 12426  004A2A  D00D               	goto	l1195
 12427  004A2C                     u4030:
 12428  004A2C  C013  F015         	movff	abs@a,??_abs
 12429  004A30  C014  F016         	movff	abs@a+1,??_abs+1
 12430  004A34  1E15               	comf	??_abs,f,c
 12431  004A36  1E16               	comf	??_abs+1,f,c
 12432  004A38  4A15               	infsnz	??_abs,f,c
 12433  004A3A  2A16               	incf	??_abs+1,f,c
 12434  004A3C  C015  F013         	movff	??_abs,?_abs
 12435  004A40  C016  F014         	movff	??_abs+1,?_abs+1
 12436  004A44  0012               	return	
 12437  004A46                     l1195:
 12438  004A46  C013  F013         	movff	abs@a,?_abs
 12439  004A4A  C014  F014         	movff	abs@a+1,?_abs+1
 12440  004A4E  0012               	return		;funcret
 12441  004A50                     __end_of_abs:
 12442                           	opt callstack 0
 12443                           
 12444 ;; *************** function ___aomod *****************
 12445 ;; Defined at:
 12446 ;;		line 9 in file "C:\Program Files (x86)\Microchip\xc8\v2.05\pic\sources\c99\common\aomod.c"
 12447 ;; Parameters:    Size  Location     Type
 12448 ;;  dividend        8    0[COMRAM] long long 
 12449 ;;  divisor         8    8[COMRAM] long long 
 12450 ;; Auto vars:     Size  Location     Type
 12451 ;;  sign            1   17[COMRAM] unsigned char 
 12452 ;;  counter         1   16[COMRAM] unsigned char 
 12453 ;; Return value:  Size  Location     Type
 12454 ;;                  8    0[COMRAM] long long 
 12455 ;; Registers used:
 12456 ;;		wreg, status,2, status,0
 12457 ;; Tracked objects:
 12458 ;;		On entry : 0/0
 12459 ;;		On exit  : 0/0
 12460 ;;		Unchanged: 0/0
 12461 ;; Data sizes:     COMRAM   BANK0   BANK1   BANK2   BANK3   BANK4   BANK5   BANK6   BANK7
 12462 ;;      Params:        16       0       0       0       0       0       0       0       0
 12463 ;;      Locals:         2       0       0       0       0       0       0       0       0
 12464 ;;      Temps:          0       0       0       0       0       0       0       0       0
 12465 ;;      Totals:        18       0       0       0       0       0       0       0       0
 12466 ;;Total ram usage:       18 bytes
 12467 ;; Hardware stack levels used:    1
 12468 ;; Hardware stack levels required when called:    2
 12469 ;; This function calls:
 12470 ;;		Nothing
 12471 ;; This function is called by:
 12472 ;;		_dtoa
 12473 ;; This function uses a non-reentrant model
 12474 ;;
 12475                           
 12476                           	psect	text28
 12477  003A08                     __ptext28:
 12478                           	opt callstack 0
 12479  003A08                     ___aomod:
 12480                           	opt callstack 24
 12481                           
 12482                           ;incstack = 0
 12483  003A08  0E00               	movlw	0
 12484  003A0A  6E12               	movwf	___aomod@sign,c
 12485  003A0C  AE08               	btfss	___aomod@dividend+7,7,c
 12486  003A0E  D012               	goto	l4656
 12487  003A10  1E08               	comf	___aomod@dividend+7,f,c
 12488  003A12  1E07               	comf	___aomod@dividend+6,f,c
 12489  003A14  1E06               	comf	___aomod@dividend+5,f,c
 12490  003A16  1E05               	comf	___aomod@dividend+4,f,c
 12491  003A18  1E04               	comf	___aomod@dividend+3,f,c
 12492  003A1A  1E03               	comf	___aomod@dividend+2,f,c
 12493  003A1C  1E02               	comf	___aomod@dividend+1,f,c
 12494  003A1E  6C01               	negf	___aomod@dividend,c
 12495  003A20  0E00               	movlw	0
 12496  003A22  2202               	addwfc	___aomod@dividend+1,f,c
 12497  003A24  2203               	addwfc	___aomod@dividend+2,f,c
 12498  003A26  2204               	addwfc	___aomod@dividend+3,f,c
 12499  003A28  2205               	addwfc	___aomod@dividend+4,f,c
 12500  003A2A  2206               	addwfc	___aomod@dividend+5,f,c
 12501  003A2C  2207               	addwfc	___aomod@dividend+6,f,c
 12502  003A2E  2208               	addwfc	___aomod@dividend+7,f,c
 12503  003A30  0E01               	movlw	1
 12504  003A32  6E12               	movwf	___aomod@sign,c
 12505  003A34                     l4656:
 12506  003A34  AE10               	btfss	___aomod@divisor+7,7,c
 12507  003A36  D010               	goto	l4660
 12508  003A38  1E10               	comf	___aomod@divisor+7,f,c
 12509  003A3A  1E0F               	comf	___aomod@divisor+6,f,c
 12510  003A3C  1E0E               	comf	___aomod@divisor+5,f,c
 12511  003A3E  1E0D               	comf	___aomod@divisor+4,f,c
 12512  003A40  1E0C               	comf	___aomod@divisor+3,f,c
 12513  003A42  1E0B               	comf	___aomod@divisor+2,f,c
 12514  003A44  1E0A               	comf	___aomod@divisor+1,f,c
 12515  003A46  6C09               	negf	___aomod@divisor,c
 12516  003A48  0E00               	movlw	0
 12517  003A4A  220A               	addwfc	___aomod@divisor+1,f,c
 12518  003A4C  220B               	addwfc	___aomod@divisor+2,f,c
 12519  003A4E  220C               	addwfc	___aomod@divisor+3,f,c
 12520  003A50  220D               	addwfc	___aomod@divisor+4,f,c
 12521  003A52  220E               	addwfc	___aomod@divisor+5,f,c
 12522  003A54  220F               	addwfc	___aomod@divisor+6,f,c
 12523  003A56  2210               	addwfc	___aomod@divisor+7,f,c
 12524  003A58                     l4660:
 12525  003A58  5009               	movf	___aomod@divisor,w,c
 12526  003A5A  100A               	iorwf	___aomod@divisor+1,w,c
 12527  003A5C  100B               	iorwf	___aomod@divisor+2,w,c
 12528  003A5E  100C               	iorwf	___aomod@divisor+3,w,c
 12529  003A60  100D               	iorwf	___aomod@divisor+4,w,c
 12530  003A62  100E               	iorwf	___aomod@divisor+5,w,c
 12531  003A64  100F               	iorwf	___aomod@divisor+6,w,c
 12532  003A66  1010               	iorwf	___aomod@divisor+7,w,c
 12533  003A68  B4D8               	btfsc	status,2,c
 12534  003A6A  D03C               	goto	l4676
 12535  003A6C  0E01               	movlw	1
 12536  003A6E  6E11               	movwf	___aomod@counter,c
 12537  003A70  D00A               	goto	l4666
 12538  003A72                     l4664:
 12539  003A72  90D8               	bcf	status,0,c
 12540  003A74  3609               	rlcf	___aomod@divisor,f,c
 12541  003A76  360A               	rlcf	___aomod@divisor+1,f,c
 12542  003A78  360B               	rlcf	___aomod@divisor+2,f,c
 12543  003A7A  360C               	rlcf	___aomod@divisor+3,f,c
 12544  003A7C  360D               	rlcf	___aomod@divisor+4,f,c
 12545  003A7E  360E               	rlcf	___aomod@divisor+5,f,c
 12546  003A80  360F               	rlcf	___aomod@divisor+6,f,c
 12547  003A82  3610               	rlcf	___aomod@divisor+7,f,c
 12548  003A84  2A11               	incf	___aomod@counter,f,c
 12549  003A86                     l4666:
 12550  003A86  AE10               	btfss	___aomod@divisor+7,7,c
 12551  003A88  D7F4               	goto	l4664
 12552  003A8A                     u4380:
 12553  003A8A  5009               	movf	___aomod@divisor,w,c
 12554  003A8C  5C01               	subwf	___aomod@dividend,w,c
 12555  003A8E  500A               	movf	___aomod@divisor+1,w,c
 12556  003A90  5802               	subwfb	___aomod@dividend+1,w,c
 12557  003A92  500B               	movf	___aomod@divisor+2,w,c
 12558  003A94  5803               	subwfb	___aomod@dividend+2,w,c
 12559  003A96  500C               	movf	___aomod@divisor+3,w,c
 12560  003A98  5804               	subwfb	___aomod@dividend+3,w,c
 12561  003A9A  500D               	movf	___aomod@divisor+4,w,c
 12562  003A9C  5805               	subwfb	___aomod@dividend+4,w,c
 12563  003A9E  500E               	movf	___aomod@divisor+5,w,c
 12564  003AA0  5806               	subwfb	___aomod@dividend+5,w,c
 12565  003AA2  500F               	movf	___aomod@divisor+6,w,c
 12566  003AA4  5807               	subwfb	___aomod@dividend+6,w,c
 12567  003AA6  5010               	movf	___aomod@divisor+7,w,c
 12568  003AA8  5808               	subwfb	___aomod@dividend+7,w,c
 12569  003AAA  A0D8               	btfss	status,0,c
 12570  003AAC  D010               	goto	l4672
 12571  003AAE  5009               	movf	___aomod@divisor,w,c
 12572  003AB0  5E01               	subwf	___aomod@dividend,f,c
 12573  003AB2  500A               	movf	___aomod@divisor+1,w,c
 12574  003AB4  5A02               	subwfb	___aomod@dividend+1,f,c
 12575  003AB6  500B               	movf	___aomod@divisor+2,w,c
 12576  003AB8  5A03               	subwfb	___aomod@dividend+2,f,c
 12577  003ABA  500C               	movf	___aomod@divisor+3,w,c
 12578  003ABC  5A04               	subwfb	___aomod@dividend+3,f,c
 12579  003ABE  500D               	movf	___aomod@divisor+4,w,c
 12580  003AC0  5A05               	subwfb	___aomod@dividend+4,f,c
 12581  003AC2  500E               	movf	___aomod@divisor+5,w,c
 12582  003AC4  5A06               	subwfb	___aomod@dividend+5,f,c
 12583  003AC6  500F               	movf	___aomod@divisor+6,w,c
 12584  003AC8  5A07               	subwfb	___aomod@dividend+6,f,c
 12585  003ACA  5010               	movf	___aomod@divisor+7,w,c
 12586  003ACC  5A08               	subwfb	___aomod@dividend+7,f,c
 12587  003ACE                     l4672:
 12588  003ACE  90D8               	bcf	status,0,c
 12589  003AD0  3210               	rrcf	___aomod@divisor+7,f,c
 12590  003AD2  320F               	rrcf	___aomod@divisor+6,f,c
 12591  003AD4  320E               	rrcf	___aomod@divisor+5,f,c
 12592  003AD6  320D               	rrcf	___aomod@divisor+4,f,c
 12593  003AD8  320C               	rrcf	___aomod@divisor+3,f,c
 12594  003ADA  320B               	rrcf	___aomod@divisor+2,f,c
 12595  003ADC  320A               	rrcf	___aomod@divisor+1,f,c
 12596  003ADE  3209               	rrcf	___aomod@divisor,f,c
 12597  003AE0  2E11               	decfsz	___aomod@counter,f,c
 12598  003AE2  D7D3               	goto	u4380
 12599  003AE4                     l4676:
 12600  003AE4  5012               	movf	___aomod@sign,w,c
 12601  003AE6  B4D8               	btfsc	status,2,c
 12602  003AE8  D010               	goto	l4680
 12603  003AEA  1E08               	comf	___aomod@dividend+7,f,c
 12604  003AEC  1E07               	comf	___aomod@dividend+6,f,c
 12605  003AEE  1E06               	comf	___aomod@dividend+5,f,c
 12606  003AF0  1E05               	comf	___aomod@dividend+4,f,c
 12607  003AF2  1E04               	comf	___aomod@dividend+3,f,c
 12608  003AF4  1E03               	comf	___aomod@dividend+2,f,c
 12609  003AF6  1E02               	comf	___aomod@dividend+1,f,c
 12610  003AF8  6C01               	negf	___aomod@dividend,c
 12611  003AFA  0E00               	movlw	0
 12612  003AFC  2202               	addwfc	___aomod@dividend+1,f,c
 12613  003AFE  2203               	addwfc	___aomod@dividend+2,f,c
 12614  003B00  2204               	addwfc	___aomod@dividend+3,f,c
 12615  003B02  2205               	addwfc	___aomod@dividend+4,f,c
 12616  003B04  2206               	addwfc	___aomod@dividend+5,f,c
 12617  003B06  2207               	addwfc	___aomod@dividend+6,f,c
 12618  003B08  2208               	addwfc	___aomod@dividend+7,f,c
 12619  003B0A                     l4680:
 12620  003B0A  C001  F001         	movff	___aomod@dividend,?___aomod
 12621  003B0E  C002  F002         	movff	___aomod@dividend+1,?___aomod+1
 12622  003B12  C003  F003         	movff	___aomod@dividend+2,?___aomod+2
 12623  003B16  C004  F004         	movff	___aomod@dividend+3,?___aomod+3
 12624  003B1A  C005  F005         	movff	___aomod@dividend+4,?___aomod+4
 12625  003B1E  C006  F006         	movff	___aomod@dividend+5,?___aomod+5
 12626  003B22  C007  F007         	movff	___aomod@dividend+6,?___aomod+6
 12627  003B26  C008  F008         	movff	___aomod@dividend+7,?___aomod+7
 12628  003B2A  0012               	return		;funcret
 12629  003B2C                     __end_of___aomod:
 12630                           	opt callstack 0
 12631                           
 12632 ;; *************** function ___aodiv *****************
 12633 ;; Defined at:
 12634 ;;		line 9 in file "C:\Program Files (x86)\Microchip\xc8\v2.05\pic\sources\c99\common\aodiv.c"
 12635 ;; Parameters:    Size  Location     Type
 12636 ;;  dividend        8    0[COMRAM] long long 
 12637 ;;  divisor         8    8[COMRAM] long long 
 12638 ;; Auto vars:     Size  Location     Type
 12639 ;;  quotient        8   18[COMRAM] long long 
 12640 ;;  sign            1   17[COMRAM] unsigned char 
 12641 ;;  counter         1   16[COMRAM] unsigned char 
 12642 ;; Return value:  Size  Location     Type
 12643 ;;                  8    0[COMRAM] long long 
 12644 ;; Registers used:
 12645 ;;		wreg, fsr2l, fsr2h, status,2, status,0
 12646 ;; Tracked objects:
 12647 ;;		On entry : 0/0
 12648 ;;		On exit  : 0/0
 12649 ;;		Unchanged: 0/0
 12650 ;; Data sizes:     COMRAM   BANK0   BANK1   BANK2   BANK3   BANK4   BANK5   BANK6   BANK7
 12651 ;;      Params:        16       0       0       0       0       0       0       0       0
 12652 ;;      Locals:        10       0       0       0       0       0       0       0       0
 12653 ;;      Temps:          0       0       0       0       0       0       0       0       0
 12654 ;;      Totals:        26       0       0       0       0       0       0       0       0
 12655 ;;Total ram usage:       26 bytes
 12656 ;; Hardware stack levels used:    1
 12657 ;; Hardware stack levels required when called:    2
 12658 ;; This function calls:
 12659 ;;		Nothing
 12660 ;; This function is called by:
 12661 ;;		_dtoa
 12662 ;; This function uses a non-reentrant model
 12663 ;;
 12664                           
 12665                           	psect	text29
 12666  003640                     __ptext29:
 12667                           	opt callstack 0
 12668  003640                     ___aodiv:
 12669                           	opt callstack 24
 12670                           
 12671                           ;incstack = 0
 12672  003640  0E00               	movlw	0
 12673  003642  6E12               	movwf	___aodiv@sign,c
 12674  003644  AE10               	btfss	___aodiv@divisor+7,7,c
 12675  003646  D012               	goto	l4612
 12676  003648  1E10               	comf	___aodiv@divisor+7,f,c
 12677  00364A  1E0F               	comf	___aodiv@divisor+6,f,c
 12678  00364C  1E0E               	comf	___aodiv@divisor+5,f,c
 12679  00364E  1E0D               	comf	___aodiv@divisor+4,f,c
 12680  003650  1E0C               	comf	___aodiv@divisor+3,f,c
 12681  003652  1E0B               	comf	___aodiv@divisor+2,f,c
 12682  003654  1E0A               	comf	___aodiv@divisor+1,f,c
 12683  003656  6C09               	negf	___aodiv@divisor,c
 12684  003658  0E00               	movlw	0
 12685  00365A  220A               	addwfc	___aodiv@divisor+1,f,c
 12686  00365C  220B               	addwfc	___aodiv@divisor+2,f,c
 12687  00365E  220C               	addwfc	___aodiv@divisor+3,f,c
 12688  003660  220D               	addwfc	___aodiv@divisor+4,f,c
 12689  003662  220E               	addwfc	___aodiv@divisor+5,f,c
 12690  003664  220F               	addwfc	___aodiv@divisor+6,f,c
 12691  003666  2210               	addwfc	___aodiv@divisor+7,f,c
 12692  003668  0E01               	movlw	1
 12693  00366A  6E12               	movwf	___aodiv@sign,c
 12694  00366C                     l4612:
 12695  00366C  AE08               	btfss	___aodiv@dividend+7,7,c
 12696  00366E  D012               	goto	l4618
 12697  003670  1E08               	comf	___aodiv@dividend+7,f,c
 12698  003672  1E07               	comf	___aodiv@dividend+6,f,c
 12699  003674  1E06               	comf	___aodiv@dividend+5,f,c
 12700  003676  1E05               	comf	___aodiv@dividend+4,f,c
 12701  003678  1E04               	comf	___aodiv@dividend+3,f,c
 12702  00367A  1E03               	comf	___aodiv@dividend+2,f,c
 12703  00367C  1E02               	comf	___aodiv@dividend+1,f,c
 12704  00367E  6C01               	negf	___aodiv@dividend,c
 12705  003680  0E00               	movlw	0
 12706  003682  2202               	addwfc	___aodiv@dividend+1,f,c
 12707  003684  2203               	addwfc	___aodiv@dividend+2,f,c
 12708  003686  2204               	addwfc	___aodiv@dividend+3,f,c
 12709  003688  2205               	addwfc	___aodiv@dividend+4,f,c
 12710  00368A  2206               	addwfc	___aodiv@dividend+5,f,c
 12711  00368C  2207               	addwfc	___aodiv@dividend+6,f,c
 12712  00368E  2208               	addwfc	___aodiv@dividend+7,f,c
 12713  003690  0E01               	movlw	1
 12714  003692  1A12               	xorwf	___aodiv@sign,f,c
 12715  003694                     l4618:
 12716  003694  EE20  F013         	lfsr	2,___aodiv@quotient
 12717  003698  0E07               	movlw	7
 12718  00369A                     u4301:
 12719  00369A  6ADE               	clrf	postinc2,c
 12720  00369C  06E8               	decf	wreg,f,c
 12721  00369E  E2FD               	bc	u4301
 12722  0036A0  5009               	movf	___aodiv@divisor,w,c
 12723  0036A2  100A               	iorwf	___aodiv@divisor+1,w,c
 12724  0036A4  100B               	iorwf	___aodiv@divisor+2,w,c
 12725  0036A6  100C               	iorwf	___aodiv@divisor+3,w,c
 12726  0036A8  100D               	iorwf	___aodiv@divisor+4,w,c
 12727  0036AA  100E               	iorwf	___aodiv@divisor+5,w,c
 12728  0036AC  100F               	iorwf	___aodiv@divisor+6,w,c
 12729  0036AE  1010               	iorwf	___aodiv@divisor+7,w,c
 12730  0036B0  B4D8               	btfsc	status,2,c
 12731  0036B2  D046               	goto	l4640
 12732  0036B4  0E01               	movlw	1
 12733  0036B6  6E11               	movwf	___aodiv@counter,c
 12734  0036B8  D00A               	goto	l4626
 12735  0036BA                     l4624:
 12736  0036BA  90D8               	bcf	status,0,c
 12737  0036BC  3609               	rlcf	___aodiv@divisor,f,c
 12738  0036BE  360A               	rlcf	___aodiv@divisor+1,f,c
 12739  0036C0  360B               	rlcf	___aodiv@divisor+2,f,c
 12740  0036C2  360C               	rlcf	___aodiv@divisor+3,f,c
 12741  0036C4  360D               	rlcf	___aodiv@divisor+4,f,c
 12742  0036C6  360E               	rlcf	___aodiv@divisor+5,f,c
 12743  0036C8  360F               	rlcf	___aodiv@divisor+6,f,c
 12744  0036CA  3610               	rlcf	___aodiv@divisor+7,f,c
 12745  0036CC  2A11               	incf	___aodiv@counter,f,c
 12746  0036CE                     l4626:
 12747  0036CE  AE10               	btfss	___aodiv@divisor+7,7,c
 12748  0036D0  D7F4               	goto	l4624
 12749  0036D2                     u4320:
 12750  0036D2  90D8               	bcf	status,0,c
 12751  0036D4  3613               	rlcf	___aodiv@quotient,f,c
 12752  0036D6  3614               	rlcf	___aodiv@quotient+1,f,c
 12753  0036D8  3615               	rlcf	___aodiv@quotient+2,f,c
 12754  0036DA  3616               	rlcf	___aodiv@quotient+3,f,c
 12755  0036DC  3617               	rlcf	___aodiv@quotient+4,f,c
 12756  0036DE  3618               	rlcf	___aodiv@quotient+5,f,c
 12757  0036E0  3619               	rlcf	___aodiv@quotient+6,f,c
 12758  0036E2  361A               	rlcf	___aodiv@quotient+7,f,c
 12759  0036E4  5009               	movf	___aodiv@divisor,w,c
 12760  0036E6  5C01               	subwf	___aodiv@dividend,w,c
 12761  0036E8  500A               	movf	___aodiv@divisor+1,w,c
 12762  0036EA  5802               	subwfb	___aodiv@dividend+1,w,c
 12763  0036EC  500B               	movf	___aodiv@divisor+2,w,c
 12764  0036EE  5803               	subwfb	___aodiv@dividend+2,w,c
 12765  0036F0  500C               	movf	___aodiv@divisor+3,w,c
 12766  0036F2  5804               	subwfb	___aodiv@dividend+3,w,c
 12767  0036F4  500D               	movf	___aodiv@divisor+4,w,c
 12768  0036F6  5805               	subwfb	___aodiv@dividend+4,w,c
 12769  0036F8  500E               	movf	___aodiv@divisor+5,w,c
 12770  0036FA  5806               	subwfb	___aodiv@dividend+5,w,c
 12771  0036FC  500F               	movf	___aodiv@divisor+6,w,c
 12772  0036FE  5807               	subwfb	___aodiv@dividend+6,w,c
 12773  003700  5010               	movf	___aodiv@divisor+7,w,c
 12774  003702  5808               	subwfb	___aodiv@dividend+7,w,c
 12775  003704  A0D8               	btfss	status,0,c
 12776  003706  D011               	goto	l4636
 12777  003708  5009               	movf	___aodiv@divisor,w,c
 12778  00370A  5E01               	subwf	___aodiv@dividend,f,c
 12779  00370C  500A               	movf	___aodiv@divisor+1,w,c
 12780  00370E  5A02               	subwfb	___aodiv@dividend+1,f,c
 12781  003710  500B               	movf	___aodiv@divisor+2,w,c
 12782  003712  5A03               	subwfb	___aodiv@dividend+2,f,c
 12783  003714  500C               	movf	___aodiv@divisor+3,w,c
 12784  003716  5A04               	subwfb	___aodiv@dividend+3,f,c
 12785  003718  500D               	movf	___aodiv@divisor+4,w,c
 12786  00371A  5A05               	subwfb	___aodiv@dividend+4,f,c
 12787  00371C  500E               	movf	___aodiv@divisor+5,w,c
 12788  00371E  5A06               	subwfb	___aodiv@dividend+5,f,c
 12789  003720  500F               	movf	___aodiv@divisor+6,w,c
 12790  003722  5A07               	subwfb	___aodiv@dividend+6,f,c
 12791  003724  5010               	movf	___aodiv@divisor+7,w,c
 12792  003726  5A08               	subwfb	___aodiv@dividend+7,f,c
 12793  003728  8013               	bsf	___aodiv@quotient,0,c
 12794  00372A                     l4636:
 12795  00372A  90D8               	bcf	status,0,c
 12796  00372C  3210               	rrcf	___aodiv@divisor+7,f,c
 12797  00372E  320F               	rrcf	___aodiv@divisor+6,f,c
 12798  003730  320E               	rrcf	___aodiv@divisor+5,f,c
 12799  003732  320D               	rrcf	___aodiv@divisor+4,f,c
 12800  003734  320C               	rrcf	___aodiv@divisor+3,f,c
 12801  003736  320B               	rrcf	___aodiv@divisor+2,f,c
 12802  003738  320A               	rrcf	___aodiv@divisor+1,f,c
 12803  00373A  3209               	rrcf	___aodiv@divisor,f,c
 12804  00373C  2E11               	decfsz	___aodiv@counter,f,c
 12805  00373E  D7C9               	goto	u4320
 12806  003740                     l4640:
 12807  003740  5012               	movf	___aodiv@sign,w,c
 12808  003742  B4D8               	btfsc	status,2,c
 12809  003744  D010               	goto	l4644
 12810  003746  1E1A               	comf	___aodiv@quotient+7,f,c
 12811  003748  1E19               	comf	___aodiv@quotient+6,f,c
 12812  00374A  1E18               	comf	___aodiv@quotient+5,f,c
 12813  00374C  1E17               	comf	___aodiv@quotient+4,f,c
 12814  00374E  1E16               	comf	___aodiv@quotient+3,f,c
 12815  003750  1E15               	comf	___aodiv@quotient+2,f,c
 12816  003752  1E14               	comf	___aodiv@quotient+1,f,c
 12817  003754  6C13               	negf	___aodiv@quotient,c
 12818  003756  0E00               	movlw	0
 12819  003758  2214               	addwfc	___aodiv@quotient+1,f,c
 12820  00375A  2215               	addwfc	___aodiv@quotient+2,f,c
 12821  00375C  2216               	addwfc	___aodiv@quotient+3,f,c
 12822  00375E  2217               	addwfc	___aodiv@quotient+4,f,c
 12823  003760  2218               	addwfc	___aodiv@quotient+5,f,c
 12824  003762  2219               	addwfc	___aodiv@quotient+6,f,c
 12825  003764  221A               	addwfc	___aodiv@quotient+7,f,c
 12826  003766                     l4644:
 12827  003766  C013  F001         	movff	___aodiv@quotient,?___aodiv
 12828  00376A  C014  F002         	movff	___aodiv@quotient+1,?___aodiv+1
 12829  00376E  C015  F003         	movff	___aodiv@quotient+2,?___aodiv+2
 12830  003772  C016  F004         	movff	___aodiv@quotient+3,?___aodiv+3
 12831  003776  C017  F005         	movff	___aodiv@quotient+4,?___aodiv+4
 12832  00377A  C018  F006         	movff	___aodiv@quotient+5,?___aodiv+5
 12833  00377E  C019  F007         	movff	___aodiv@quotient+6,?___aodiv+6
 12834  003782  C01A  F008         	movff	___aodiv@quotient+7,?___aodiv+7
 12835  003786  0012               	return		;funcret
 12836  003788                     __end_of___aodiv:
 12837                           	opt callstack 0
 12838                           
 12839 ;; *************** function _ctoa *****************
 12840 ;; Defined at:
 12841 ;;		line 259 in file "C:\Program Files (x86)\Microchip\xc8\v2.05\pic\sources\c99\common\doprnt.c"
 12842 ;; Parameters:    Size  Location     Type
 12843 ;;  fp              2   27[COMRAM] PTR struct _IO_FILE
 12844 ;;		 -> sprintf@f(6), 
 12845 ;;  c               1   29[COMRAM] unsigned char 
 12846 ;; Auto vars:     Size  Location     Type
 12847 ;;  w               2   30[COMRAM] int 
 12848 ;;  l               2    0        int 
 12849 ;; Return value:  Size  Location     Type
 12850 ;;                  2   27[COMRAM] int 
 12851 ;; Registers used:
 12852 ;;		wreg, fsr1l, fsr1h, fsr2l, fsr2h, status,2, status,0, cstack
 12853 ;; Tracked objects:
 12854 ;;		On entry : 0/0
 12855 ;;		On exit  : 0/0
 12856 ;;		Unchanged: 0/0
 12857 ;; Data sizes:     COMRAM   BANK0   BANK1   BANK2   BANK3   BANK4   BANK5   BANK6   BANK7
 12858 ;;      Params:         3       0       0       0       0       0       0       0       0
 12859 ;;      Locals:         2       0       0       0       0       0       0       0       0
 12860 ;;      Temps:          0       0       0       0       0       0       0       0       0
 12861 ;;      Totals:         5       0       0       0       0       0       0       0       0
 12862 ;;Total ram usage:        5 bytes
 12863 ;; Hardware stack levels used:    1
 12864 ;; Hardware stack levels required when called:    6
 12865 ;; This function calls:
 12866 ;;		_pad
 12867 ;; This function is called by:
 12868 ;;		_vfpfcnvrt
 12869 ;; This function uses a non-reentrant model
 12870 ;;
 12871                           
 12872                           	psect	text30
 12873  0048C6                     __ptext30:
 12874                           	opt callstack 0
 12875  0048C6                     _ctoa:
 12876                           	opt callstack 21
 12877                           
 12878                           ;C:\Program Files (x86)\Microchip\xc8\v2.05\pic\sources\c99\common\doprnt.c: 259: static
      +                           int ctoa(FILE *fp, char c);C:\Program Files (x86)\Microchip\xc8\v2.05\pic\sources\c99\c
      +                          ommon\doprnt.c: 260: {;C:\Program Files (x86)\Microchip\xc8\v2.05\pic\sources\c99\common
      +                          \doprnt.c: 261:     int l, w;;C:\Program Files (x86)\Microchip\xc8\v2.05\pic\sources\c99
      +                          \common\doprnt.c: 264:     w = width ? width - 1 : width;
 12879                           
 12880                           ;incstack = 0
 12881  0048C6  0100               	movlb	0	; () banked
 12882  0048C8  51EE               	movf	_width& (0+255),w,b
 12883  0048CA  11EF               	iorwf	(_width+1)& (0+255),w,b
 12884  0048CC  A4D8               	btfss	status,2,c
 12885  0048CE  D005               	goto	l5144
 12886                           
 12887                           ; BSR set to: 0
 12888  0048D0  C0EE  F01F         	movff	_width,ctoa@w
 12889  0048D4  C0EF  F020         	movff	_width+1,ctoa@w+1
 12890  0048D8  D006               	goto	l5146
 12891  0048DA                     l5144:
 12892                           
 12893                           ; BSR set to: 0
 12894  0048DA  0EFF               	movlw	255
 12895  0048DC  25EE               	addwf	_width& (0+255),w,b
 12896  0048DE  6E1F               	movwf	ctoa@w,c
 12897  0048E0  0EFF               	movlw	255
 12898  0048E2  21EF               	addwfc	(_width+1)& (0+255),w,b
 12899  0048E4  6E20               	movwf	ctoa@w+1,c
 12900  0048E6                     l5146:
 12901                           
 12902                           ; BSR set to: 0
 12903                           ;C:\Program Files (x86)\Microchip\xc8\v2.05\pic\sources\c99\common\doprnt.c: 267:     db
      +                          uf[0] = c;
 12904  0048E6  C01E  F11A         	movff	ctoa@c,_dbuf
 12905                           
 12906                           ; BSR set to: 0
 12907                           ;C:\Program Files (x86)\Microchip\xc8\v2.05\pic\sources\c99\common\doprnt.c: 268:     db
      +                          uf[1] = '\0';
 12908  0048EA  0E00               	movlw	0
 12909  0048EC  0101               	movlb	1	; () banked
 12910  0048EE  6F1B               	movwf	(_dbuf+1)& (0+255),b
 12911                           
 12912                           ; BSR set to: 1
 12913                           ;C:\Program Files (x86)\Microchip\xc8\v2.05\pic\sources\c99\common\doprnt.c: 269:     re
      +                          turn pad(fp, &dbuf[0], w);
 12914  0048F0  C01C  F011         	movff	ctoa@fp,pad@fp
 12915  0048F4  C01D  F012         	movff	ctoa@fp+1,pad@fp+1
 12916  0048F8  0E1A               	movlw	low _dbuf
 12917  0048FA  6E13               	movwf	pad@buf,c
 12918  0048FC  0E01               	movlw	high _dbuf
 12919  0048FE  6E14               	movwf	pad@buf+1,c
 12920  004900  C01F  F015         	movff	ctoa@w,pad@p
 12921  004904  C020  F016         	movff	ctoa@w+1,pad@p+1
 12922  004908  ECCA  F021         	call	_pad	;wreg free
 12923  00490C  C011  F01C         	movff	?_pad,?_ctoa
 12924  004910  C012  F01D         	movff	?_pad+1,?_ctoa+1
 12925  004914  0012               	return		;funcret
 12926  004916                     __end_of_ctoa:
 12927                           	opt callstack 0
 12928                           
 12929 ;; *************** function _pad *****************
 12930 ;; Defined at:
 12931 ;;		line 72 in file "C:\Program Files (x86)\Microchip\xc8\v2.05\pic\sources\c99\common\doprnt.c"
 12932 ;; Parameters:    Size  Location     Type
 12933 ;;  fp              2   16[COMRAM] PTR struct _IO_FILE
 12934 ;;		 -> sprintf@f(6), 
 12935 ;;  buf             2   18[COMRAM] PTR unsigned char 
 12936 ;;		 -> dbuf(80), 
 12937 ;;  p               2   20[COMRAM] int 
 12938 ;; Auto vars:     Size  Location     Type
 12939 ;;  w               2   25[COMRAM] int 
 12940 ;;  i               2   23[COMRAM] int 
 12941 ;; Return value:  Size  Location     Type
 12942 ;;                  2   16[COMRAM] int 
 12943 ;; Registers used:
 12944 ;;		wreg, fsr1l, fsr1h, fsr2l, fsr2h, status,2, status,0, cstack
 12945 ;; Tracked objects:
 12946 ;;		On entry : 0/0
 12947 ;;		On exit  : 0/0
 12948 ;;		Unchanged: 0/0
 12949 ;; Data sizes:     COMRAM   BANK0   BANK1   BANK2   BANK3   BANK4   BANK5   BANK6   BANK7
 12950 ;;      Params:         6       0       0       0       0       0       0       0       0
 12951 ;;      Locals:         4       0       0       0       0       0       0       0       0
 12952 ;;      Temps:          1       0       0       0       0       0       0       0       0
 12953 ;;      Totals:        11       0       0       0       0       0       0       0       0
 12954 ;;Total ram usage:       11 bytes
 12955 ;; Hardware stack levels used:    1
 12956 ;; Hardware stack levels required when called:    5
 12957 ;; This function calls:
 12958 ;;		_fputc
 12959 ;;		_fputs
 12960 ;;		_strlen
 12961 ;; This function is called by:
 12962 ;;		_ctoa
 12963 ;;		_dtoa
 12964 ;;		_efgtoa
 12965 ;; This function uses a non-reentrant model
 12966 ;;
 12967                           
 12968                           	psect	text31
 12969  004394                     __ptext31:
 12970                           	opt callstack 0
 12971  004394                     _pad:
 12972                           	opt callstack 21
 12973                           
 12974                           ;C:\Program Files (x86)\Microchip\xc8\v2.05\pic\sources\c99\common\doprnt.c: 72: static 
      +                          int pad(FILE *fp, char *buf, int p);C:\Program Files (x86)\Microchip\xc8\v2.05\pic\sourc
      +                          es\c99\common\doprnt.c: 73: {;C:\Program Files (x86)\Microchip\xc8\v2.05\pic\sources\c99
      +                          \common\doprnt.c: 74:     int i, w;;C:\Program Files (x86)\Microchip\xc8\v2.05\pic\sourc
      +                          es\c99\common\doprnt.c: 77:     if (flags & (1 << 0)) {
 12975                           
 12976                           ;incstack = 0
 12977  004394  0100               	movlb	0	; () banked
 12978  004396  A1F2               	btfss	_flags& (0+255),0,b
 12979  004398  D00A               	goto	l4508
 12980                           
 12981                           ; BSR set to: 0
 12982                           ;C:\Program Files (x86)\Microchip\xc8\v2.05\pic\sources\c99\common\doprnt.c: 78:        
      +                           fputs((const char *)buf, fp);
 12983  00439A  C013  F00A         	movff	pad@buf,fputs@s
 12984  00439E  C014  F00B         	movff	pad@buf+1,fputs@s+1
 12985  0043A2  C011  F00C         	movff	pad@fp,fputs@fp
 12986  0043A6  C012  F00D         	movff	pad@fp+1,fputs@fp+1
 12987  0043AA  ECF3  F024         	call	_fputs	;wreg free
 12988  0043AE                     l4508:
 12989                           
 12990                           ;C:\Program Files (x86)\Microchip\xc8\v2.05\pic\sources\c99\common\doprnt.c: 82:     w =
      +                           (p < 0) ? 0 : p;
 12991  0043AE  BE16               	btfsc	pad@p+1,7,c
 12992  0043B0  D005               	goto	l4512
 12993  0043B2  C015  F01A         	movff	pad@p,pad@w
 12994  0043B6  C016  F01B         	movff	pad@p+1,pad@w+1
 12995  0043BA  D004               	goto	l342
 12996  0043BC                     l4512:
 12997  0043BC  0E00               	movlw	0
 12998  0043BE  6E1B               	movwf	pad@w+1,c
 12999  0043C0  0E00               	movlw	0
 13000  0043C2  6E1A               	movwf	pad@w,c
 13001  0043C4                     l342:
 13002                           
 13003                           ;C:\Program Files (x86)\Microchip\xc8\v2.05\pic\sources\c99\common\doprnt.c: 83:     i =
      +                           0;
 13004  0043C4  0E00               	movlw	0
 13005  0043C6  6E19               	movwf	pad@i+1,c
 13006  0043C8  0E00               	movlw	0
 13007  0043CA  6E18               	movwf	pad@i,c
 13008                           
 13009                           ;C:\Program Files (x86)\Microchip\xc8\v2.05\pic\sources\c99\common\doprnt.c: 84:     whi
      +                          le (i < w) {
 13010  0043CC  D00C               	goto	l4518
 13011  0043CE                     l4514:
 13012                           
 13013                           ;C:\Program Files (x86)\Microchip\xc8\v2.05\pic\sources\c99\common\doprnt.c: 85:        
      +                           fputc(' ', fp);
 13014  0043CE  0E00               	movlw	0
 13015  0043D0  6E02               	movwf	fputc@c+1,c
 13016  0043D2  0E20               	movlw	32
 13017  0043D4  6E01               	movwf	fputc@c,c
 13018  0043D6  C011  F003         	movff	pad@fp,fputc@fp
 13019  0043DA  C012  F004         	movff	pad@fp+1,fputc@fp+1
 13020  0043DE  EC7A  F021         	call	_fputc	;wreg free
 13021                           
 13022                           ;C:\Program Files (x86)\Microchip\xc8\v2.05\pic\sources\c99\common\doprnt.c: 86:        
      +                           ++i;
 13023  0043E2  4A18               	infsnz	pad@i,f,c
 13024  0043E4  2A19               	incf	pad@i+1,f,c
 13025  0043E6                     l4518:
 13026                           
 13027                           ;C:\Program Files (x86)\Microchip\xc8\v2.05\pic\sources\c99\common\doprnt.c: 84:     whi
      +                          le (i < w) {
 13028  0043E6  501A               	movf	pad@w,w,c
 13029  0043E8  5C18               	subwf	pad@i,w,c
 13030  0043EA  5019               	movf	pad@i+1,w,c
 13031  0043EC  0A80               	xorlw	128
 13032  0043EE  6E17               	movwf	??_pad& (0+255),c
 13033  0043F0  501B               	movf	pad@w+1,w,c
 13034  0043F2  0A80               	xorlw	128
 13035  0043F4  5817               	subwfb	??_pad& (0+255),w,c
 13036  0043F6  A0D8               	btfss	status,0,c
 13037  0043F8  D7EA               	goto	l4514
 13038                           
 13039                           ;C:\Program Files (x86)\Microchip\xc8\v2.05\pic\sources\c99\common\doprnt.c: 90:     if 
      +                          (!(flags & (1 << 0))) {
 13040  0043FA  0100               	movlb	0	; () banked
 13041  0043FC  B1F2               	btfsc	_flags& (0+255),0,b
 13042  0043FE  D00A               	goto	l4522
 13043                           
 13044                           ; BSR set to: 0
 13045                           ;C:\Program Files (x86)\Microchip\xc8\v2.05\pic\sources\c99\common\doprnt.c: 91:        
      +                           fputs((const char *)buf, fp);
 13046  004400  C013  F00A         	movff	pad@buf,fputs@s
 13047  004404  C014  F00B         	movff	pad@buf+1,fputs@s+1
 13048  004408  C011  F00C         	movff	pad@fp,fputs@fp
 13049  00440C  C012  F00D         	movff	pad@fp+1,fputs@fp+1
 13050  004410  ECF3  F024         	call	_fputs	;wreg free
 13051  004414                     l4522:
 13052                           
 13053                           ;C:\Program Files (x86)\Microchip\xc8\v2.05\pic\sources\c99\common\doprnt.c: 94:     ret
      +                          urn strlen(buf) + w;
 13054  004414  C013  F001         	movff	pad@buf,strlen@s
 13055  004418  C014  F002         	movff	pad@buf+1,strlen@s+1
 13056  00441C  EC6F  F025         	call	_strlen	;wreg free
 13057  004420  501A               	movf	pad@w,w,c
 13058  004422  2401               	addwf	?_strlen,w,c
 13059  004424  6E11               	movwf	?_pad,c
 13060  004426  501B               	movf	pad@w+1,w,c
 13061  004428  2002               	addwfc	?_strlen+1,w,c
 13062  00442A  6E12               	movwf	?_pad+1,c
 13063  00442C  0012               	return		;funcret
 13064  00442E                     __end_of_pad:
 13065                           	opt callstack 0
 13066                           
 13067 ;; *************** function _strlen *****************
 13068 ;; Defined at:
 13069 ;;		line 12 in file "C:\Program Files (x86)\Microchip\xc8\v2.05\pic\sources\c99\common\strlen.c"
 13070 ;; Parameters:    Size  Location     Type
 13071 ;;  s               2    0[COMRAM] PTR const unsigned char 
 13072 ;;		 -> dbuf(80), 
 13073 ;; Auto vars:     Size  Location     Type
 13074 ;;  a               2    2[COMRAM] PTR const unsigned char 
 13075 ;;		 -> dbuf(80), 
 13076 ;; Return value:  Size  Location     Type
 13077 ;;                  2    0[COMRAM] unsigned int 
 13078 ;; Registers used:
 13079 ;;		wreg, fsr2l, fsr2h, status,2, status,0
 13080 ;; Tracked objects:
 13081 ;;		On entry : 0/0
 13082 ;;		On exit  : 0/0
 13083 ;;		Unchanged: 0/0
 13084 ;; Data sizes:     COMRAM   BANK0   BANK1   BANK2   BANK3   BANK4   BANK5   BANK6   BANK7
 13085 ;;      Params:         2       0       0       0       0       0       0       0       0
 13086 ;;      Locals:         2       0       0       0       0       0       0       0       0
 13087 ;;      Temps:          0       0       0       0       0       0       0       0       0
 13088 ;;      Totals:         4       0       0       0       0       0       0       0       0
 13089 ;;Total ram usage:        4 bytes
 13090 ;; Hardware stack levels used:    1
 13091 ;; Hardware stack levels required when called:    2
 13092 ;; This function calls:
 13093 ;;		Nothing
 13094 ;; This function is called by:
 13095 ;;		_pad
 13096 ;; This function uses a non-reentrant model
 13097 ;;
 13098                           
 13099                           	psect	text32
 13100  004ADE                     __ptext32:
 13101                           	opt callstack 0
 13102  004ADE                     _strlen:
 13103                           	opt callstack 23
 13104                           
 13105                           ;incstack = 0
 13106  004ADE  C001  F003         	movff	strlen@s,strlen@a
 13107  004AE2  C002  F004         	movff	strlen@s+1,strlen@a+1
 13108  004AE6  D002               	goto	l4292
 13109  004AE8                     l4290:
 13110  004AE8  4A01               	infsnz	strlen@s,f,c
 13111  004AEA  2A02               	incf	strlen@s+1,f,c
 13112  004AEC                     l4292:
 13113  004AEC  C001  FFD9         	movff	strlen@s,fsr2l
 13114  004AF0  C002  FFDA         	movff	strlen@s+1,fsr2h
 13115  004AF4  50DF               	movf	indf2,w,c
 13116  004AF6  A4D8               	btfss	status,2,c
 13117  004AF8  D7F7               	goto	l4290
 13118  004AFA  5003               	movf	strlen@a,w,c
 13119  004AFC  5C01               	subwf	strlen@s,w,c
 13120  004AFE  6E01               	movwf	?_strlen,c
 13121  004B00  5004               	movf	strlen@a+1,w,c
 13122  004B02  5802               	subwfb	strlen@s+1,w,c
 13123  004B04  6E02               	movwf	?_strlen+1,c
 13124  004B06  0012               	return		;funcret
 13125  004B08                     __end_of_strlen:
 13126                           	opt callstack 0
 13127                           
 13128 ;; *************** function _fputs *****************
 13129 ;; Defined at:
 13130 ;;		line 8 in file "C:\Program Files (x86)\Microchip\xc8\v2.05\pic\sources\c99\common\nf_fputs.c"
 13131 ;; Parameters:    Size  Location     Type
 13132 ;;  s               2    9[COMRAM] PTR const unsigned char 
 13133 ;;		 -> dbuf(80), 
 13134 ;;  fp              2   11[COMRAM] PTR struct _IO_FILE
 13135 ;;		 -> sprintf@f(6), 
 13136 ;; Auto vars:     Size  Location     Type
 13137 ;;  i               2   14[COMRAM] int 
 13138 ;;  c               1   13[COMRAM] unsigned char 
 13139 ;; Return value:  Size  Location     Type
 13140 ;;                  2    9[COMRAM] int 
 13141 ;; Registers used:
 13142 ;;		wreg, fsr1l, fsr1h, fsr2l, fsr2h, status,2, status,0, cstack
 13143 ;; Tracked objects:
 13144 ;;		On entry : 0/0
 13145 ;;		On exit  : 0/0
 13146 ;;		Unchanged: 0/0
 13147 ;; Data sizes:     COMRAM   BANK0   BANK1   BANK2   BANK3   BANK4   BANK5   BANK6   BANK7
 13148 ;;      Params:         4       0       0       0       0       0       0       0       0
 13149 ;;      Locals:         3       0       0       0       0       0       0       0       0
 13150 ;;      Temps:          0       0       0       0       0       0       0       0       0
 13151 ;;      Totals:         7       0       0       0       0       0       0       0       0
 13152 ;;Total ram usage:        7 bytes
 13153 ;; Hardware stack levels used:    1
 13154 ;; Hardware stack levels required when called:    4
 13155 ;; This function calls:
 13156 ;;		_fputc
 13157 ;; This function is called by:
 13158 ;;		_pad
 13159 ;; This function uses a non-reentrant model
 13160 ;;
 13161                           
 13162                           	psect	text33
 13163  0049E6                     __ptext33:
 13164                           	opt callstack 0
 13165  0049E6                     _fputs:
 13166                           	opt callstack 21
 13167                           
 13168                           ;incstack = 0
 13169  0049E6  0E00               	movlw	0
 13170  0049E8  6E10               	movwf	fputs@i+1,c
 13171  0049EA  0E00               	movlw	0
 13172  0049EC  6E0F               	movwf	fputs@i,c
 13173  0049EE  D00B               	goto	l4286
 13174  0049F0                     l4282:
 13175  0049F0  C00E  F001         	movff	fputs@c,fputc@c
 13176  0049F4  6A02               	clrf	fputc@c+1,c
 13177  0049F6  C00C  F003         	movff	fputs@fp,fputc@fp
 13178  0049FA  C00D  F004         	movff	fputs@fp+1,fputc@fp+1
 13179  0049FE  EC7A  F021         	call	_fputc	;wreg free
 13180  004A02  4A0F               	infsnz	fputs@i,f,c
 13181  004A04  2A10               	incf	fputs@i+1,f,c
 13182  004A06                     l4286:
 13183  004A06  500F               	movf	fputs@i,w,c
 13184  004A08  240A               	addwf	fputs@s,w,c
 13185  004A0A  6ED9               	movwf	fsr2l,c
 13186  004A0C  5010               	movf	fputs@i+1,w,c
 13187  004A0E  200B               	addwfc	fputs@s+1,w,c
 13188  004A10  6EDA               	movwf	fsr2h,c
 13189  004A12  50DF               	movf	indf2,w,c
 13190  004A14  6E0E               	movwf	fputs@c,c
 13191  004A16  500E               	movf	fputs@c,w,c
 13192  004A18  B4D8               	btfsc	status,2,c
 13193  004A1A  0012               	return	
 13194  004A1C  D7E9               	goto	l4282
 13195  004A1E                     __end_of_fputs:
 13196                           	opt callstack 0
 13197                           
 13198 ;; *************** function _fputc *****************
 13199 ;; Defined at:
 13200 ;;		line 8 in file "C:\Program Files (x86)\Microchip\xc8\v2.05\pic\sources\c99\common\nf_fputc.c"
 13201 ;; Parameters:    Size  Location     Type
 13202 ;;  c               2    0[COMRAM] int 
 13203 ;;  fp              2    2[COMRAM] PTR struct _IO_FILE
 13204 ;;		 -> sprintf@f(6), 
 13205 ;; Auto vars:     Size  Location     Type
 13206 ;;		None
 13207 ;; Return value:  Size  Location     Type
 13208 ;;                  2    0[COMRAM] int 
 13209 ;; Registers used:
 13210 ;;		wreg, fsr1l, fsr1h, fsr2l, fsr2h, status,2, status,0, cstack
 13211 ;; Tracked objects:
 13212 ;;		On entry : 0/0
 13213 ;;		On exit  : 0/0
 13214 ;;		Unchanged: 0/0
 13215 ;; Data sizes:     COMRAM   BANK0   BANK1   BANK2   BANK3   BANK4   BANK5   BANK6   BANK7
 13216 ;;      Params:         4       0       0       0       0       0       0       0       0
 13217 ;;      Locals:         0       0       0       0       0       0       0       0       0
 13218 ;;      Temps:          5       0       0       0       0       0       0       0       0
 13219 ;;      Totals:         9       0       0       0       0       0       0       0       0
 13220 ;;Total ram usage:        9 bytes
 13221 ;; Hardware stack levels used:    1
 13222 ;; Hardware stack levels required when called:    3
 13223 ;; This function calls:
 13224 ;;		_putch
 13225 ;; This function is called by:
 13226 ;;		_pad
 13227 ;;		_vfpfcnvrt
 13228 ;;		_fputs
 13229 ;; This function uses a non-reentrant model
 13230 ;;
 13231                           
 13232                           	psect	text34
 13233  0042F4                     __ptext34:
 13234                           	opt callstack 0
 13235  0042F4                     _fputc:
 13236                           	opt callstack 24
 13237                           
 13238                           ;incstack = 0
 13239  0042F4  5003               	movf	fputc@fp,w,c
 13240  0042F6  1004               	iorwf	fputc@fp+1,w,c
 13241  0042F8  B4D8               	btfsc	status,2,c
 13242  0042FA  D004               	goto	u3530
 13243  0042FC  5003               	movf	fputc@fp,w,c
 13244  0042FE  1004               	iorwf	fputc@fp+1,w,c
 13245  004300  A4D8               	btfss	status,2,c
 13246  004302  D004               	goto	l4272
 13247  004304                     u3530:
 13248  004304  5001               	movf	fputc@c,w,c
 13249  004306  ECAC  F025         	call	_putch
 13250  00430A  0012               	return	
 13251  00430C                     l4272:
 13252  00430C  EE20 F004          	lfsr	2,4
 13253  004310  5003               	movf	fputc@fp,w,c
 13254  004312  26D9               	addwf	fsr2l,f,c
 13255  004314  5004               	movf	fputc@fp+1,w,c
 13256  004316  22DA               	addwfc	fsr2h,f,c
 13257  004318  50DE               	movf	postinc2,w,c
 13258  00431A  10DE               	iorwf	postinc2,w,c
 13259  00431C  B4D8               	btfsc	status,2,c
 13260  00431E  D016               	goto	u3550
 13261  004320  EE20 F004          	lfsr	2,4
 13262  004324  5003               	movf	fputc@fp,w,c
 13263  004326  26D9               	addwf	fsr2l,f,c
 13264  004328  5004               	movf	fputc@fp+1,w,c
 13265  00432A  22DA               	addwfc	fsr2h,f,c
 13266  00432C  EE10 F002          	lfsr	1,2
 13267  004330  5003               	movf	fputc@fp,w,c
 13268  004332  26E1               	addwf	fsr1l,f,c
 13269  004334  5004               	movf	fputc@fp+1,w,c
 13270  004336  22E2               	addwfc	fsr1h,f,c
 13271  004338  50DE               	movf	postinc2,w,c
 13272  00433A  5CE6               	subwf	postinc1,w,c
 13273  00433C  50E6               	movf	postinc1,w,c
 13274  00433E  0A80               	xorlw	128
 13275  004340  6E09               	movwf	(??_fputc+4)& (0+255),c
 13276  004342  50DE               	movf	postinc2,w,c
 13277  004344  0A80               	xorlw	128
 13278  004346  5809               	subwfb	(??_fputc+4)& (0+255),w,c
 13279  004348  B0D8               	btfsc	status,0,c
 13280  00434A  0012               	return	
 13281  00434C                     u3550:
 13282  00434C  EE20 F002          	lfsr	2,2
 13283  004350  5003               	movf	fputc@fp,w,c
 13284  004352  26D9               	addwf	fsr2l,f,c
 13285  004354  5004               	movf	fputc@fp+1,w,c
 13286  004356  22DA               	addwfc	fsr2h,f,c
 13287  004358  CFDE F005          	movff	postinc2,??_fputc
 13288  00435C  CFDD F006          	movff	postdec2,??_fputc+1
 13289  004360  C003  FFD9         	movff	fputc@fp,fsr2l
 13290  004364  C004  FFDA         	movff	fputc@fp+1,fsr2h
 13291  004368  CFDE F007          	movff	postinc2,??_fputc+2
 13292  00436C  CFDD F008          	movff	postdec2,??_fputc+3
 13293  004370  5005               	movf	??_fputc,w,c
 13294  004372  2407               	addwf	??_fputc+2,w,c
 13295  004374  6ED9               	movwf	fsr2l,c
 13296  004376  5006               	movf	??_fputc+1,w,c
 13297  004378  2008               	addwfc	??_fputc+3,w,c
 13298  00437A  6EDA               	movwf	fsr2h,c
 13299  00437C  C001  FFDF         	movff	fputc@c,indf2
 13300  004380  EE20 F002          	lfsr	2,2
 13301  004384  5003               	movf	fputc@fp,w,c
 13302  004386  26D9               	addwf	fsr2l,f,c
 13303  004388  5004               	movf	fputc@fp+1,w,c
 13304  00438A  22DA               	addwfc	fsr2h,f,c
 13305  00438C  2ADE               	incf	postinc2,f,c
 13306  00438E  0E00               	movlw	0
 13307  004390  22DD               	addwfc	postdec2,f,c
 13308  004392  0012               	return		;funcret
 13309  004394                     __end_of_fputc:
 13310                           	opt callstack 0
 13311                           
 13312 ;; *************** function _putch *****************
 13313 ;; Defined at:
 13314 ;;		line 7 in file "C:\Program Files (x86)\Microchip\xc8\v2.05\pic\sources\c99\common\putch.c"
 13315 ;; Parameters:    Size  Location     Type
 13316 ;;  c               1    wreg     unsigned char 
 13317 ;; Auto vars:     Size  Location     Type
 13318 ;;  c               1    0[COMRAM] unsigned char 
 13319 ;; Return value:  Size  Location     Type
 13320 ;;                  1    wreg      void 
 13321 ;; Registers used:
 13322 ;;		wreg
 13323 ;; Tracked objects:
 13324 ;;		On entry : 0/0
 13325 ;;		On exit  : 0/0
 13326 ;;		Unchanged: 0/0
 13327 ;; Data sizes:     COMRAM   BANK0   BANK1   BANK2   BANK3   BANK4   BANK5   BANK6   BANK7
 13328 ;;      Params:         0       0       0       0       0       0       0       0       0
 13329 ;;      Locals:         0       0       0       0       0       0       0       0       0
 13330 ;;      Temps:          0       0       0       0       0       0       0       0       0
 13331 ;;      Totals:         0       0       0       0       0       0       0       0       0
 13332 ;;Total ram usage:        0 bytes
 13333 ;; Hardware stack levels used:    1
 13334 ;; Hardware stack levels required when called:    2
 13335 ;; This function calls:
 13336 ;;		Nothing
 13337 ;; This function is called by:
 13338 ;;		_fputc
 13339 ;; This function uses a non-reentrant model
 13340 ;;
 13341                           
 13342                           	psect	text35
 13343  004B58                     __ptext35:
 13344                           	opt callstack 0
 13345  004B58                     _putch:
 13346                           	opt callstack 24
 13347                           
 13348                           ;incstack = 0
 13349  004B58  0012               	return		;funcret
 13350  004B5A                     __end_of_putch:
 13351                           	opt callstack 0
 13352                           
 13353 ;; *************** function _atoi *****************
 13354 ;; Defined at:
 13355 ;;		line 4 in file "C:\Program Files (x86)\Microchip\xc8\v2.05\pic\sources\c99\common\atoi.c"
 13356 ;; Parameters:    Size  Location     Type
 13357 ;;  s               2    7[COMRAM] PTR const unsigned char 
 13358 ;;		 -> STR_89(10), STR_80(7), STR_79(8), STR_74(6), 
 13359 ;;		 -> STR_69(11), STR_68(10), STR_66(5), STR_31(10), 
 13360 ;;		 -> STR_22(8), STR_20(15), STR_18(15), STR_16(15), 
 13361 ;; Auto vars:     Size  Location     Type
 13362 ;;  n               2   20[COMRAM] int 
 13363 ;;  neg             2   13[COMRAM] int 
 13364 ;; Return value:  Size  Location     Type
 13365 ;;                  2    7[COMRAM] int 
 13366 ;; Registers used:
 13367 ;;		wreg, status,2, status,0, tblptrl, tblptrh, tblptru, prodl, prodh, cstack
 13368 ;; Tracked objects:
 13369 ;;		On entry : 0/0
 13370 ;;		On exit  : 0/0
 13371 ;;		Unchanged: 0/0
 13372 ;; Data sizes:     COMRAM   BANK0   BANK1   BANK2   BANK3   BANK4   BANK5   BANK6   BANK7
 13373 ;;      Params:         2       0       0       0       0       0       0       0       0
 13374 ;;      Locals:         9       0       0       0       0       0       0       0       0
 13375 ;;      Temps:          4       0       0       0       0       0       0       0       0
 13376 ;;      Totals:        15       0       0       0       0       0       0       0       0
 13377 ;;Total ram usage:       15 bytes
 13378 ;; Hardware stack levels used:    1
 13379 ;; Hardware stack levels required when called:    3
 13380 ;; This function calls:
 13381 ;;		___wmul
 13382 ;;		_isdigit
 13383 ;;		_isspace
 13384 ;; This function is called by:
 13385 ;;		_vfpfcnvrt
 13386 ;; This function uses a non-reentrant model
 13387 ;;
 13388                           
 13389                           	psect	text36
 13390  0038C8                     __ptext36:
 13391                           	opt callstack 0
 13392  0038C8                     _atoi:
 13393                           	opt callstack 24
 13394                           
 13395                           ;incstack = 0
 13396  0038C8  0E00               	movlw	0
 13397  0038CA  6E16               	movwf	atoi@n+1,c
 13398  0038CC  0E00               	movlw	0
 13399  0038CE  6E15               	movwf	atoi@n,c
 13400  0038D0  0E00               	movlw	0
 13401  0038D2  6E0F               	movwf	atoi@neg+1,c
 13402  0038D4  0E00               	movlw	0
 13403  0038D6  6E0E               	movwf	atoi@neg,c
 13404  0038D8  D002               	goto	l5518
 13405  0038DA                     l5516:
 13406  0038DA  4A08               	infsnz	atoi@s,f,c
 13407  0038DC  2A09               	incf	atoi@s+1,f,c
 13408  0038DE                     l5518:
 13409  0038DE  0E01               	movlw	1
 13410  0038E0  6E14               	movwf	_atoi$1598,c
 13411  0038E2  C008  FFF6         	movff	atoi@s,tblptrl
 13412  0038E6  C009  FFF7         	movff	atoi@s+1,tblptrh
 13413  0038EA                     	if	0	;tblptru may be non-zero
 13414  0038EA                     	endif
 13415  0038EA                     	if	0	;tblptru may be non-zero
 13416  0038EA                     	endif
 13417  0038EA  0008               	tblrd		*
 13418  0038EC  50F5               	movf	tablat,w,c
 13419  0038EE  0A20               	xorlw	32
 13420  0038F0  B4D8               	btfsc	status,2,c
 13421  0038F2  D018               	goto	l5526
 13422  0038F4  0EF7               	movlw	247
 13423  0038F6  6E0A               	movwf	??_atoi& (0+255),c
 13424  0038F8  0EFF               	movlw	255
 13425  0038FA  6E0B               	movwf	(??_atoi+1)& (0+255),c
 13426  0038FC  C008  FFF6         	movff	atoi@s,tblptrl
 13427  003900  C009  FFF7         	movff	atoi@s+1,tblptrh
 13428  003904                     	if	0	;tblptru may be non-zero
 13429  003904                     	endif
 13430  003904                     	if	0	;tblptru may be non-zero
 13431  003904                     	endif
 13432  003904  0008               	tblrd		*
 13433  003906  50F5               	movf	tablat,w,c
 13434  003908  6E0C               	movwf	(??_atoi+2)& (0+255),c
 13435  00390A  6A0D               	clrf	(??_atoi+3)& (0+255),c
 13436  00390C  500A               	movf	??_atoi,w,c
 13437  00390E  260C               	addwf	??_atoi+2,f,c
 13438  003910  500B               	movf	??_atoi+1,w,c
 13439  003912  220D               	addwfc	??_atoi+3,f,c
 13440  003914  500D               	movf	??_atoi+3,w,c
 13441  003916  E104               	bnz	u5820
 13442  003918  0E05               	movlw	5
 13443  00391A  5C0C               	subwf	??_atoi+2,w,c
 13444  00391C  A0D8               	btfss	status,0,c
 13445  00391E  D002               	goto	l5526
 13446  003920                     u5820:
 13447  003920  0E00               	movlw	0
 13448  003922  6E14               	movwf	_atoi$1598,c
 13449  003924                     l5526:
 13450  003924  C014  F010         	movff	_atoi$1598,_atoi$1597
 13451  003928  6A11               	clrf	_atoi$1597+1,c
 13452  00392A  5010               	movf	_atoi$1597,w,c
 13453  00392C  1011               	iorwf	_atoi$1597+1,w,c
 13454  00392E  B4D8               	btfsc	status,2,c
 13455  003930  D008               	goto	l5536
 13456  003932  D7D3               	goto	l5516
 13457  003934                     l5532:
 13458  003934  0E00               	movlw	0
 13459  003936  6E0F               	movwf	atoi@neg+1,c
 13460  003938  0E01               	movlw	1
 13461  00393A  6E0E               	movwf	atoi@neg,c
 13462  00393C                     l5534:
 13463  00393C  4A08               	infsnz	atoi@s,f,c
 13464  00393E  2A09               	incf	atoi@s+1,f,c
 13465  003940  D02E               	goto	l5542
 13466  003942                     l5536:
 13467  003942  C008  FFF6         	movff	atoi@s,tblptrl
 13468  003946  C009  FFF7         	movff	atoi@s+1,tblptrh
 13469  00394A                     	if	0	;tblptru may be non-zero
 13470  00394A                     	endif
 13471  00394A                     	if	0	;tblptru may be non-zero
 13472  00394A                     	endif
 13473  00394A  0008               	tblrd		*
 13474  00394C  50F5               	movf	tablat,w,c
 13475  00394E  6E0A               	movwf	??_atoi& (0+255),c
 13476  003950  6A0B               	clrf	(??_atoi+1)& (0+255),c
 13477                           
 13478                           ; Switch on 2 bytes has been partitioned into a top level switch of size 1, and 1 sub-sw
      +                          itches
 13479                           ; Switch size 1, requested type "simple"
 13480                           ; Number of cases is 1, Range of values is 0 to 0
 13481                           ; switch strategies available:
 13482                           ; Name         Instructions Cycles
 13483                           ; simple_byte            4     3 (average)
 13484                           ;	Chosen strategy is simple_byte
 13485  003952  500B               	movf	??_atoi+1,w,c
 13486  003954  0A00               	xorlw	0	; case 0
 13487  003956  A4D8               	btfss	status,2,c
 13488  003958  D022               	goto	l5542
 13489                           
 13490                           ; Switch size 1, requested type "simple"
 13491                           ; Number of cases is 2, Range of values is 43 to 45
 13492                           ; switch strategies available:
 13493                           ; Name         Instructions Cycles
 13494                           ; simple_byte            7     4 (average)
 13495                           ;	Chosen strategy is simple_byte
 13496  00395A  500A               	movf	??_atoi,w,c
 13497  00395C  0A2B               	xorlw	43	; case 43
 13498  00395E  B4D8               	btfsc	status,2,c
 13499  003960  D7ED               	goto	l5534
 13500  003962  0A06               	xorlw	6	; case 45
 13501  003964  B4D8               	btfsc	status,2,c
 13502  003966  D7E6               	goto	l5532
 13503  003968  D01A               	goto	l5542
 13504  00396A                     l5538:
 13505  00396A  C015  F001         	movff	atoi@n,___wmul@multiplier
 13506  00396E  C016  F002         	movff	atoi@n+1,___wmul@multiplier+1
 13507  003972  0E00               	movlw	0
 13508  003974  6E04               	movwf	___wmul@multiplicand+1,c
 13509  003976  0E0A               	movlw	10
 13510  003978  6E03               	movwf	___wmul@multiplicand,c
 13511  00397A  EC84  F025         	call	___wmul	;wreg free
 13512  00397E  C008  FFF6         	movff	atoi@s,tblptrl
 13513  003982  C009  FFF7         	movff	atoi@s+1,tblptrh
 13514  003986                     	if	0	;tblptru may be non-zero
 13515  003986                     	endif
 13516  003986                     	if	0	;tblptru may be non-zero
 13517  003986                     	endif
 13518  003986  0008               	tblrd		*
 13519  003988  50F5               	movf	tablat,w,c
 13520  00398A  5E01               	subwf	?___wmul,f,c
 13521  00398C  0E00               	movlw	0
 13522  00398E  5A02               	subwfb	?___wmul+1,f,c
 13523  003990  0E30               	movlw	48
 13524  003992  2401               	addwf	?___wmul,w,c
 13525  003994  6E15               	movwf	atoi@n,c
 13526  003996  0E00               	movlw	0
 13527  003998  2002               	addwfc	?___wmul+1,w,c
 13528  00399A  6E16               	movwf	atoi@n+1,c
 13529  00399C  D7CF               	goto	l5534
 13530  00399E                     l5542:
 13531  00399E  0ED0               	movlw	208
 13532  0039A0  6E0A               	movwf	??_atoi& (0+255),c
 13533  0039A2  0EFF               	movlw	255
 13534  0039A4  6E0B               	movwf	(??_atoi+1)& (0+255),c
 13535  0039A6  C008  FFF6         	movff	atoi@s,tblptrl
 13536  0039AA  C009  FFF7         	movff	atoi@s+1,tblptrh
 13537  0039AE                     	if	0	;tblptru may be non-zero
 13538  0039AE                     	endif
 13539  0039AE                     	if	0	;tblptru may be non-zero
 13540  0039AE                     	endif
 13541  0039AE  0008               	tblrd		*
 13542  0039B0  50F5               	movf	tablat,w,c
 13543  0039B2  6E0C               	movwf	(??_atoi+2)& (0+255),c
 13544  0039B4  6A0D               	clrf	(??_atoi+3)& (0+255),c
 13545  0039B6  500A               	movf	??_atoi,w,c
 13546  0039B8  260C               	addwf	??_atoi+2,f,c
 13547  0039BA  500B               	movf	??_atoi+1,w,c
 13548  0039BC  220D               	addwfc	??_atoi+3,f,c
 13549  0039BE  500D               	movf	??_atoi+3,w,c
 13550  0039C0  E106               	bnz	u5840
 13551  0039C2  0E0A               	movlw	10
 13552  0039C4  5C0C               	subwf	??_atoi+2,w,c
 13553  0039C6  B0D8               	btfsc	status,0,c
 13554  0039C8  D002               	goto	u5840
 13555  0039CA  0E01               	movlw	1
 13556  0039CC  D001               	goto	u5850
 13557  0039CE                     u5840:
 13558  0039CE  0E00               	movlw	0
 13559  0039D0                     u5850:
 13560  0039D0  6E12               	movwf	_atoi$1599,c
 13561  0039D2  6A13               	clrf	_atoi$1599+1,c
 13562  0039D4  5012               	movf	_atoi$1599,w,c
 13563  0039D6  1013               	iorwf	_atoi$1599+1,w,c
 13564  0039D8  A4D8               	btfss	status,2,c
 13565  0039DA  D7C7               	goto	l5538
 13566  0039DC  500E               	movf	atoi@neg,w,c
 13567  0039DE  100F               	iorwf	atoi@neg+1,w,c
 13568  0039E0  A4D8               	btfss	status,2,c
 13569  0039E2  D00D               	goto	l1226
 13570  0039E4  C015  F00A         	movff	atoi@n,??_atoi
 13571  0039E8  C016  F00B         	movff	atoi@n+1,??_atoi+1
 13572  0039EC  1E0A               	comf	??_atoi,f,c
 13573  0039EE  1E0B               	comf	??_atoi+1,f,c
 13574  0039F0  4A0A               	infsnz	??_atoi,f,c
 13575  0039F2  2A0B               	incf	??_atoi+1,f,c
 13576  0039F4  C00A  F008         	movff	??_atoi,?_atoi
 13577  0039F8  C00B  F009         	movff	??_atoi+1,?_atoi+1
 13578  0039FC  0012               	return	
 13579  0039FE                     l1226:
 13580  0039FE  C015  F008         	movff	atoi@n,?_atoi
 13581  003A02  C016  F009         	movff	atoi@n+1,?_atoi+1
 13582  003A06  0012               	return		;funcret
 13583  003A08                     __end_of_atoi:
 13584                           	opt callstack 0
 13585                           
 13586 ;; *************** function _isspace *****************
 13587 ;; Defined at:
 13588 ;;		line 5 in file "C:\Program Files (x86)\Microchip\xc8\v2.05\pic\sources\c99\common\isspace.c"
 13589 ;; Parameters:    Size  Location     Type
 13590 ;;  c               2    0[COMRAM] int 
 13591 ;; Auto vars:     Size  Location     Type
 13592 ;;		None
 13593 ;; Return value:  Size  Location     Type
 13594 ;;                  2    0[COMRAM] int 
 13595 ;; Registers used:
 13596 ;;		wreg, status,2, status,0
 13597 ;; Tracked objects:
 13598 ;;		On entry : 0/0
 13599 ;;		On exit  : 0/0
 13600 ;;		Unchanged: 0/0
 13601 ;; Data sizes:     COMRAM   BANK0   BANK1   BANK2   BANK3   BANK4   BANK5   BANK6   BANK7
 13602 ;;      Params:         2       0       0       0       0       0       0       0       0
 13603 ;;      Locals:         1       0       0       0       0       0       0       0       0
 13604 ;;      Temps:          4       0       0       0       0       0       0       0       0
 13605 ;;      Totals:         7       0       0       0       0       0       0       0       0
 13606 ;;Total ram usage:        7 bytes
 13607 ;; Hardware stack levels used:    1
 13608 ;; Hardware stack levels required when called:    2
 13609 ;; This function calls:
 13610 ;;		Nothing
 13611 ;; This function is called by:
 13612 ;;		_atoi
 13613 ;; This function uses a non-reentrant model
 13614 ;;
 13615                           
 13616                           	psect	text37
 13617  0049A8                     __ptext37:
 13618                           	opt callstack 0
 13619  0049A8                     _isspace:
 13620                           	opt callstack 24
 13621                           
 13622                           ;incstack = 0
 13623  0049A8  0E01               	movlw	1
 13624  0049AA  6E07               	movwf	_isspace$1628,c
 13625  0049AC  0E20               	movlw	32
 13626  0049AE  1801               	xorwf	isspace@c,w,c
 13627  0049B0  1002               	iorwf	isspace@c+1,w,c
 13628  0049B2  B4D8               	btfsc	status,2,c
 13629  0049B4  D014               	goto	l5136
 13630  0049B6  0EF7               	movlw	247
 13631  0049B8  6E03               	movwf	??_isspace& (0+255),c
 13632  0049BA  0EFF               	movlw	255
 13633  0049BC  6E04               	movwf	(??_isspace+1)& (0+255),c
 13634  0049BE  C001  F005         	movff	isspace@c,??_isspace+2
 13635  0049C2  C002  F006         	movff	isspace@c+1,??_isspace+3
 13636  0049C6  5003               	movf	??_isspace,w,c
 13637  0049C8  2605               	addwf	??_isspace+2,f,c
 13638  0049CA  5004               	movf	??_isspace+1,w,c
 13639  0049CC  2206               	addwfc	??_isspace+3,f,c
 13640  0049CE  5006               	movf	??_isspace+3,w,c
 13641  0049D0  E104               	bnz	u5120
 13642  0049D2  0E05               	movlw	5
 13643  0049D4  5C05               	subwf	??_isspace+2,w,c
 13644  0049D6  A0D8               	btfss	status,0,c
 13645  0049D8  D002               	goto	l5136
 13646  0049DA                     u5120:
 13647  0049DA  0E00               	movlw	0
 13648  0049DC  6E07               	movwf	_isspace$1628,c
 13649  0049DE                     l5136:
 13650  0049DE  C007  F001         	movff	_isspace$1628,?_isspace
 13651  0049E2  6A02               	clrf	?_isspace+1,c
 13652  0049E4  0012               	return		;funcret
 13653  0049E6                     __end_of_isspace:
 13654                           	opt callstack 0
 13655                           
 13656 ;; *************** function _isdigit *****************
 13657 ;; Defined at:
 13658 ;;		line 5 in file "C:\Program Files (x86)\Microchip\xc8\v2.05\pic\sources\c99\common\isdigit.c"
 13659 ;; Parameters:    Size  Location     Type
 13660 ;;  c               2    0[COMRAM] int 
 13661 ;; Auto vars:     Size  Location     Type
 13662 ;;		None
 13663 ;; Return value:  Size  Location     Type
 13664 ;;                  2    0[COMRAM] int 
 13665 ;; Registers used:
 13666 ;;		wreg, status,2, status,0
 13667 ;; Tracked objects:
 13668 ;;		On entry : 0/0
 13669 ;;		On exit  : 0/0
 13670 ;;		Unchanged: 0/0
 13671 ;; Data sizes:     COMRAM   BANK0   BANK1   BANK2   BANK3   BANK4   BANK5   BANK6   BANK7
 13672 ;;      Params:         2       0       0       0       0       0       0       0       0
 13673 ;;      Locals:         0       0       0       0       0       0       0       0       0
 13674 ;;      Temps:          4       0       0       0       0       0       0       0       0
 13675 ;;      Totals:         6       0       0       0       0       0       0       0       0
 13676 ;;Total ram usage:        6 bytes
 13677 ;; Hardware stack levels used:    1
 13678 ;; Hardware stack levels required when called:    2
 13679 ;; This function calls:
 13680 ;;		Nothing
 13681 ;; This function is called by:
 13682 ;;		_vfpfcnvrt
 13683 ;;		_atoi
 13684 ;; This function uses a non-reentrant model
 13685 ;;
 13686                           
 13687                           	psect	text38
 13688  004A80                     __ptext38:
 13689                           	opt callstack 0
 13690  004A80                     _isdigit:
 13691                           	opt callstack 25
 13692                           
 13693                           ;incstack = 0
 13694  004A80  0ED0               	movlw	208
 13695  004A82  6E03               	movwf	??_isdigit& (0+255),c
 13696  004A84  0EFF               	movlw	255
 13697  004A86  6E04               	movwf	(??_isdigit+1)& (0+255),c
 13698  004A88  C001  F005         	movff	isdigit@c,??_isdigit+2
 13699  004A8C  C002  F006         	movff	isdigit@c+1,??_isdigit+3
 13700  004A90  5003               	movf	??_isdigit,w,c
 13701  004A92  2605               	addwf	??_isdigit+2,f,c
 13702  004A94  5004               	movf	??_isdigit+1,w,c
 13703  004A96  2206               	addwfc	??_isdigit+3,f,c
 13704  004A98  5006               	movf	??_isdigit+3,w,c
 13705  004A9A  E106               	bnz	u4260
 13706  004A9C  0E0A               	movlw	10
 13707  004A9E  5C05               	subwf	??_isdigit+2,w,c
 13708  004AA0  B0D8               	btfsc	status,0,c
 13709  004AA2  D002               	goto	u4260
 13710  004AA4  0E01               	movlw	1
 13711  004AA6  D001               	goto	u4270
 13712  004AA8                     u4260:
 13713  004AA8  0E00               	movlw	0
 13714  004AAA                     u4270:
 13715  004AAA  6E01               	movwf	?_isdigit,c
 13716  004AAC  6A02               	clrf	?_isdigit+1,c
 13717  004AAE  0012               	return		;funcret
 13718  004AB0                     __end_of_isdigit:
 13719                           	opt callstack 0
 13720                           
 13721 ;; *************** function ___wmul *****************
 13722 ;; Defined at:
 13723 ;;		line 15 in file "C:\Program Files (x86)\Microchip\xc8\v2.05\pic\sources\c99\common\Umul16.c"
 13724 ;; Parameters:    Size  Location     Type
 13725 ;;  multiplier      2    0[COMRAM] unsigned int 
 13726 ;;  multiplicand    2    2[COMRAM] unsigned int 
 13727 ;; Auto vars:     Size  Location     Type
 13728 ;;  product         2    4[COMRAM] unsigned int 
 13729 ;; Return value:  Size  Location     Type
 13730 ;;                  2    0[COMRAM] unsigned int 
 13731 ;; Registers used:
 13732 ;;		wreg, status,2, status,0, prodl, prodh
 13733 ;; Tracked objects:
 13734 ;;		On entry : 0/0
 13735 ;;		On exit  : 0/0
 13736 ;;		Unchanged: 0/0
 13737 ;; Data sizes:     COMRAM   BANK0   BANK1   BANK2   BANK3   BANK4   BANK5   BANK6   BANK7
 13738 ;;      Params:         4       0       0       0       0       0       0       0       0
 13739 ;;      Locals:         2       0       0       0       0       0       0       0       0
 13740 ;;      Temps:          0       0       0       0       0       0       0       0       0
 13741 ;;      Totals:         6       0       0       0       0       0       0       0       0
 13742 ;;Total ram usage:        6 bytes
 13743 ;; Hardware stack levels used:    1
 13744 ;; Hardware stack levels required when called:    2
 13745 ;; This function calls:
 13746 ;;		Nothing
 13747 ;; This function is called by:
 13748 ;;		_atoi
 13749 ;; This function uses a non-reentrant model
 13750 ;;
 13751                           
 13752                           	psect	text39
 13753  004B08                     __ptext39:
 13754                           	opt callstack 0
 13755  004B08                     ___wmul:
 13756                           	opt callstack 24
 13757                           
 13758                           ;incstack = 0
 13759  004B08  5001               	movf	___wmul@multiplier,w,c
 13760  004B0A  0203               	mulwf	___wmul@multiplicand,c
 13761  004B0C  CFF3 F005          	movff	prodl,___wmul@product
 13762  004B10  CFF4 F006          	movff	prodh,___wmul@product+1
 13763  004B14  5001               	movf	___wmul@multiplier,w,c
 13764  004B16  0204               	mulwf	___wmul@multiplicand+1,c
 13765  004B18  50F3               	movf	prodl,w,c
 13766  004B1A  2606               	addwf	___wmul@product+1,f,c
 13767  004B1C  5002               	movf	___wmul@multiplier+1,w,c
 13768  004B1E  0203               	mulwf	___wmul@multiplicand,c
 13769  004B20  50F3               	movf	prodl,w,c
 13770  004B22  2606               	addwf	___wmul@product+1,f,c
 13771  004B24  C005  F001         	movff	___wmul@product,?___wmul
 13772  004B28  C006  F002         	movff	___wmul@product+1,?___wmul+1
 13773  004B2C  0012               	return		;funcret
 13774  004B2E                     __end_of___wmul:
 13775                           	opt callstack 0
 13776                           
 13777 ;; *************** function _Lcd_Out2 *****************
 13778 ;; Defined at:
 13779 ;;		line 115 in file "./flex_lcd.h"
 13780 ;; Parameters:    Size  Location     Type
 13781 ;;  y               1    wreg     unsigned char 
 13782 ;;  x               1    3[COMRAM] unsigned char 
 13783 ;;  buffer          2    4[COMRAM] PTR unsigned char 
 13784 ;;		 -> clean_rooms@uso_local2(17), clean_rooms@uso_local(17), pago_de_Habitaciones@uso_local2(17), pago_de_Habitaciones
      +@uso_local(17), 
 13785 ;;		 -> palabra3(17), palabra2(17), palabra1(17), palabra(17), 
 13786 ;; Auto vars:     Size  Location     Type
 13787 ;;  y               1    8[COMRAM] unsigned char 
 13788 ;;  data            1    9[COMRAM] unsigned char 
 13789 ;; Return value:  Size  Location     Type
 13790 ;;                  1    wreg      void 
 13791 ;; Registers used:
 13792 ;;		wreg, fsr2l, fsr2h, status,2, status,0, cstack
 13793 ;; Tracked objects:
 13794 ;;		On entry : 0/0
 13795 ;;		On exit  : 0/0
 13796 ;;		Unchanged: 0/0
 13797 ;; Data sizes:     COMRAM   BANK0   BANK1   BANK2   BANK3   BANK4   BANK5   BANK6   BANK7
 13798 ;;      Params:         3       0       0       0       0       0       0       0       0
 13799 ;;      Locals:         2       0       0       0       0       0       0       0       0
 13800 ;;      Temps:          2       0       0       0       0       0       0       0       0
 13801 ;;      Totals:         7       0       0       0       0       0       0       0       0
 13802 ;;Total ram usage:        7 bytes
 13803 ;; Hardware stack levels used:    1
 13804 ;; Hardware stack levels required when called:    3
 13805 ;; This function calls:
 13806 ;;		_Lcd_Chr_CP
 13807 ;;		_Lcd_Cmd
 13808 ;; This function is called by:
 13809 ;;		_main
 13810 ;;		_pago_de_Habitaciones
 13811 ;;		_clean_rooms
 13812 ;;		_opciones
 13813 ;; This function uses a non-reentrant model
 13814 ;;
 13815                           
 13816                           	psect	text40
 13817  00469A                     __ptext40:
 13818                           	opt callstack 0
 13819  00469A                     _Lcd_Out2:
 13820                           	opt callstack 26
 13821                           
 13822                           ;incstack = 0
 13823                           ;Lcd_Out2@y stored from wreg
 13824  00469A  6E09               	movwf	Lcd_Out2@y,c
 13825                           
 13826                           ;./flex_lcd.h: 115: void Lcd_Out2(unsigned char y, unsigned char x, char *buffer);./flex
      +                          _lcd.h: 116: {;./flex_lcd.h: 117: unsigned char data;;./flex_lcd.h: 118: switch (y)
 13827  00469C  D00D               	goto	l5776
 13828  00469E                     l5766:
 13829  00469E  5004               	movf	Lcd_Out2@x,w,c
 13830  0046A0  0F80               	addlw	128
 13831  0046A2  D008               	goto	L20
 13832  0046A4                     l5768:
 13833  0046A4  5004               	movf	Lcd_Out2@x,w,c
 13834  0046A6  0FC0               	addlw	192
 13835  0046A8  D005               	goto	L20
 13836  0046AA                     l5770:
 13837  0046AA  5004               	movf	Lcd_Out2@x,w,c
 13838  0046AC  0F94               	addlw	148
 13839  0046AE  D002               	goto	L20
 13840  0046B0                     l5772:
 13841  0046B0  5004               	movf	Lcd_Out2@x,w,c
 13842  0046B2  0FD4               	addlw	212
 13843  0046B4                     L20:
 13844  0046B4  6E0A               	movwf	Lcd_Out2@data,c
 13845  0046B6  D014               	goto	l5778
 13846  0046B8                     l5776:
 13847  0046B8  5009               	movf	Lcd_Out2@y,w,c
 13848  0046BA  6E07               	movwf	??_Lcd_Out2& (0+255),c
 13849  0046BC  6A08               	clrf	(??_Lcd_Out2+1)& (0+255),c
 13850                           
 13851                           ; Switch on 2 bytes has been partitioned into a top level switch of size 1, and 1 sub-sw
      +                          itches
 13852                           ; Switch size 1, requested type "simple"
 13853                           ; Number of cases is 1, Range of values is 0 to 0
 13854                           ; switch strategies available:
 13855                           ; Name         Instructions Cycles
 13856                           ; simple_byte            4     3 (average)
 13857                           ;	Chosen strategy is simple_byte
 13858  0046BE  5008               	movf	??_Lcd_Out2+1,w,c
 13859  0046C0  0A00               	xorlw	0	; case 0
 13860  0046C2  A4D8               	btfss	status,2,c
 13861  0046C4  D00D               	goto	l5778
 13862                           
 13863                           ; Switch size 1, requested type "simple"
 13864                           ; Number of cases is 4, Range of values is 1 to 4
 13865                           ; switch strategies available:
 13866                           ; Name         Instructions Cycles
 13867                           ; simple_byte           13     7 (average)
 13868                           ;	Chosen strategy is simple_byte
 13869  0046C6  5007               	movf	??_Lcd_Out2,w,c
 13870  0046C8  0A01               	xorlw	1	; case 1
 13871  0046CA  B4D8               	btfsc	status,2,c
 13872  0046CC  D7E8               	goto	l5766
 13873  0046CE  0A03               	xorlw	3	; case 2
 13874  0046D0  B4D8               	btfsc	status,2,c
 13875  0046D2  D7E8               	goto	l5768
 13876  0046D4  0A01               	xorlw	1	; case 3
 13877  0046D6  B4D8               	btfsc	status,2,c
 13878  0046D8  D7E8               	goto	l5770
 13879  0046DA  0A07               	xorlw	7	; case 4
 13880  0046DC  B4D8               	btfsc	status,2,c
 13881  0046DE  D7E8               	goto	l5772
 13882  0046E0                     l5778:
 13883                           
 13884                           ;./flex_lcd.h: 126: Lcd_Cmd(data);
 13885  0046E0  500A               	movf	Lcd_Out2@data,w,c
 13886  0046E2  EC28  F01E         	call	_Lcd_Cmd
 13887                           
 13888                           ;./flex_lcd.h: 127: while(*buffer)
 13889  0046E6  D009               	goto	l5784
 13890  0046E8                     l5780:
 13891                           
 13892                           ;./flex_lcd.h: 128: {;./flex_lcd.h: 129:     Lcd_Chr_CP(*buffer);
 13893  0046E8  C005  FFD9         	movff	Lcd_Out2@buffer,fsr2l
 13894  0046EC  C006  FFDA         	movff	Lcd_Out2@buffer+1,fsr2h
 13895  0046F0  50DF               	movf	indf2,w,c
 13896  0046F2  EC96  F01D         	call	_Lcd_Chr_CP
 13897                           
 13898                           ;./flex_lcd.h: 130:     buffer++;
 13899  0046F6  4A05               	infsnz	Lcd_Out2@buffer,f,c
 13900  0046F8  2A06               	incf	Lcd_Out2@buffer+1,f,c
 13901  0046FA                     l5784:
 13902                           
 13903                           ;./flex_lcd.h: 127: while(*buffer)
 13904  0046FA  C005  FFD9         	movff	Lcd_Out2@buffer,fsr2l
 13905  0046FE  C006  FFDA         	movff	Lcd_Out2@buffer+1,fsr2h
 13906  004702  50DF               	movf	indf2,w,c
 13907  004704  B4D8               	btfsc	status,2,c
 13908  004706  0012               	return	
 13909  004708  D7EF               	goto	l5780
 13910  00470A                     __end_of_Lcd_Out2:
 13911                           	opt callstack 0
 13912                           
 13913 ;; *************** function _Lcd_Out *****************
 13914 ;; Defined at:
 13915 ;;		line 94 in file "./flex_lcd.h"
 13916 ;; Parameters:    Size  Location     Type
 13917 ;;  y               1    wreg     unsigned char 
 13918 ;;  x               1    3[COMRAM] unsigned char 
 13919 ;;  buffer          2    4[COMRAM] PTR const unsigned char 
 13920 ;;		 -> STR_99(16), STR_98(16), STR_97(15), STR_96(10), 
 13921 ;;		 -> STR_95(16), STR_94(16), STR_93(13), STR_92(15), 
 13922 ;;		 -> STR_91(13), STR_90(13), STR_88(16), STR_87(12), 
 13923 ;;		 -> STR_86(10), STR_85(8), STR_84(16), STR_83(9), 
 13924 ;;		 -> STR_82(13), STR_81(13), STR_78(11), STR_77(5), 
 13925 ;;		 -> STR_76(15), STR_75(13), STR_73(16), STR_72(16), 
 13926 ;;		 -> STR_71(12), STR_70(9), STR_67(8), STR_65(11), 
 13927 ;;		 -> STR_64(11), STR_63(7), STR_62(7), STR_61(5), 
 13928 ;;		 -> STR_60(12), STR_59(12), STR_58(10), STR_57(16), 
 13929 ;;		 -> STR_56(5), STR_55(7), STR_54(11), STR_53(12), 
 13930 ;;		 -> STR_52(10), STR_51(16), STR_50(5), STR_49(9), 
 13931 ;;		 -> STR_48(11), STR_47(12), STR_46(10), STR_45(16), 
 13932 ;;		 -> STR_44(5), STR_43(7), STR_42(11), STR_41(16), 
 13933 ;;		 -> STR_40(16), STR_39(15), STR_38(10), STR_37(16), 
 13934 ;;		 -> STR_36(16), STR_35(13), STR_34(15), STR_33(13), 
 13935 ;;		 -> STR_32(13), STR_30(16), STR_29(12), STR_28(10), 
 13936 ;;		 -> STR_27(8), STR_26(16), STR_25(9), STR_24(16), 
 13937 ;;		 -> STR_23(11), STR_21(15), STR_19(13), STR_17(14), 
 13938 ;;		 -> STR_15(12), STR_14(13), STR_13(14), STR_12(6), 
 13939 ;;		 -> STR_11(15), STR_10(16), STR_9(15), STR_8(14), 
 13940 ;;		 -> STR_7(17), STR_6(17), STR_5(17), STR_4(8), 
 13941 ;;		 -> STR_3(16), STR_2(15), STR_1(15), 
 13942 ;; Auto vars:     Size  Location     Type
 13943 ;;  y               1    8[COMRAM] unsigned char 
 13944 ;;  data            1    9[COMRAM] unsigned char 
 13945 ;; Return value:  Size  Location     Type
 13946 ;;                  1    wreg      void 
 13947 ;; Registers used:
 13948 ;;		wreg, status,2, status,0, tblptrl, tblptrh, tblptru, cstack
 13949 ;; Tracked objects:
 13950 ;;		On entry : 0/0
 13951 ;;		On exit  : 0/0
 13952 ;;		Unchanged: 0/0
 13953 ;; Data sizes:     COMRAM   BANK0   BANK1   BANK2   BANK3   BANK4   BANK5   BANK6   BANK7
 13954 ;;      Params:         3       0       0       0       0       0       0       0       0
 13955 ;;      Locals:         2       0       0       0       0       0       0       0       0
 13956 ;;      Temps:          2       0       0       0       0       0       0       0       0
 13957 ;;      Totals:         7       0       0       0       0       0       0       0       0
 13958 ;;Total ram usage:        7 bytes
 13959 ;; Hardware stack levels used:    1
 13960 ;; Hardware stack levels required when called:    3
 13961 ;; This function calls:
 13962 ;;		_Lcd_Chr_CP
 13963 ;;		_Lcd_Cmd
 13964 ;; This function is called by:
 13965 ;;		_main
 13966 ;;		_pago_de_Habitaciones
 13967 ;;		_clean_rooms
 13968 ;;		_opciones
 13969 ;; This function uses a non-reentrant model
 13970 ;;
 13971                           
 13972                           	psect	text41
 13973  0045B4                     __ptext41:
 13974                           	opt callstack 0
 13975  0045B4                     _Lcd_Out:
 13976                           	opt callstack 26
 13977                           
 13978                           ;incstack = 0
 13979                           ;Lcd_Out@y stored from wreg
 13980  0045B4  6E09               	movwf	Lcd_Out@y,c
 13981                           
 13982                           ;./flex_lcd.h: 94: void Lcd_Out(unsigned char y, unsigned char x, const char *buffer);./
      +                          flex_lcd.h: 95: {;./flex_lcd.h: 96: unsigned char data;;./flex_lcd.h: 97: switch (y)
 13983  0045B6  D00D               	goto	l5750
 13984  0045B8                     l5740:
 13985  0045B8  5004               	movf	Lcd_Out@x,w,c
 13986  0045BA  0F80               	addlw	128
 13987  0045BC  D008               	goto	L23
 13988  0045BE                     l5742:
 13989  0045BE  5004               	movf	Lcd_Out@x,w,c
 13990  0045C0  0FC0               	addlw	192
 13991  0045C2  D005               	goto	L23
 13992  0045C4                     l5744:
 13993  0045C4  5004               	movf	Lcd_Out@x,w,c
 13994  0045C6  0F94               	addlw	148
 13995  0045C8  D002               	goto	L23
 13996  0045CA                     l5746:
 13997  0045CA  5004               	movf	Lcd_Out@x,w,c
 13998  0045CC  0FD4               	addlw	212
 13999  0045CE                     L23:
 14000  0045CE  6E0A               	movwf	Lcd_Out@data,c
 14001  0045D0  D014               	goto	l5752
 14002  0045D2                     l5750:
 14003  0045D2  5009               	movf	Lcd_Out@y,w,c
 14004  0045D4  6E07               	movwf	??_Lcd_Out& (0+255),c
 14005  0045D6  6A08               	clrf	(??_Lcd_Out+1)& (0+255),c
 14006                           
 14007                           ; Switch on 2 bytes has been partitioned into a top level switch of size 1, and 1 sub-sw
      +                          itches
 14008                           ; Switch size 1, requested type "simple"
 14009                           ; Number of cases is 1, Range of values is 0 to 0
 14010                           ; switch strategies available:
 14011                           ; Name         Instructions Cycles
 14012                           ; simple_byte            4     3 (average)
 14013                           ;	Chosen strategy is simple_byte
 14014  0045D8  5008               	movf	??_Lcd_Out+1,w,c
 14015  0045DA  0A00               	xorlw	0	; case 0
 14016  0045DC  A4D8               	btfss	status,2,c
 14017  0045DE  D00D               	goto	l5752
 14018                           
 14019                           ; Switch size 1, requested type "simple"
 14020                           ; Number of cases is 4, Range of values is 1 to 4
 14021                           ; switch strategies available:
 14022                           ; Name         Instructions Cycles
 14023                           ; simple_byte           13     7 (average)
 14024                           ;	Chosen strategy is simple_byte
 14025  0045E0  5007               	movf	??_Lcd_Out,w,c
 14026  0045E2  0A01               	xorlw	1	; case 1
 14027  0045E4  B4D8               	btfsc	status,2,c
 14028  0045E6  D7E8               	goto	l5740
 14029  0045E8  0A03               	xorlw	3	; case 2
 14030  0045EA  B4D8               	btfsc	status,2,c
 14031  0045EC  D7E8               	goto	l5742
 14032  0045EE  0A01               	xorlw	1	; case 3
 14033  0045F0  B4D8               	btfsc	status,2,c
 14034  0045F2  D7E8               	goto	l5744
 14035  0045F4  0A07               	xorlw	7	; case 4
 14036  0045F6  B4D8               	btfsc	status,2,c
 14037  0045F8  D7E8               	goto	l5746
 14038  0045FA                     l5752:
 14039                           
 14040                           ;./flex_lcd.h: 105: Lcd_Cmd(data);
 14041  0045FA  500A               	movf	Lcd_Out@data,w,c
 14042  0045FC  EC28  F01E         	call	_Lcd_Cmd
 14043                           
 14044                           ;./flex_lcd.h: 106: while(*buffer)
 14045  004600  D00A               	goto	l5758
 14046  004602                     l5754:
 14047                           
 14048                           ;./flex_lcd.h: 107: {;./flex_lcd.h: 108:     Lcd_Chr_CP(*buffer);
 14049  004602  C005  FFF6         	movff	Lcd_Out@buffer,tblptrl
 14050  004606  C006  FFF7         	movff	Lcd_Out@buffer+1,tblptrh
 14051  00460A                     	if	0	;tblptru may be non-zero
 14052  00460A                     	endif
 14053  00460A                     	if	0	;tblptru may be non-zero
 14054  00460A                     	endif
 14055  00460A  0008               	tblrd		*
 14056  00460C  50F5               	movf	tablat,w,c
 14057  00460E  EC96  F01D         	call	_Lcd_Chr_CP
 14058                           
 14059                           ;./flex_lcd.h: 109:     buffer++;
 14060  004612  4A05               	infsnz	Lcd_Out@buffer,f,c
 14061  004614  2A06               	incf	Lcd_Out@buffer+1,f,c
 14062  004616                     l5758:
 14063                           
 14064                           ;./flex_lcd.h: 106: while(*buffer)
 14065  004616  C005  FFF6         	movff	Lcd_Out@buffer,tblptrl
 14066  00461A  C006  FFF7         	movff	Lcd_Out@buffer+1,tblptrh
 14067  00461E                     	if	0	;tblptru may be non-zero
 14068  00461E                     	endif
 14069  00461E                     	if	0	;tblptru may be non-zero
 14070  00461E                     	endif
 14071  00461E  0008               	tblrd		*
 14072  004620  50F5               	movf	tablat,w,c
 14073  004622  0900               	iorlw	0
 14074  004624  B4D8               	btfsc	status,2,c
 14075  004626  0012               	return	
 14076  004628  D7EC               	goto	l5754
 14077  00462A                     __end_of_Lcd_Out:
 14078                           	opt callstack 0
 14079                           
 14080 ;; *************** function _Lcd_Chr_CP *****************
 14081 ;; Defined at:
 14082 ;;		line 136 in file "./flex_lcd.h"
 14083 ;; Parameters:    Size  Location     Type
 14084 ;;  data            1    wreg     unsigned char 
 14085 ;; Auto vars:     Size  Location     Type
 14086 ;;  data            1    2[COMRAM] unsigned char 
 14087 ;; Return value:  Size  Location     Type
 14088 ;;                  1    wreg      void 
 14089 ;; Registers used:
 14090 ;;		wreg, status,2, status,0
 14091 ;; Tracked objects:
 14092 ;;		On entry : 0/0
 14093 ;;		On exit  : 0/0
 14094 ;;		Unchanged: 0/0
 14095 ;; Data sizes:     COMRAM   BANK0   BANK1   BANK2   BANK3   BANK4   BANK5   BANK6   BANK7
 14096 ;;      Params:         0       0       0       0       0       0       0       0       0
 14097 ;;      Locals:         1       0       0       0       0       0       0       0       0
 14098 ;;      Temps:          2       0       0       0       0       0       0       0       0
 14099 ;;      Totals:         3       0       0       0       0       0       0       0       0
 14100 ;;Total ram usage:        3 bytes
 14101 ;; Hardware stack levels used:    1
 14102 ;; Hardware stack levels required when called:    2
 14103 ;; This function calls:
 14104 ;;		Nothing
 14105 ;; This function is called by:
 14106 ;;		_Lcd_Out
 14107 ;;		_Lcd_Out2
 14108 ;; This function uses a non-reentrant model
 14109 ;;
 14110                           
 14111                           	psect	text42
 14112  003B2C                     __ptext42:
 14113                           	opt callstack 0
 14114  003B2C                     _Lcd_Chr_CP:
 14115                           	opt callstack 26
 14116                           
 14117                           ;incstack = 0
 14118                           ;Lcd_Chr_CP@data stored from wreg
 14119  003B2C  6E03               	movwf	Lcd_Chr_CP@data,c
 14120                           
 14121                           ;./flex_lcd.h: 137: PORTDbits.RD5 = 0; PORTDbits.RD4 = 1;
 14122  003B2E  9A83               	bcf	3971,5,c	;volatile
 14123  003B30  8883               	bsf	3971,4,c	;volatile
 14124                           
 14125                           ;./flex_lcd.h: 138: PORTDbits.RD3 = (data & 0b10000000)>>7; PORTDbits.RD2 = (data & 0b01
      +                          000000)>>6;
 14126  003B32  6A01               	clrf	??_Lcd_Chr_CP& (0+255),c
 14127  003B34  AE03               	btfss	Lcd_Chr_CP@data,7,c
 14128  003B36  D001               	bra	u6135
 14129  003B38  2A01               	incf	??_Lcd_Chr_CP& (0+255),f,c
 14130  003B3A                     u6135:
 14131  003B3A  0E01               	movlw	1
 14132  003B3C  1601               	andwf	??_Lcd_Chr_CP,f,c
 14133  003B3E  4601               	rlncf	??_Lcd_Chr_CP,f,c
 14134  003B40  4601               	rlncf	??_Lcd_Chr_CP,f,c
 14135  003B42  4601               	rlncf	??_Lcd_Chr_CP,f,c
 14136  003B44  5083               	movf	3971,w,c	;volatile
 14137  003B46  1801               	xorwf	??_Lcd_Chr_CP,w,c
 14138  003B48  0BF7               	andlw	-9
 14139  003B4A  1801               	xorwf	??_Lcd_Chr_CP,w,c
 14140  003B4C  6E83               	movwf	3971,c	;volatile
 14141  003B4E  C003  F001         	movff	Lcd_Chr_CP@data,??_Lcd_Chr_CP
 14142  003B52  0E06               	movlw	6
 14143  003B54  6E02               	movwf	(??_Lcd_Chr_CP+1)& (0+255),c
 14144  003B56                     u6145:
 14145  003B56  90D8               	bcf	status,0,c
 14146  003B58  3201               	rrcf	??_Lcd_Chr_CP,f,c
 14147  003B5A  2E02               	decfsz	(??_Lcd_Chr_CP+1)& (0+255),f,c
 14148  003B5C  D7FC               	goto	u6145
 14149  003B5E  0E01               	movlw	1
 14150  003B60  1601               	andwf	??_Lcd_Chr_CP,f,c
 14151  003B62  4601               	rlncf	??_Lcd_Chr_CP,f,c
 14152  003B64  4601               	rlncf	??_Lcd_Chr_CP,f,c
 14153  003B66  5083               	movf	3971,w,c	;volatile
 14154  003B68  1801               	xorwf	??_Lcd_Chr_CP,w,c
 14155  003B6A  0BFB               	andlw	-5
 14156  003B6C  1801               	xorwf	??_Lcd_Chr_CP,w,c
 14157  003B6E  6E83               	movwf	3971,c	;volatile
 14158                           
 14159                           ;./flex_lcd.h: 139: PORTDbits.RD1 = (data & 0b00100000)>>5; PORTDbits.RD0 = (data & 0b00
      +                          010000)>>4;
 14160  003B70  C003  F001         	movff	Lcd_Chr_CP@data,??_Lcd_Chr_CP
 14161  003B74  0E05               	movlw	5
 14162  003B76  6E02               	movwf	(??_Lcd_Chr_CP+1)& (0+255),c
 14163  003B78                     u6155:
 14164  003B78  90D8               	bcf	status,0,c
 14165  003B7A  3201               	rrcf	??_Lcd_Chr_CP,f,c
 14166  003B7C  2E02               	decfsz	(??_Lcd_Chr_CP+1)& (0+255),f,c
 14167  003B7E  D7FC               	goto	u6155
 14168  003B80  0E01               	movlw	1
 14169  003B82  1601               	andwf	??_Lcd_Chr_CP,f,c
 14170  003B84  4601               	rlncf	??_Lcd_Chr_CP,f,c
 14171  003B86  5083               	movf	3971,w,c	;volatile
 14172  003B88  1801               	xorwf	??_Lcd_Chr_CP,w,c
 14173  003B8A  0BFD               	andlw	-3
 14174  003B8C  1801               	xorwf	??_Lcd_Chr_CP,w,c
 14175  003B8E  6E83               	movwf	3971,c	;volatile
 14176  003B90  C003  F001         	movff	Lcd_Chr_CP@data,??_Lcd_Chr_CP
 14177  003B94  3A01               	swapf	??_Lcd_Chr_CP,f,c
 14178  003B96  0E0F               	movlw	15
 14179  003B98  1601               	andwf	??_Lcd_Chr_CP,f,c
 14180  003B9A  0E01               	movlw	1
 14181  003B9C  1601               	andwf	??_Lcd_Chr_CP,f,c
 14182  003B9E  5083               	movf	3971,w,c	;volatile
 14183  003BA0  1801               	xorwf	??_Lcd_Chr_CP,w,c
 14184  003BA2  0BFE               	andlw	-2
 14185  003BA4  1801               	xorwf	??_Lcd_Chr_CP,w,c
 14186  003BA6  6E83               	movwf	3971,c	;volatile
 14187                           
 14188                           ;./flex_lcd.h: 140: _delay(10);
 14189  003BA8  0E03               	movlw	3
 14190  003BAA                     u8187:
 14191  003BAA  2EE8               	decfsz	wreg,f,c
 14192  003BAC  D7FE               	bra	u8187
 14193  003BAE  F000               	nop	
 14194                           
 14195                           ;./flex_lcd.h: 141: PORTDbits.RD5 = 1; _delay((unsigned long)((5)*(12000000/4000000.0)))
      +                          ; PORTDbits.RD5 = 0;
 14196  003BB0  8A83               	bsf	3971,5,c	;volatile
 14197  003BB2  0E05               	movlw	5
 14198  003BB4                     u8197:
 14199  003BB4  2EE8               	decfsz	wreg,f,c
 14200  003BB6  D7FE               	bra	u8197
 14201  003BB8  9A83               	bcf	3971,5,c	;volatile
 14202                           
 14203                           ;./flex_lcd.h: 142: PORTDbits.RD3 = (data & 0b00001000)>>3; PORTDbits.RD2 = (data & 0b00
      +                          000100)>>2;
 14204  003BBA  C003  F001         	movff	Lcd_Chr_CP@data,??_Lcd_Chr_CP
 14205  003BBE  90D8               	bcf	status,0,c
 14206  003BC0  3201               	rrcf	??_Lcd_Chr_CP,f,c
 14207  003BC2  90D8               	bcf	status,0,c
 14208  003BC4  3201               	rrcf	??_Lcd_Chr_CP,f,c
 14209  003BC6  90D8               	bcf	status,0,c
 14210  003BC8  3201               	rrcf	??_Lcd_Chr_CP,f,c
 14211  003BCA  0E01               	movlw	1
 14212  003BCC  1601               	andwf	??_Lcd_Chr_CP,f,c
 14213  003BCE  4601               	rlncf	??_Lcd_Chr_CP,f,c
 14214  003BD0  4601               	rlncf	??_Lcd_Chr_CP,f,c
 14215  003BD2  4601               	rlncf	??_Lcd_Chr_CP,f,c
 14216  003BD4  5083               	movf	3971,w,c	;volatile
 14217  003BD6  1801               	xorwf	??_Lcd_Chr_CP,w,c
 14218  003BD8  0BF7               	andlw	-9
 14219  003BDA  1801               	xorwf	??_Lcd_Chr_CP,w,c
 14220  003BDC  6E83               	movwf	3971,c	;volatile
 14221  003BDE  C003  F001         	movff	Lcd_Chr_CP@data,??_Lcd_Chr_CP
 14222  003BE2  90D8               	bcf	status,0,c
 14223  003BE4  3201               	rrcf	??_Lcd_Chr_CP,f,c
 14224  003BE6  90D8               	bcf	status,0,c
 14225  003BE8  3201               	rrcf	??_Lcd_Chr_CP,f,c
 14226  003BEA  0E01               	movlw	1
 14227  003BEC  1601               	andwf	??_Lcd_Chr_CP,f,c
 14228  003BEE  4601               	rlncf	??_Lcd_Chr_CP,f,c
 14229  003BF0  4601               	rlncf	??_Lcd_Chr_CP,f,c
 14230  003BF2  5083               	movf	3971,w,c	;volatile
 14231  003BF4  1801               	xorwf	??_Lcd_Chr_CP,w,c
 14232  003BF6  0BFB               	andlw	-5
 14233  003BF8  1801               	xorwf	??_Lcd_Chr_CP,w,c
 14234  003BFA  6E83               	movwf	3971,c	;volatile
 14235                           
 14236                           ;./flex_lcd.h: 143: PORTDbits.RD1 = (data & 0b00000010)>>1; PORTDbits.RD0 = (data & 0b00
      +                          000001);
 14237  003BFC  C003  F001         	movff	Lcd_Chr_CP@data,??_Lcd_Chr_CP
 14238  003C00  90D8               	bcf	status,0,c
 14239  003C02  3201               	rrcf	??_Lcd_Chr_CP,f,c
 14240  003C04  0E01               	movlw	1
 14241  003C06  1601               	andwf	??_Lcd_Chr_CP,f,c
 14242  003C08  4601               	rlncf	??_Lcd_Chr_CP,f,c
 14243  003C0A  5083               	movf	3971,w,c	;volatile
 14244  003C0C  1801               	xorwf	??_Lcd_Chr_CP,w,c
 14245  003C0E  0BFD               	andlw	-3
 14246  003C10  1801               	xorwf	??_Lcd_Chr_CP,w,c
 14247  003C12  6E83               	movwf	3971,c	;volatile
 14248  003C14  C003  F001         	movff	Lcd_Chr_CP@data,??_Lcd_Chr_CP
 14249  003C18  0E01               	movlw	1
 14250  003C1A  1601               	andwf	??_Lcd_Chr_CP,f,c
 14251  003C1C  5083               	movf	3971,w,c	;volatile
 14252  003C1E  1801               	xorwf	??_Lcd_Chr_CP,w,c
 14253  003C20  0BFE               	andlw	-2
 14254  003C22  1801               	xorwf	??_Lcd_Chr_CP,w,c
 14255  003C24  6E83               	movwf	3971,c	;volatile
 14256                           
 14257                           ;./flex_lcd.h: 144: _delay(10);
 14258  003C26  0E03               	movlw	3
 14259  003C28                     u8207:
 14260  003C28  2EE8               	decfsz	wreg,f,c
 14261  003C2A  D7FE               	bra	u8207
 14262  003C2C  F000               	nop	
 14263                           
 14264                           ;./flex_lcd.h: 145: PORTDbits.RD5 = 1; _delay((unsigned long)((5)*(12000000/4000000.0)))
      +                          ; PORTDbits.RD5 = 0;
 14265  003C2E  8A83               	bsf	3971,5,c	;volatile
 14266  003C30  0E05               	movlw	5
 14267  003C32                     u8217:
 14268  003C32  2EE8               	decfsz	wreg,f,c
 14269  003C34  D7FE               	bra	u8217
 14270  003C36  9A83               	bcf	3971,5,c	;volatile
 14271                           
 14272                           ;./flex_lcd.h: 146: _delay((unsigned long)((5)*(12000000/4000000.0))); _delay((unsigned 
      +                          long)((5500)*(12000000/4000000.0)));
 14273  003C38  0E05               	movlw	5
 14274  003C3A                     u8227:
 14275  003C3A  2EE8               	decfsz	wreg,f,c
 14276  003C3C  D7FE               	bra	u8227
 14277  003C3E  0E16               	movlw	22
 14278  003C40  6E01               	movwf	??_Lcd_Chr_CP& (0+255),c
 14279  003C42  0E6C               	movlw	108
 14280  003C44                     u8237:
 14281  003C44  2EE8               	decfsz	wreg,f,c
 14282  003C46  D7FE               	bra	u8237
 14283  003C48  2E01               	decfsz	??_Lcd_Chr_CP& (0+255),f,c
 14284  003C4A  D7FC               	bra	u8237
 14285  003C4C  D000               	nop2	
 14286  003C4E  0012               	return		;funcret
 14287  003C50                     __end_of_Lcd_Chr_CP:
 14288                           	opt callstack 0
 14289                           
 14290 ;; *************** function _envio_UART_Tx *****************
 14291 ;; Defined at:
 14292 ;;		line 526 in file "Proyecto_SSE1_13_05.c"
 14293 ;; Parameters:    Size  Location     Type
 14294 ;;  Tx              1    wreg     unsigned char 
 14295 ;;  informacion     1    1[COMRAM] unsigned char 
 14296 ;;  lugar           2    2[COMRAM] int 
 14297 ;; Auto vars:     Size  Location     Type
 14298 ;;  Tx              1    6[COMRAM] unsigned char 
 14299 ;; Return value:  Size  Location     Type
 14300 ;;                  1    wreg      void 
 14301 ;; Registers used:
 14302 ;;		wreg, status,2, status,0, cstack
 14303 ;; Tracked objects:
 14304 ;;		On entry : 0/0
 14305 ;;		On exit  : 0/0
 14306 ;;		Unchanged: 0/0
 14307 ;; Data sizes:     COMRAM   BANK0   BANK1   BANK2   BANK3   BANK4   BANK5   BANK6   BANK7
 14308 ;;      Params:         3       0       0       0       0       0       0       0       0
 14309 ;;      Locals:         1       0       0       0       0       0       0       0       0
 14310 ;;      Temps:          2       0       0       0       0       0       0       0       0
 14311 ;;      Totals:         6       0       0       0       0       0       0       0       0
 14312 ;;Total ram usage:        6 bytes
 14313 ;; Hardware stack levels used:    1
 14314 ;; Hardware stack levels required when called:    3
 14315 ;; This function calls:
 14316 ;;		_UART_Tx
 14317 ;; This function is called by:
 14318 ;;		_main
 14319 ;; This function uses a non-reentrant model
 14320 ;;
 14321                           
 14322                           	psect	text43
 14323  00470A                     __ptext43:
 14324                           	opt callstack 0
 14325  00470A                     _envio_UART_Tx:
 14326                           	opt callstack 27
 14327                           
 14328                           ;incstack = 0
 14329                           ;envio_UART_Tx@Tx stored from wreg
 14330  00470A  6E07               	movwf	envio_UART_Tx@Tx,c
 14331                           
 14332                           ;Proyecto_SSE1_13_05.c: 527:     switch(lugar){
 14333  00470C  D01F               	goto	l6222
 14334  00470E                     l6204:
 14335                           
 14336                           ;Proyecto_SSE1_13_05.c: 529:             LATE=0b111;
 14337  00470E  0E07               	movlw	7
 14338  004710  6E8D               	movwf	3981,c	;volatile
 14339                           
 14340                           ;Proyecto_SSE1_13_05.c: 530:             informacion+=Tx;
 14341  004712  5007               	movf	envio_UART_Tx@Tx,w,c
 14342  004714  2602               	addwf	envio_UART_Tx@informacion,f,c
 14343                           
 14344                           ;Proyecto_SSE1_13_05.c: 531:             UART_Tx(informacion);
 14345  004716  5002               	movf	envio_UART_Tx@informacion,w,c
 14346  004718  ECA6  F025         	call	_UART_Tx
 14347                           
 14348                           ;Proyecto_SSE1_13_05.c: 532:             _delay((unsigned long)((100)*(12000000/4000.0))
      +                          );
 14349  00471C  0E02               	movlw	2
 14350  00471E  6E06               	movwf	(??_envio_UART_Tx+1)& (0+255),c
 14351  004720  0E86               	movlw	134
 14352  004722  6E05               	movwf	??_envio_UART_Tx& (0+255),c
 14353  004724  0E99               	movlw	153
 14354  004726                     u8247:
 14355  004726  2EE8               	decfsz	wreg,f,c
 14356  004728  D7FE               	bra	u8247
 14357  00472A  2E05               	decfsz	??_envio_UART_Tx& (0+255),f,c
 14358  00472C  D7FC               	bra	u8247
 14359  00472E  2E06               	decfsz	(??_envio_UART_Tx+1)& (0+255),f,c
 14360  004730  D7FA               	bra	u8247
 14361  004732  F000               	nop	
 14362                           
 14363                           ;Proyecto_SSE1_13_05.c: 533:             LATE=0b000;
 14364  004734  0E00               	movlw	0
 14365  004736  6E8D               	movwf	3981,c	;volatile
 14366                           
 14367                           ;Proyecto_SSE1_13_05.c: 534:             break;
 14368  004738  0012               	return	
 14369  00473A                     l6214:
 14370                           
 14371                           ;Proyecto_SSE1_13_05.c: 537:             LATE=0b110;
 14372  00473A  0E06               	movlw	6
 14373  00473C  6E8D               	movwf	3981,c	;volatile
 14374                           
 14375                           ;Proyecto_SSE1_13_05.c: 538:             break;
 14376  00473E  0012               	return	
 14377  004740                     l6216:
 14378                           
 14379                           ;Proyecto_SSE1_13_05.c: 541:             LATE=0b101;
 14380  004740  0E05               	movlw	5
 14381  004742  6E8D               	movwf	3981,c	;volatile
 14382                           
 14383                           ;Proyecto_SSE1_13_05.c: 542:             break;
 14384  004744  0012               	return	
 14385  004746                     l6218:
 14386                           
 14387                           ;Proyecto_SSE1_13_05.c: 545:             LATE=0b100;
 14388  004746  0E04               	movlw	4
 14389  004748  6E8D               	movwf	3981,c	;volatile
 14390                           
 14391                           ;Proyecto_SSE1_13_05.c: 546:             break;
 14392  00474A  0012               	return	
 14393  00474C                     l6222:
 14394  00474C  C003  F005         	movff	envio_UART_Tx@lugar,??_envio_UART_Tx
 14395  004750  C004  F006         	movff	envio_UART_Tx@lugar+1,??_envio_UART_Tx+1
 14396                           
 14397                           ; Switch on 2 bytes has been partitioned into a top level switch of size 1, and 1 sub-sw
      +                          itches
 14398                           ; Switch size 1, requested type "simple"
 14399                           ; Number of cases is 1, Range of values is 0 to 0
 14400                           ; switch strategies available:
 14401                           ; Name         Instructions Cycles
 14402                           ; simple_byte            4     3 (average)
 14403                           ;	Chosen strategy is simple_byte
 14404  004754  5006               	movf	??_envio_UART_Tx+1,w,c
 14405  004756  0A00               	xorlw	0	; case 0
 14406  004758  A4D8               	btfss	status,2,c
 14407  00475A  0012               	return	
 14408                           
 14409                           ; Switch size 1, requested type "simple"
 14410                           ; Number of cases is 4, Range of values is 0 to 3
 14411                           ; switch strategies available:
 14412                           ; Name         Instructions Cycles
 14413                           ; simple_byte           13     7 (average)
 14414                           ;	Chosen strategy is simple_byte
 14415  00475C  5005               	movf	??_envio_UART_Tx,w,c
 14416  00475E  0A00               	xorlw	0	; case 0
 14417  004760  B4D8               	btfsc	status,2,c
 14418  004762  D7D5               	goto	l6204
 14419  004764  0A01               	xorlw	1	; case 1
 14420  004766  B4D8               	btfsc	status,2,c
 14421  004768  D7E8               	goto	l6214
 14422  00476A  0A03               	xorlw	3	; case 2
 14423  00476C  B4D8               	btfsc	status,2,c
 14424  00476E  D7E8               	goto	l6216
 14425  004770  0A01               	xorlw	1	; case 3
 14426  004772  A4D8               	btfss	status,2,c
 14427  004774  0012               	return	
 14428  004776  D7E7               	goto	l6218
 14429  004778                     __end_of_envio_UART_Tx:
 14430                           	opt callstack 0
 14431                           
 14432 ;; *************** function _UART_Tx *****************
 14433 ;; Defined at:
 14434 ;;		line 25 in file "./UART.h"
 14435 ;; Parameters:    Size  Location     Type
 14436 ;;  data            1    wreg     unsigned char 
 14437 ;; Auto vars:     Size  Location     Type
 14438 ;;  data            1    0[COMRAM] unsigned char 
 14439 ;; Return value:  Size  Location     Type
 14440 ;;                  1    wreg      void 
 14441 ;; Registers used:
 14442 ;;		wreg
 14443 ;; Tracked objects:
 14444 ;;		On entry : 0/0
 14445 ;;		On exit  : 0/0
 14446 ;;		Unchanged: 0/0
 14447 ;; Data sizes:     COMRAM   BANK0   BANK1   BANK2   BANK3   BANK4   BANK5   BANK6   BANK7
 14448 ;;      Params:         0       0       0       0       0       0       0       0       0
 14449 ;;      Locals:         1       0       0       0       0       0       0       0       0
 14450 ;;      Temps:          0       0       0       0       0       0       0       0       0
 14451 ;;      Totals:         1       0       0       0       0       0       0       0       0
 14452 ;;Total ram usage:        1 bytes
 14453 ;; Hardware stack levels used:    1
 14454 ;; Hardware stack levels required when called:    2
 14455 ;; This function calls:
 14456 ;;		Nothing
 14457 ;; This function is called by:
 14458 ;;		_main
 14459 ;;		_envio_UART_Tx
 14460 ;; This function uses a non-reentrant model
 14461 ;;
 14462                           
 14463                           	psect	text44
 14464  004B4C                     __ptext44:
 14465                           	opt callstack 0
 14466  004B4C                     _UART_Tx:
 14467                           	opt callstack 27
 14468                           
 14469                           ;incstack = 0
 14470                           ;UART_Tx@data stored from wreg
 14471  004B4C  6E01               	movwf	UART_Tx@data,c
 14472                           
 14473                           ;./UART.h: 26:     TXREG=data;
 14474  004B4E  C001  FFAD         	movff	UART_Tx@data,4013	;volatile
 14475  004B52  0012               	return		;funcret
 14476  004B54                     __end_of_UART_Tx:
 14477                           	opt callstack 0
 14478                           
 14479 ;; *************** function _UART_Init *****************
 14480 ;; Defined at:
 14481 ;;		line 5 in file "./UART.h"
 14482 ;; Parameters:    Size  Location     Type
 14483 ;;  baud            4   14[COMRAM] long 
 14484 ;; Auto vars:     Size  Location     Type
 14485 ;;		None
 14486 ;; Return value:  Size  Location     Type
 14487 ;;                  1    wreg      void 
 14488 ;; Registers used:
 14489 ;;		wreg, status,2, status,0, cstack
 14490 ;; Tracked objects:
 14491 ;;		On entry : 0/0
 14492 ;;		On exit  : 0/0
 14493 ;;		Unchanged: 0/0
 14494 ;; Data sizes:     COMRAM   BANK0   BANK1   BANK2   BANK3   BANK4   BANK5   BANK6   BANK7
 14495 ;;      Params:         4       0       0       0       0       0       0       0       0
 14496 ;;      Locals:         4       0       0       0       0       0       0       0       0
 14497 ;;      Temps:          0       0       0       0       0       0       0       0       0
 14498 ;;      Totals:         8       0       0       0       0       0       0       0       0
 14499 ;;Total ram usage:        8 bytes
 14500 ;; Hardware stack levels used:    1
 14501 ;; Hardware stack levels required when called:    3
 14502 ;; This function calls:
 14503 ;;		___aldiv
 14504 ;; This function is called by:
 14505 ;;		_main
 14506 ;; This function uses a non-reentrant model
 14507 ;;
 14508                           
 14509                           	psect	text45
 14510  00453C                     __ptext45:
 14511                           	opt callstack 0
 14512  00453C                     _UART_Init:
 14513                           	opt callstack 27
 14514                           
 14515                           ;./UART.h: 6:     TRISCbits.RC6=0;
 14516                           
 14517                           ;incstack = 0
 14518  00453C  9C94               	bcf	3988,6,c	;volatile
 14519                           
 14520                           ;./UART.h: 7:     TRISCbits.RC7=1;
 14521  00453E  8E94               	bsf	3988,7,c	;volatile
 14522                           
 14523                           ;./UART.h: 8:     SPBRG=(unsigned char)(((12000000/baud)/64)-1);
 14524  004540  C00F  F005         	movff	UART_Init@baud,___aldiv@divisor
 14525  004544  C010  F006         	movff	UART_Init@baud+1,___aldiv@divisor+1
 14526  004548  C011  F007         	movff	UART_Init@baud+2,___aldiv@divisor+2
 14527  00454C  C012  F008         	movff	UART_Init@baud+3,___aldiv@divisor+3
 14528  004550  0E00               	movlw	0
 14529  004552  6E01               	movwf	___aldiv@dividend,c
 14530  004554  0E1B               	movlw	27
 14531  004556  6E02               	movwf	___aldiv@dividend+1,c
 14532  004558  0EB7               	movlw	183
 14533  00455A  6E03               	movwf	___aldiv@dividend+2,c
 14534  00455C  0E00               	movlw	0
 14535  00455E  6E04               	movwf	___aldiv@dividend+3,c
 14536  004560  EC0E  F020         	call	___aldiv	;wreg free
 14537  004564  C001  F013         	movff	?___aldiv,_UART_Init$1925
 14538  004568  C002  F014         	movff	?___aldiv+1,_UART_Init$1925+1
 14539  00456C  C003  F015         	movff	?___aldiv+2,_UART_Init$1925+2
 14540  004570  C004  F016         	movff	?___aldiv+3,_UART_Init$1925+3
 14541                           
 14542                           ;./UART.h: 8:     SPBRG=(unsigned char)(((12000000/baud)/64)-1);
 14543  004574  C013  F001         	movff	_UART_Init$1925,___aldiv@dividend
 14544  004578  C014  F002         	movff	_UART_Init$1925+1,___aldiv@dividend+1
 14545  00457C  C015  F003         	movff	_UART_Init$1925+2,___aldiv@dividend+2
 14546  004580  C016  F004         	movff	_UART_Init$1925+3,___aldiv@dividend+3
 14547  004584  0E40               	movlw	64
 14548  004586  6E05               	movwf	___aldiv@divisor,c
 14549  004588  0E00               	movlw	0
 14550  00458A  6E06               	movwf	___aldiv@divisor+1,c
 14551  00458C  0E00               	movlw	0
 14552  00458E  6E07               	movwf	___aldiv@divisor+2,c
 14553  004590  0E00               	movlw	0
 14554  004592  6E08               	movwf	___aldiv@divisor+3,c
 14555  004594  EC0E  F020         	call	___aldiv	;wreg free
 14556  004598  0401               	decf	?___aldiv,w,c
 14557  00459A  6EAF               	movwf	4015,c	;volatile
 14558                           
 14559                           ;./UART.h: 10:     TXSTAbits.BRGH=0;
 14560  00459C  94AC               	bcf	4012,2,c	;volatile
 14561                           
 14562                           ;./UART.h: 11:     BAUDCONbits.BRG16=0;
 14563  00459E  96B8               	bcf	4024,3,c	;volatile
 14564                           
 14565                           ;./UART.h: 12:     TXSTAbits.SYNC=0;
 14566  0045A0  98AC               	bcf	4012,4,c	;volatile
 14567                           
 14568                           ;./UART.h: 13:     RCSTAbits.SPEN=1;
 14569  0045A2  8EAB               	bsf	4011,7,c	;volatile
 14570                           
 14571                           ;./UART.h: 15:     INTCONbits.GIE=1;
 14572  0045A4  8EF2               	bsf	4082,7,c	;volatile
 14573                           
 14574                           ;./UART.h: 16:     INTCONbits.PEIE=1;
 14575  0045A6  8CF2               	bsf	4082,6,c	;volatile
 14576                           
 14577                           ;./UART.h: 17:     PIE1bits.RCIE=1;
 14578  0045A8  8A9D               	bsf	3997,5,c	;volatile
 14579                           
 14580                           ;./UART.h: 19:     TXSTAbits.TX9=0;
 14581  0045AA  9CAC               	bcf	4012,6,c	;volatile
 14582                           
 14583                           ;./UART.h: 20:     TXSTAbits.TXEN=1;
 14584  0045AC  8AAC               	bsf	4012,5,c	;volatile
 14585                           
 14586                           ;./UART.h: 22:     RCSTAbits.RC9=0;
 14587  0045AE  9CAB               	bcf	4011,6,c	;volatile
 14588                           
 14589                           ;./UART.h: 23:     RCSTAbits.CREN=1;
 14590  0045B0  88AB               	bsf	4011,4,c	;volatile
 14591  0045B2  0012               	return		;funcret
 14592  0045B4                     __end_of_UART_Init:
 14593                           	opt callstack 0
 14594                           
 14595 ;; *************** function ___aldiv *****************
 14596 ;; Defined at:
 14597 ;;		line 7 in file "C:\Program Files (x86)\Microchip\xc8\v2.05\pic\sources\c99\common\aldiv.c"
 14598 ;; Parameters:    Size  Location     Type
 14599 ;;  dividend        4    0[COMRAM] long 
 14600 ;;  divisor         4    4[COMRAM] long 
 14601 ;; Auto vars:     Size  Location     Type
 14602 ;;  quotient        4   10[COMRAM] long 
 14603 ;;  sign            1    9[COMRAM] unsigned char 
 14604 ;;  counter         1    8[COMRAM] unsigned char 
 14605 ;; Return value:  Size  Location     Type
 14606 ;;                  4    0[COMRAM] long 
 14607 ;; Registers used:
 14608 ;;		wreg, status,2, status,0
 14609 ;; Tracked objects:
 14610 ;;		On entry : 0/0
 14611 ;;		On exit  : 0/0
 14612 ;;		Unchanged: 0/0
 14613 ;; Data sizes:     COMRAM   BANK0   BANK1   BANK2   BANK3   BANK4   BANK5   BANK6   BANK7
 14614 ;;      Params:         8       0       0       0       0       0       0       0       0
 14615 ;;      Locals:         6       0       0       0       0       0       0       0       0
 14616 ;;      Temps:          0       0       0       0       0       0       0       0       0
 14617 ;;      Totals:        14       0       0       0       0       0       0       0       0
 14618 ;;Total ram usage:       14 bytes
 14619 ;; Hardware stack levels used:    1
 14620 ;; Hardware stack levels required when called:    2
 14621 ;; This function calls:
 14622 ;;		Nothing
 14623 ;; This function is called by:
 14624 ;;		_UART_Init
 14625 ;; This function uses a non-reentrant model
 14626 ;;
 14627                           
 14628                           	psect	text46
 14629  00401C                     __ptext46:
 14630                           	opt callstack 0
 14631  00401C                     ___aldiv:
 14632                           	opt callstack 27
 14633                           
 14634                           ;incstack = 0
 14635  00401C  0E00               	movlw	0
 14636  00401E  6E0A               	movwf	___aldiv@sign,c
 14637  004020  AE08               	btfss	___aldiv@divisor+3,7,c
 14638  004022  D00A               	goto	l5944
 14639  004024  1E08               	comf	___aldiv@divisor+3,f,c
 14640  004026  1E07               	comf	___aldiv@divisor+2,f,c
 14641  004028  1E06               	comf	___aldiv@divisor+1,f,c
 14642  00402A  6C05               	negf	___aldiv@divisor,c
 14643  00402C  0E00               	movlw	0
 14644  00402E  2206               	addwfc	___aldiv@divisor+1,f,c
 14645  004030  2207               	addwfc	___aldiv@divisor+2,f,c
 14646  004032  2208               	addwfc	___aldiv@divisor+3,f,c
 14647  004034  0E01               	movlw	1
 14648  004036  6E0A               	movwf	___aldiv@sign,c
 14649  004038                     l5944:
 14650  004038  AE04               	btfss	___aldiv@dividend+3,7,c
 14651  00403A  D00A               	goto	l5950
 14652  00403C  1E04               	comf	___aldiv@dividend+3,f,c
 14653  00403E  1E03               	comf	___aldiv@dividend+2,f,c
 14654  004040  1E02               	comf	___aldiv@dividend+1,f,c
 14655  004042  6C01               	negf	___aldiv@dividend,c
 14656  004044  0E00               	movlw	0
 14657  004046  2202               	addwfc	___aldiv@dividend+1,f,c
 14658  004048  2203               	addwfc	___aldiv@dividend+2,f,c
 14659  00404A  2204               	addwfc	___aldiv@dividend+3,f,c
 14660  00404C  0E01               	movlw	1
 14661  00404E  1A0A               	xorwf	___aldiv@sign,f,c
 14662  004050                     l5950:
 14663  004050  0E00               	movlw	0
 14664  004052  6E0B               	movwf	___aldiv@quotient,c
 14665  004054  0E00               	movlw	0
 14666  004056  6E0C               	movwf	___aldiv@quotient+1,c
 14667  004058  0E00               	movlw	0
 14668  00405A  6E0D               	movwf	___aldiv@quotient+2,c
 14669  00405C  0E00               	movlw	0
 14670  00405E  6E0E               	movwf	___aldiv@quotient+3,c
 14671  004060  5005               	movf	___aldiv@divisor,w,c
 14672  004062  1006               	iorwf	___aldiv@divisor+1,w,c
 14673  004064  1007               	iorwf	___aldiv@divisor+2,w,c
 14674  004066  1008               	iorwf	___aldiv@divisor+3,w,c
 14675  004068  B4D8               	btfsc	status,2,c
 14676  00406A  D02A               	goto	l5972
 14677  00406C  0E01               	movlw	1
 14678  00406E  6E09               	movwf	___aldiv@counter,c
 14679  004070  D006               	goto	l5958
 14680  004072                     l5956:
 14681  004072  90D8               	bcf	status,0,c
 14682  004074  3605               	rlcf	___aldiv@divisor,f,c
 14683  004076  3606               	rlcf	___aldiv@divisor+1,f,c
 14684  004078  3607               	rlcf	___aldiv@divisor+2,f,c
 14685  00407A  3608               	rlcf	___aldiv@divisor+3,f,c
 14686  00407C  2A09               	incf	___aldiv@counter,f,c
 14687  00407E                     l5958:
 14688  00407E  AE08               	btfss	___aldiv@divisor+3,7,c
 14689  004080  D7F8               	goto	l5956
 14690  004082                     u6470:
 14691  004082  90D8               	bcf	status,0,c
 14692  004084  360B               	rlcf	___aldiv@quotient,f,c
 14693  004086  360C               	rlcf	___aldiv@quotient+1,f,c
 14694  004088  360D               	rlcf	___aldiv@quotient+2,f,c
 14695  00408A  360E               	rlcf	___aldiv@quotient+3,f,c
 14696  00408C  5005               	movf	___aldiv@divisor,w,c
 14697  00408E  5C01               	subwf	___aldiv@dividend,w,c
 14698  004090  5006               	movf	___aldiv@divisor+1,w,c
 14699  004092  5802               	subwfb	___aldiv@dividend+1,w,c
 14700  004094  5007               	movf	___aldiv@divisor+2,w,c
 14701  004096  5803               	subwfb	___aldiv@dividend+2,w,c
 14702  004098  5008               	movf	___aldiv@divisor+3,w,c
 14703  00409A  5804               	subwfb	___aldiv@dividend+3,w,c
 14704  00409C  A0D8               	btfss	status,0,c
 14705  00409E  D009               	goto	l5968
 14706  0040A0  5005               	movf	___aldiv@divisor,w,c
 14707  0040A2  5E01               	subwf	___aldiv@dividend,f,c
 14708  0040A4  5006               	movf	___aldiv@divisor+1,w,c
 14709  0040A6  5A02               	subwfb	___aldiv@dividend+1,f,c
 14710  0040A8  5007               	movf	___aldiv@divisor+2,w,c
 14711  0040AA  5A03               	subwfb	___aldiv@dividend+2,f,c
 14712  0040AC  5008               	movf	___aldiv@divisor+3,w,c
 14713  0040AE  5A04               	subwfb	___aldiv@dividend+3,f,c
 14714  0040B0  800B               	bsf	___aldiv@quotient,0,c
 14715  0040B2                     l5968:
 14716  0040B2  90D8               	bcf	status,0,c
 14717  0040B4  3208               	rrcf	___aldiv@divisor+3,f,c
 14718  0040B6  3207               	rrcf	___aldiv@divisor+2,f,c
 14719  0040B8  3206               	rrcf	___aldiv@divisor+1,f,c
 14720  0040BA  3205               	rrcf	___aldiv@divisor,f,c
 14721  0040BC  2E09               	decfsz	___aldiv@counter,f,c
 14722  0040BE  D7E1               	goto	u6470
 14723  0040C0                     l5972:
 14724  0040C0  500A               	movf	___aldiv@sign,w,c
 14725  0040C2  B4D8               	btfsc	status,2,c
 14726  0040C4  D008               	goto	l5976
 14727  0040C6  1E0E               	comf	___aldiv@quotient+3,f,c
 14728  0040C8  1E0D               	comf	___aldiv@quotient+2,f,c
 14729  0040CA  1E0C               	comf	___aldiv@quotient+1,f,c
 14730  0040CC  6C0B               	negf	___aldiv@quotient,c
 14731  0040CE  0E00               	movlw	0
 14732  0040D0  220C               	addwfc	___aldiv@quotient+1,f,c
 14733  0040D2  220D               	addwfc	___aldiv@quotient+2,f,c
 14734  0040D4  220E               	addwfc	___aldiv@quotient+3,f,c
 14735  0040D6                     l5976:
 14736  0040D6  C00B  F001         	movff	___aldiv@quotient,?___aldiv
 14737  0040DA  C00C  F002         	movff	___aldiv@quotient+1,?___aldiv+1
 14738  0040DE  C00D  F003         	movff	___aldiv@quotient+2,?___aldiv+2
 14739  0040E2  C00E  F004         	movff	___aldiv@quotient+3,?___aldiv+3
 14740  0040E6  0012               	return		;funcret
 14741  0040E8                     __end_of___aldiv:
 14742                           	opt callstack 0
 14743                           
 14744 ;; *************** function _Lcd_Init *****************
 14745 ;; Defined at:
 14746 ;;		line 52 in file "./flex_lcd.h"
 14747 ;; Parameters:    Size  Location     Type
 14748 ;;		None
 14749 ;; Auto vars:     Size  Location     Type
 14750 ;;  data            1    4[COMRAM] unsigned char 
 14751 ;; Return value:  Size  Location     Type
 14752 ;;                  1    wreg      void 
 14753 ;; Registers used:
 14754 ;;		wreg, status,2, status,0, cstack
 14755 ;; Tracked objects:
 14756 ;;		On entry : 0/0
 14757 ;;		On exit  : 0/0
 14758 ;;		Unchanged: 0/0
 14759 ;; Data sizes:     COMRAM   BANK0   BANK1   BANK2   BANK3   BANK4   BANK5   BANK6   BANK7
 14760 ;;      Params:         0       0       0       0       0       0       0       0       0
 14761 ;;      Locals:         1       0       0       0       0       0       0       0       0
 14762 ;;      Temps:          1       0       0       0       0       0       0       0       0
 14763 ;;      Totals:         2       0       0       0       0       0       0       0       0
 14764 ;;Total ram usage:        2 bytes
 14765 ;; Hardware stack levels used:    1
 14766 ;; Hardware stack levels required when called:    3
 14767 ;; This function calls:
 14768 ;;		_Lcd_Cmd
 14769 ;; This function is called by:
 14770 ;;		_main
 14771 ;; This function uses a non-reentrant model
 14772 ;;
 14773                           
 14774                           	psect	text47
 14775  003D6E                     __ptext47:
 14776                           	opt callstack 0
 14777  003D6E                     _Lcd_Init:
 14778                           	opt callstack 27
 14779                           
 14780                           ;./flex_lcd.h: 53: unsigned char data;;./flex_lcd.h: 54: TRISDbits.TRISD3 = 0;
 14781                           
 14782                           ;incstack = 0
 14783  003D6E  9695               	bcf	3989,3,c	;volatile
 14784                           
 14785                           ;./flex_lcd.h: 55: TRISDbits.TRISD2 = 0;
 14786  003D70  9495               	bcf	3989,2,c	;volatile
 14787                           
 14788                           ;./flex_lcd.h: 56: TRISDbits.TRISD1 = 0;
 14789  003D72  9295               	bcf	3989,1,c	;volatile
 14790                           
 14791                           ;./flex_lcd.h: 57: TRISDbits.TRISD0 = 0;
 14792  003D74  9095               	bcf	3989,0,c	;volatile
 14793                           
 14794                           ;./flex_lcd.h: 58: TRISDbits.TRISD5 = 0;
 14795  003D76  9A95               	bcf	3989,5,c	;volatile
 14796                           
 14797                           ;./flex_lcd.h: 59: TRISDbits.TRISD4 = 0;
 14798  003D78  9895               	bcf	3989,4,c	;volatile
 14799                           
 14800                           ;./flex_lcd.h: 60: PORTDbits.RD3 = 0;
 14801  003D7A  9683               	bcf	3971,3,c	;volatile
 14802                           
 14803                           ;./flex_lcd.h: 61: PORTDbits.RD2 = 0;
 14804  003D7C  9483               	bcf	3971,2,c	;volatile
 14805                           
 14806                           ;./flex_lcd.h: 62: PORTDbits.RD1 = 0;
 14807  003D7E  9283               	bcf	3971,1,c	;volatile
 14808                           
 14809                           ;./flex_lcd.h: 63: PORTDbits.RD0 = 0;
 14810  003D80  9083               	bcf	3971,0,c	;volatile
 14811                           
 14812                           ;./flex_lcd.h: 64: PORTDbits.RD5 = 0;
 14813  003D82  9A83               	bcf	3971,5,c	;volatile
 14814                           
 14815                           ;./flex_lcd.h: 65: PORTDbits.RD4 = 0;
 14816  003D84  9883               	bcf	3971,4,c	;volatile
 14817                           
 14818                           ;./flex_lcd.h: 66: _delay((unsigned long)((5500)*(12000000/4000000.0)));
 14819  003D86  0E16               	movlw	22
 14820  003D88  6E04               	movwf	??_Lcd_Init& (0+255),c
 14821  003D8A  0E6C               	movlw	108
 14822  003D8C                     u8257:
 14823  003D8C  2EE8               	decfsz	wreg,f,c
 14824  003D8E  D7FE               	bra	u8257
 14825  003D90  2E04               	decfsz	??_Lcd_Init& (0+255),f,c
 14826  003D92  D7FC               	bra	u8257
 14827  003D94  D000               	nop2	
 14828                           
 14829                           ;./flex_lcd.h: 67: _delay((unsigned long)((5500)*(12000000/4000000.0)));
 14830  003D96  0E16               	movlw	22
 14831  003D98  6E04               	movwf	??_Lcd_Init& (0+255),c
 14832  003D9A  0E6C               	movlw	108
 14833  003D9C                     u8267:
 14834  003D9C  2EE8               	decfsz	wreg,f,c
 14835  003D9E  D7FE               	bra	u8267
 14836  003DA0  2E04               	decfsz	??_Lcd_Init& (0+255),f,c
 14837  003DA2  D7FC               	bra	u8267
 14838  003DA4  D000               	nop2	
 14839                           
 14840                           ;./flex_lcd.h: 68: _delay((unsigned long)((5500)*(12000000/4000000.0)));
 14841  003DA6  0E16               	movlw	22
 14842  003DA8  6E04               	movwf	??_Lcd_Init& (0+255),c
 14843  003DAA  0E6C               	movlw	108
 14844  003DAC                     u8277:
 14845  003DAC  2EE8               	decfsz	wreg,f,c
 14846  003DAE  D7FE               	bra	u8277
 14847  003DB0  2E04               	decfsz	??_Lcd_Init& (0+255),f,c
 14848  003DB2  D7FC               	bra	u8277
 14849  003DB4  D000               	nop2	
 14850                           
 14851                           ;./flex_lcd.h: 69: _delay((unsigned long)((5500)*(12000000/4000000.0)));
 14852  003DB6  0E16               	movlw	22
 14853  003DB8  6E04               	movwf	??_Lcd_Init& (0+255),c
 14854  003DBA  0E6C               	movlw	108
 14855  003DBC                     u8287:
 14856  003DBC  2EE8               	decfsz	wreg,f,c
 14857  003DBE  D7FE               	bra	u8287
 14858  003DC0  2E04               	decfsz	??_Lcd_Init& (0+255),f,c
 14859  003DC2  D7FC               	bra	u8287
 14860  003DC4  D000               	nop2	
 14861                           
 14862                           ;./flex_lcd.h: 70: _delay((unsigned long)((5500)*(12000000/4000000.0)));
 14863  003DC6  0E16               	movlw	22
 14864  003DC8  6E04               	movwf	??_Lcd_Init& (0+255),c
 14865  003DCA  0E6C               	movlw	108
 14866  003DCC                     u8297:
 14867  003DCC  2EE8               	decfsz	wreg,f,c
 14868  003DCE  D7FE               	bra	u8297
 14869  003DD0  2E04               	decfsz	??_Lcd_Init& (0+255),f,c
 14870  003DD2  D7FC               	bra	u8297
 14871  003DD4  D000               	nop2	
 14872                           
 14873                           ;./flex_lcd.h: 71: _delay((unsigned long)((5500)*(12000000/4000000.0)));
 14874  003DD6  0E16               	movlw	22
 14875  003DD8  6E04               	movwf	??_Lcd_Init& (0+255),c
 14876  003DDA  0E6C               	movlw	108
 14877  003DDC                     u8307:
 14878  003DDC  2EE8               	decfsz	wreg,f,c
 14879  003DDE  D7FE               	bra	u8307
 14880  003DE0  2E04               	decfsz	??_Lcd_Init& (0+255),f,c
 14881  003DE2  D7FC               	bra	u8307
 14882  003DE4  D000               	nop2	
 14883                           
 14884                           ;./flex_lcd.h: 72: for(data = 1; data < 4; data ++)
 14885  003DE6  0E01               	movlw	1
 14886  003DE8  6E05               	movwf	Lcd_Init@data,c
 14887  003DEA                     l65:
 14888                           
 14889                           ;./flex_lcd.h: 73: {;./flex_lcd.h: 74:     PORTDbits.RD3 = 0; PORTDbits.RD2 = 0; PORTDbi
      +                          ts.RD1 = 1; PORTDbits.RD0 = 1; PORTDbits.RD5 = 0;
 14890  003DEA  9683               	bcf	3971,3,c	;volatile
 14891  003DEC  9483               	bcf	3971,2,c	;volatile
 14892  003DEE  8283               	bsf	3971,1,c	;volatile
 14893  003DF0  8083               	bsf	3971,0,c	;volatile
 14894  003DF2  9A83               	bcf	3971,5,c	;volatile
 14895                           
 14896                           ;./flex_lcd.h: 75:     PORTDbits.RD4 = 0; PORTDbits.RD3 = 0; PORTDbits.RD2 = 0; PORTDbit
      +                          s.RD1 = 1; PORTDbits.RD0 = 1;
 14897  003DF4  9883               	bcf	3971,4,c	;volatile
 14898  003DF6  9683               	bcf	3971,3,c	;volatile
 14899  003DF8  9483               	bcf	3971,2,c	;volatile
 14900  003DFA  8283               	bsf	3971,1,c	;volatile
 14901  003DFC  8083               	bsf	3971,0,c	;volatile
 14902                           
 14903                           ;./flex_lcd.h: 76:     PORTDbits.RD5 = 1; PORTDbits.RD4 = 0;
 14904  003DFE  8A83               	bsf	3971,5,c	;volatile
 14905  003E00  9883               	bcf	3971,4,c	;volatile
 14906                           
 14907                           ;./flex_lcd.h: 77:     _delay((unsigned long)((5)*(12000000/4000000.0)));
 14908  003E02  0E05               	movlw	5
 14909  003E04                     u8317:
 14910  003E04  2EE8               	decfsz	wreg,f,c
 14911  003E06  D7FE               	bra	u8317
 14912                           
 14913                           ;./flex_lcd.h: 78:     PORTDbits.RD3 = 0; PORTDbits.RD2 = 0; PORTDbits.RD1 = 1; PORTDbit
      +                          s.RD0 = 1; PORTDbits.RD5 = 0;
 14914  003E08  9683               	bcf	3971,3,c	;volatile
 14915  003E0A  9483               	bcf	3971,2,c	;volatile
 14916  003E0C  8283               	bsf	3971,1,c	;volatile
 14917  003E0E  8083               	bsf	3971,0,c	;volatile
 14918  003E10  9A83               	bcf	3971,5,c	;volatile
 14919                           
 14920                           ;./flex_lcd.h: 79:     PORTDbits.RD4 = 0;
 14921  003E12  9883               	bcf	3971,4,c	;volatile
 14922                           
 14923                           ;./flex_lcd.h: 80:     _delay((unsigned long)((5500)*(12000000/4000000.0)));
 14924  003E14  0E16               	movlw	22
 14925  003E16  6E04               	movwf	??_Lcd_Init& (0+255),c
 14926  003E18  0E6C               	movlw	108
 14927  003E1A                     u8327:
 14928  003E1A  2EE8               	decfsz	wreg,f,c
 14929  003E1C  D7FE               	bra	u8327
 14930  003E1E  2E04               	decfsz	??_Lcd_Init& (0+255),f,c
 14931  003E20  D7FC               	bra	u8327
 14932  003E22  D000               	nop2	
 14933                           
 14934                           ;./flex_lcd.h: 81: }
 14935  003E24  2A05               	incf	Lcd_Init@data,f,c
 14936  003E26  0E03               	movlw	3
 14937  003E28  6405               	cpfsgt	Lcd_Init@data,c
 14938  003E2A  D7DF               	goto	l65
 14939                           
 14940                           ;./flex_lcd.h: 82: PORTDbits.RD3 = 0; PORTDbits.RD2 = 0; PORTDbits.RD1 = 1; PORTDbits.RD
      +                          0 = 0; PORTDbits.RD5 = 0; PORTDbits.RD4 = 0;
 14941  003E2C  9683               	bcf	3971,3,c	;volatile
 14942  003E2E  9483               	bcf	3971,2,c	;volatile
 14943  003E30  8283               	bsf	3971,1,c	;volatile
 14944  003E32  9083               	bcf	3971,0,c	;volatile
 14945  003E34  9A83               	bcf	3971,5,c	;volatile
 14946  003E36  9883               	bcf	3971,4,c	;volatile
 14947                           
 14948                           ;./flex_lcd.h: 83: PORTDbits.RD3 = 0; PORTDbits.RD2 = 0; PORTDbits.RD1 = 1; PORTDbits.RD
      +                          0 = 0; PORTDbits.RD5 = 1; PORTDbits.RD4 = 0;
 14949  003E38  9683               	bcf	3971,3,c	;volatile
 14950  003E3A  9483               	bcf	3971,2,c	;volatile
 14951  003E3C  8283               	bsf	3971,1,c	;volatile
 14952  003E3E  9083               	bcf	3971,0,c	;volatile
 14953  003E40  8A83               	bsf	3971,5,c	;volatile
 14954  003E42  9883               	bcf	3971,4,c	;volatile
 14955                           
 14956                           ;./flex_lcd.h: 84: _delay((unsigned long)((5)*(12000000/4000000.0)));
 14957  003E44  0E05               	movlw	5
 14958  003E46                     u8337:
 14959  003E46  2EE8               	decfsz	wreg,f,c
 14960  003E48  D7FE               	bra	u8337
 14961                           
 14962                           ;./flex_lcd.h: 85: PORTDbits.RD3 = 0; PORTDbits.RD2 = 0; PORTDbits.RD1 = 1; PORTDbits.RD
      +                          0 = 0; PORTDbits.RD5 = 0; PORTDbits.RD4 = 0;
 14963  003E4A  9683               	bcf	3971,3,c	;volatile
 14964  003E4C  9483               	bcf	3971,2,c	;volatile
 14965  003E4E  8283               	bsf	3971,1,c	;volatile
 14966  003E50  9083               	bcf	3971,0,c	;volatile
 14967  003E52  9A83               	bcf	3971,5,c	;volatile
 14968  003E54  9883               	bcf	3971,4,c	;volatile
 14969                           
 14970                           ;./flex_lcd.h: 86: _delay((unsigned long)((5500)*(12000000/4000000.0)));
 14971  003E56  0E16               	movlw	22
 14972  003E58  6E04               	movwf	??_Lcd_Init& (0+255),c
 14973  003E5A  0E6C               	movlw	108
 14974  003E5C                     u8347:
 14975  003E5C  2EE8               	decfsz	wreg,f,c
 14976  003E5E  D7FE               	bra	u8347
 14977  003E60  2E04               	decfsz	??_Lcd_Init& (0+255),f,c
 14978  003E62  D7FC               	bra	u8347
 14979  003E64  D000               	nop2	
 14980  003E66  0E28               	movlw	40
 14981  003E68  EC28  F01E         	call	_Lcd_Cmd
 14982  003E6C  0E10               	movlw	16
 14983  003E6E  EC28  F01E         	call	_Lcd_Cmd
 14984  003E72  0E01               	movlw	1
 14985  003E74  EC28  F01E         	call	_Lcd_Cmd
 14986  003E78  0E0F               	movlw	15
 14987  003E7A  EC28  F01E         	call	_Lcd_Cmd
 14988  003E7E  0012               	return		;funcret
 14989  003E80                     __end_of_Lcd_Init:
 14990                           	opt callstack 0
 14991                           
 14992 ;; *************** function _Lcd_Cmd *****************
 14993 ;; Defined at:
 14994 ;;		line 150 in file "./flex_lcd.h"
 14995 ;; Parameters:    Size  Location     Type
 14996 ;;  data            1    wreg     unsigned char 
 14997 ;; Auto vars:     Size  Location     Type
 14998 ;;  data            1    2[COMRAM] unsigned char 
 14999 ;; Return value:  Size  Location     Type
 15000 ;;                  1    wreg      void 
 15001 ;; Registers used:
 15002 ;;		wreg, status,2, status,0
 15003 ;; Tracked objects:
 15004 ;;		On entry : 0/0
 15005 ;;		On exit  : 0/0
 15006 ;;		Unchanged: 0/0
 15007 ;; Data sizes:     COMRAM   BANK0   BANK1   BANK2   BANK3   BANK4   BANK5   BANK6   BANK7
 15008 ;;      Params:         0       0       0       0       0       0       0       0       0
 15009 ;;      Locals:         1       0       0       0       0       0       0       0       0
 15010 ;;      Temps:          2       0       0       0       0       0       0       0       0
 15011 ;;      Totals:         3       0       0       0       0       0       0       0       0
 15012 ;;Total ram usage:        3 bytes
 15013 ;; Hardware stack levels used:    1
 15014 ;; Hardware stack levels required when called:    2
 15015 ;; This function calls:
 15016 ;;		Nothing
 15017 ;; This function is called by:
 15018 ;;		_Lcd_Init
 15019 ;;		_Lcd_Out
 15020 ;;		_Lcd_Out2
 15021 ;;		_main
 15022 ;;		_pago_de_Habitaciones
 15023 ;;		_clean_rooms
 15024 ;;		_opciones
 15025 ;; This function uses a non-reentrant model
 15026 ;;
 15027                           
 15028                           	psect	text48
 15029  003C50                     __ptext48:
 15030                           	opt callstack 0
 15031  003C50                     _Lcd_Cmd:
 15032                           	opt callstack 26
 15033                           
 15034                           ;incstack = 0
 15035                           ;Lcd_Cmd@data stored from wreg
 15036  003C50  6E03               	movwf	Lcd_Cmd@data,c
 15037                           
 15038                           ;./flex_lcd.h: 151: PORTDbits.RD5 = 0; PORTDbits.RD4 = 0;
 15039  003C52  9A83               	bcf	3971,5,c	;volatile
 15040  003C54  9883               	bcf	3971,4,c	;volatile
 15041                           
 15042                           ;./flex_lcd.h: 152: PORTDbits.RD3 = (data & 0b10000000)>>7; PORTDbits.RD2 = (data & 0b01
      +                          000000)>>6;
 15043  003C56  6A01               	clrf	??_Lcd_Cmd& (0+255),c
 15044  003C58  AE03               	btfss	Lcd_Cmd@data,7,c
 15045  003C5A  D001               	bra	u6105
 15046  003C5C  2A01               	incf	??_Lcd_Cmd& (0+255),f,c
 15047  003C5E                     u6105:
 15048  003C5E  0E01               	movlw	1
 15049  003C60  1601               	andwf	??_Lcd_Cmd,f,c
 15050  003C62  4601               	rlncf	??_Lcd_Cmd,f,c
 15051  003C64  4601               	rlncf	??_Lcd_Cmd,f,c
 15052  003C66  4601               	rlncf	??_Lcd_Cmd,f,c
 15053  003C68  5083               	movf	3971,w,c	;volatile
 15054  003C6A  1801               	xorwf	??_Lcd_Cmd,w,c
 15055  003C6C  0BF7               	andlw	-9
 15056  003C6E  1801               	xorwf	??_Lcd_Cmd,w,c
 15057  003C70  6E83               	movwf	3971,c	;volatile
 15058  003C72  C003  F001         	movff	Lcd_Cmd@data,??_Lcd_Cmd
 15059  003C76  0E06               	movlw	6
 15060  003C78  6E02               	movwf	(??_Lcd_Cmd+1)& (0+255),c
 15061  003C7A                     u6115:
 15062  003C7A  90D8               	bcf	status,0,c
 15063  003C7C  3201               	rrcf	??_Lcd_Cmd,f,c
 15064  003C7E  2E02               	decfsz	(??_Lcd_Cmd+1)& (0+255),f,c
 15065  003C80  D7FC               	goto	u6115
 15066  003C82  0E01               	movlw	1
 15067  003C84  1601               	andwf	??_Lcd_Cmd,f,c
 15068  003C86  4601               	rlncf	??_Lcd_Cmd,f,c
 15069  003C88  4601               	rlncf	??_Lcd_Cmd,f,c
 15070  003C8A  5083               	movf	3971,w,c	;volatile
 15071  003C8C  1801               	xorwf	??_Lcd_Cmd,w,c
 15072  003C8E  0BFB               	andlw	-5
 15073  003C90  1801               	xorwf	??_Lcd_Cmd,w,c
 15074  003C92  6E83               	movwf	3971,c	;volatile
 15075                           
 15076                           ;./flex_lcd.h: 153: PORTDbits.RD1 = (data & 0b00100000)>>5; PORTDbits.RD0 = (data & 0b00
      +                          010000)>>4;
 15077  003C94  C003  F001         	movff	Lcd_Cmd@data,??_Lcd_Cmd
 15078  003C98  0E05               	movlw	5
 15079  003C9A  6E02               	movwf	(??_Lcd_Cmd+1)& (0+255),c
 15080  003C9C                     u6125:
 15081  003C9C  90D8               	bcf	status,0,c
 15082  003C9E  3201               	rrcf	??_Lcd_Cmd,f,c
 15083  003CA0  2E02               	decfsz	(??_Lcd_Cmd+1)& (0+255),f,c
 15084  003CA2  D7FC               	goto	u6125
 15085  003CA4  0E01               	movlw	1
 15086  003CA6  1601               	andwf	??_Lcd_Cmd,f,c
 15087  003CA8  4601               	rlncf	??_Lcd_Cmd,f,c
 15088  003CAA  5083               	movf	3971,w,c	;volatile
 15089  003CAC  1801               	xorwf	??_Lcd_Cmd,w,c
 15090  003CAE  0BFD               	andlw	-3
 15091  003CB0  1801               	xorwf	??_Lcd_Cmd,w,c
 15092  003CB2  6E83               	movwf	3971,c	;volatile
 15093  003CB4  C003  F001         	movff	Lcd_Cmd@data,??_Lcd_Cmd
 15094  003CB8  3A01               	swapf	??_Lcd_Cmd,f,c
 15095  003CBA  0E0F               	movlw	15
 15096  003CBC  1601               	andwf	??_Lcd_Cmd,f,c
 15097  003CBE  0E01               	movlw	1
 15098  003CC0  1601               	andwf	??_Lcd_Cmd,f,c
 15099  003CC2  5083               	movf	3971,w,c	;volatile
 15100  003CC4  1801               	xorwf	??_Lcd_Cmd,w,c
 15101  003CC6  0BFE               	andlw	-2
 15102  003CC8  1801               	xorwf	??_Lcd_Cmd,w,c
 15103  003CCA  6E83               	movwf	3971,c	;volatile
 15104                           
 15105                           ;./flex_lcd.h: 154: _delay(10);
 15106  003CCC  0E03               	movlw	3
 15107  003CCE                     u8357:
 15108  003CCE  2EE8               	decfsz	wreg,f,c
 15109  003CD0  D7FE               	bra	u8357
 15110  003CD2  F000               	nop	
 15111                           
 15112                           ;./flex_lcd.h: 155: PORTDbits.RD5 = 1; _delay((unsigned long)((5)*(12000000/4000000.0)))
      +                          ; PORTDbits.RD5 = 0;
 15113  003CD4  8A83               	bsf	3971,5,c	;volatile
 15114  003CD6  0E05               	movlw	5
 15115  003CD8                     u8367:
 15116  003CD8  2EE8               	decfsz	wreg,f,c
 15117  003CDA  D7FE               	bra	u8367
 15118  003CDC  9A83               	bcf	3971,5,c	;volatile
 15119                           
 15120                           ;./flex_lcd.h: 156: PORTDbits.RD3 = (data & 0b00001000)>>3; PORTDbits.RD2 = (data & 0b00
      +                          000100)>>2;
 15121  003CDE  C003  F001         	movff	Lcd_Cmd@data,??_Lcd_Cmd
 15122  003CE2  90D8               	bcf	status,0,c
 15123  003CE4  3201               	rrcf	??_Lcd_Cmd,f,c
 15124  003CE6  90D8               	bcf	status,0,c
 15125  003CE8  3201               	rrcf	??_Lcd_Cmd,f,c
 15126  003CEA  90D8               	bcf	status,0,c
 15127  003CEC  3201               	rrcf	??_Lcd_Cmd,f,c
 15128  003CEE  0E01               	movlw	1
 15129  003CF0  1601               	andwf	??_Lcd_Cmd,f,c
 15130  003CF2  4601               	rlncf	??_Lcd_Cmd,f,c
 15131  003CF4  4601               	rlncf	??_Lcd_Cmd,f,c
 15132  003CF6  4601               	rlncf	??_Lcd_Cmd,f,c
 15133  003CF8  5083               	movf	3971,w,c	;volatile
 15134  003CFA  1801               	xorwf	??_Lcd_Cmd,w,c
 15135  003CFC  0BF7               	andlw	-9
 15136  003CFE  1801               	xorwf	??_Lcd_Cmd,w,c
 15137  003D00  6E83               	movwf	3971,c	;volatile
 15138  003D02  C003  F001         	movff	Lcd_Cmd@data,??_Lcd_Cmd
 15139  003D06  90D8               	bcf	status,0,c
 15140  003D08  3201               	rrcf	??_Lcd_Cmd,f,c
 15141  003D0A  90D8               	bcf	status,0,c
 15142  003D0C  3201               	rrcf	??_Lcd_Cmd,f,c
 15143  003D0E  0E01               	movlw	1
 15144  003D10  1601               	andwf	??_Lcd_Cmd,f,c
 15145  003D12  4601               	rlncf	??_Lcd_Cmd,f,c
 15146  003D14  4601               	rlncf	??_Lcd_Cmd,f,c
 15147  003D16  5083               	movf	3971,w,c	;volatile
 15148  003D18  1801               	xorwf	??_Lcd_Cmd,w,c
 15149  003D1A  0BFB               	andlw	-5
 15150  003D1C  1801               	xorwf	??_Lcd_Cmd,w,c
 15151  003D1E  6E83               	movwf	3971,c	;volatile
 15152                           
 15153                           ;./flex_lcd.h: 157: PORTDbits.RD1 = (data & 0b00000010)>>1; PORTDbits.RD0 = (data & 0b00
      +                          000001);
 15154  003D20  C003  F001         	movff	Lcd_Cmd@data,??_Lcd_Cmd
 15155  003D24  90D8               	bcf	status,0,c
 15156  003D26  3201               	rrcf	??_Lcd_Cmd,f,c
 15157  003D28  0E01               	movlw	1
 15158  003D2A  1601               	andwf	??_Lcd_Cmd,f,c
 15159  003D2C  4601               	rlncf	??_Lcd_Cmd,f,c
 15160  003D2E  5083               	movf	3971,w,c	;volatile
 15161  003D30  1801               	xorwf	??_Lcd_Cmd,w,c
 15162  003D32  0BFD               	andlw	-3
 15163  003D34  1801               	xorwf	??_Lcd_Cmd,w,c
 15164  003D36  6E83               	movwf	3971,c	;volatile
 15165  003D38  C003  F001         	movff	Lcd_Cmd@data,??_Lcd_Cmd
 15166  003D3C  0E01               	movlw	1
 15167  003D3E  1601               	andwf	??_Lcd_Cmd,f,c
 15168  003D40  5083               	movf	3971,w,c	;volatile
 15169  003D42  1801               	xorwf	??_Lcd_Cmd,w,c
 15170  003D44  0BFE               	andlw	-2
 15171  003D46  1801               	xorwf	??_Lcd_Cmd,w,c
 15172  003D48  6E83               	movwf	3971,c	;volatile
 15173                           
 15174                           ;./flex_lcd.h: 158: _delay(10);
 15175  003D4A  0E03               	movlw	3
 15176  003D4C                     u8377:
 15177  003D4C  2EE8               	decfsz	wreg,f,c
 15178  003D4E  D7FE               	bra	u8377
 15179  003D50  F000               	nop	
 15180                           
 15181                           ;./flex_lcd.h: 159: PORTDbits.RD5 = 1; _delay((unsigned long)((5)*(12000000/4000000.0)))
      +                          ; PORTDbits.RD5 = 0;
 15182  003D52  8A83               	bsf	3971,5,c	;volatile
 15183  003D54  0E05               	movlw	5
 15184  003D56                     u8387:
 15185  003D56  2EE8               	decfsz	wreg,f,c
 15186  003D58  D7FE               	bra	u8387
 15187  003D5A  9A83               	bcf	3971,5,c	;volatile
 15188                           
 15189                           ;./flex_lcd.h: 160: _delay((unsigned long)((5500)*(12000000/4000000.0)));
 15190  003D5C  0E16               	movlw	22
 15191  003D5E  6E01               	movwf	??_Lcd_Cmd& (0+255),c
 15192  003D60  0E6C               	movlw	108
 15193  003D62                     u8397:
 15194  003D62  2EE8               	decfsz	wreg,f,c
 15195  003D64  D7FE               	bra	u8397
 15196  003D66  2E01               	decfsz	??_Lcd_Cmd& (0+255),f,c
 15197  003D68  D7FC               	bra	u8397
 15198  003D6A  D000               	nop2	
 15199  003D6C  0012               	return		;funcret
 15200  003D6E                     __end_of_Lcd_Cmd:
 15201                           	opt callstack 0
 15202                           
 15203 ;; *************** function _isr *****************
 15204 ;; Defined at:
 15205 ;;		line 636 in file "Proyecto_SSE1_13_05.c"
 15206 ;; Parameters:    Size  Location     Type
 15207 ;;		None
 15208 ;; Auto vars:     Size  Location     Type
 15209 ;;		None
 15210 ;; Return value:  Size  Location     Type
 15211 ;;                  1    wreg      void 
 15212 ;; Registers used:
 15213 ;;		wreg, status,2, cstack
 15214 ;; Tracked objects:
 15215 ;;		On entry : 0/0
 15216 ;;		On exit  : 0/0
 15217 ;;		Unchanged: 0/0
 15218 ;; Data sizes:     COMRAM   BANK0   BANK1   BANK2   BANK3   BANK4   BANK5   BANK6   BANK7
 15219 ;;      Params:         0       0       0       0       0       0       0       0       0
 15220 ;;      Locals:         0       0       0       0       0       0       0       0       0
 15221 ;;      Temps:          0       0       0       0       0       0       0       0       0
 15222 ;;      Totals:         0       0       0       0       0       0       0       0       0
 15223 ;;Total ram usage:        0 bytes
 15224 ;; Hardware stack levels used:    1
 15225 ;; Hardware stack levels required when called:    1
 15226 ;; This function calls:
 15227 ;;		_UART_Rx
 15228 ;; This function is called by:
 15229 ;;		Interrupt level 2
 15230 ;; This function uses a non-reentrant model
 15231 ;;
 15232                           
 15233                           	psect	intcode
 15234  000008                     __pintcode:
 15235                           	opt callstack 0
 15236  000008                     _isr:
 15237                           	opt callstack 19
 15238                           
 15239                           ;incstack = 0
 15240  000008  825F               	bsf	btemp,1,c	;set compiler interrupt flag (level 2)
 15241  00000A  ED97  F025         	call	int_func,f	;refresh shadow registers
 15242                           
 15243                           	psect	intcode_body
 15244  004B2E                     __pintcode_body:
 15245                           	opt callstack 19
 15246  004B2E                     int_func:
 15247                           	opt callstack 19
 15248  004B2E  0006               	pop		; remove dummy address from shadow register refresh
 15249                           
 15250                           ;Proyecto_SSE1_13_05.c: 637:     if(PIR1bits.RCIF==1){
 15251  004B30  AA9E               	btfss	3998,5,c	;volatile
 15252  004B32  D003               	goto	i2l4014
 15253                           
 15254                           ;Proyecto_SSE1_13_05.c: 638:         datos=UART_Rx();
 15255  004B34  ECAA  F025         	call	_UART_Rx	;wreg free
 15256  004B38  6E5E               	movwf	_datos,c
 15257  004B3A                     i2l4014:
 15258                           
 15259                           ;Proyecto_SSE1_13_05.c: 640:     PIR1bits.RCIF=0;
 15260  004B3A  9A9E               	bcf	3998,5,c	;volatile
 15261  004B3C  925F               	bcf	btemp,1,c	;clear compiler interrupt flag (level 2)
 15262  004B3E  0011               	retfie		f
 15263  004B40                     __end_of_isr:
 15264                           	opt callstack 0
 15265                           
 15266 ;; *************** function _UART_Rx *****************
 15267 ;; Defined at:
 15268 ;;		line 28 in file "./UART.h"
 15269 ;; Parameters:    Size  Location     Type
 15270 ;;		None
 15271 ;; Auto vars:     Size  Location     Type
 15272 ;;		None
 15273 ;; Return value:  Size  Location     Type
 15274 ;;                  1    wreg      unsigned char 
 15275 ;; Registers used:
 15276 ;;		wreg, status,2
 15277 ;; Tracked objects:
 15278 ;;		On entry : 0/0
 15279 ;;		On exit  : 0/0
 15280 ;;		Unchanged: 0/0
 15281 ;; Data sizes:     COMRAM   BANK0   BANK1   BANK2   BANK3   BANK4   BANK5   BANK6   BANK7
 15282 ;;      Params:         0       0       0       0       0       0       0       0       0
 15283 ;;      Locals:         0       0       0       0       0       0       0       0       0
 15284 ;;      Temps:          0       0       0       0       0       0       0       0       0
 15285 ;;      Totals:         0       0       0       0       0       0       0       0       0
 15286 ;;Total ram usage:        0 bytes
 15287 ;; Hardware stack levels used:    1
 15288 ;; This function calls:
 15289 ;;		Nothing
 15290 ;; This function is called by:
 15291 ;;		_isr
 15292 ;; This function uses a non-reentrant model
 15293 ;;
 15294                           
 15295                           	psect	text50
 15296  004B54                     __ptext50:
 15297                           	opt callstack 0
 15298  004B54                     _UART_Rx:
 15299                           	opt callstack 19
 15300                           
 15301                           ;./UART.h: 29:     return RCREG;
 15302                           
 15303                           ;incstack = 0
 15304  004B54  50AE               	movf	4014,w,c	;volatile
 15305  004B56  0012               	return		;funcret
 15306  004B58                     __end_of_UART_Rx:
 15307                           	opt callstack 0
 15308                           
 15309                           	psect	rparam
 15310  0000                     
 15311                           	psect	temp
 15312  00005F                     btemp:
 15313                           	opt callstack 0
 15314  00005F                     	ds	1
 15315  0000                     int$flags	set	btemp
 15316  0000                     wtemp8	set	btemp+1
 15317  0000                     ttemp5	set	btemp+1
 15318  0000                     ttemp6	set	btemp+4
 15319  0000                     ttemp7	set	btemp+8
 15320                           tosu	equ	0xFFF
 15321                           tosh	equ	0xFFE
 15322                           tosl	equ	0xFFD
 15323                           stkptr	equ	0xFFC
 15324                           pclatu	equ	0xFFB
 15325                           pclath	equ	0xFFA
 15326                           pcl	equ	0xFF9
 15327                           tblptru	equ	0xFF8
 15328                           tblptrh	equ	0xFF7
 15329                           tblptrl	equ	0xFF6
 15330                           tablat	equ	0xFF5
 15331                           prodh	equ	0xFF4
 15332                           prodl	equ	0xFF3
 15333                           indf0	equ	0xFEF
 15334                           postinc0	equ	0xFEE
 15335                           postdec0	equ	0xFED
 15336                           preinc0	equ	0xFEC
 15337                           plusw0	equ	0xFEB
 15338                           fsr0h	equ	0xFEA
 15339                           fsr0l	equ	0xFE9
 15340                           wreg	equ	0xFE8
 15341                           indf1	equ	0xFE7
 15342                           postinc1	equ	0xFE6
 15343                           postdec1	equ	0xFE5
 15344                           preinc1	equ	0xFE4
 15345                           plusw1	equ	0xFE3
 15346                           fsr1h	equ	0xFE2
 15347                           fsr1l	equ	0xFE1
 15348                           bsr	equ	0xFE0
 15349                           indf2	equ	0xFDF
 15350                           postinc2	equ	0xFDE
 15351                           postdec2	equ	0xFDD
 15352                           preinc2	equ	0xFDC
 15353                           plusw2	equ	0xFDB
 15354                           fsr2h	equ	0xFDA
 15355                           fsr2l	equ	0xFD9
 15356                           status	equ	0xFD8


Data Sizes:
    Strings     706
    Constant    0
    Data        12
    BSS         271
    Persistent  0
    Stack       0

Auto Spaces:
    Space          Size  Autos    Used
    COMRAM           94     93      94
    BANK0           160    136     160
    BANK1           256      0     186
    BANK2           256      0      72
    BANK3           256      0       0
    BANK4           256      0       0
    BANK5           256      0       0
    BANK6           256      0       0
    BANK7           256      0       0

Pointer List with Targets:

    strncmp@_r	PTR const unsigned char  size(2) Largest target is 3
		 -> STR_110(CODE[3]), 

    strncmp@r	PTR const unsigned char  size(2) Largest target is 3
		 -> STR_110(CODE[3]), 

    strncmp@_l	PTR const unsigned char  size(2) Largest target is 3
		 -> vfpfcnvrt@ct(COMRAM[3]), 

    strncmp@l	PTR const unsigned char  size(2) Largest target is 3
		 -> vfpfcnvrt@ct(COMRAM[3]), 

    strlen@s	PTR const unsigned char  size(2) Largest target is 80
		 -> dbuf(BANK1[80]), 

    strlen@a	PTR const unsigned char  size(2) Largest target is 80
		 -> dbuf(BANK1[80]), 

    strcpy@dest	PTR unsigned char  size(2) Largest target is 80
		 -> dbuf(BANK1[80]), 

    strcpy@d	PTR unsigned char  size(2) Largest target is 80
		 -> dbuf(BANK1[80]), 

    strcpy@src	PTR const unsigned char  size(2) Largest target is 80
		 -> STR_105(CODE[4]), STR_104(CODE[4]), STR_101(CODE[4]), STR_100(CODE[4]), 
		 -> dbuf(BANK1[80]), 

    strcpy@s	PTR const unsigned char  size(2) Largest target is 80
		 -> STR_105(CODE[4]), STR_104(CODE[4]), STR_101(CODE[4]), STR_100(CODE[4]), 
		 -> dbuf(BANK1[80]), 

    sprintf@fmt	PTR const unsigned char  size(2) Largest target is 15
		 -> STR_89(CODE[10]), STR_80(CODE[7]), STR_79(CODE[8]), STR_74(CODE[6]), 
		 -> STR_69(CODE[11]), STR_68(CODE[10]), STR_66(CODE[5]), STR_31(CODE[10]), 
		 -> STR_22(CODE[8]), STR_20(CODE[15]), STR_18(CODE[15]), STR_16(CODE[15]), 

    sprintf@s	PTR unsigned char  size(2) Largest target is 17
		 -> clean_rooms@uso_local2(BANK0[17]), clean_rooms@uso_local(BANK0[17]), pago_de_Habitaciones@uso_local2(BANK0[17]), pago_de_Habitaciones@uso_local(BANK0[17]), 
		 -> palabra3(BANK1[17]), palabra2(BANK1[17]), palabra1(BANK1[17]), palabra(BANK1[17]), 

    sprintf@ap	PTR void [1] size(2) Largest target is 2
		 -> ?_sprintf(BANK0[2]), 

    f.buffer	PTR unsigned char  size(2) Largest target is 17
		 -> clean_rooms@uso_local2(BANK0[17]), clean_rooms@uso_local(BANK0[17]), pago_de_Habitaciones@uso_local2(BANK0[17]), pago_de_Habitaciones@uso_local(BANK0[17]), 
		 -> palabra3(BANK1[17]), palabra2(BANK1[17]), palabra1(BANK1[17]), palabra(BANK1[17]), 

    fputs@s	PTR const unsigned char  size(2) Largest target is 80
		 -> dbuf(BANK1[80]), 

    fputs@fp	PTR struct _IO_FILE size(2) Largest target is 7
		 -> sprintf@f(BANK0[6]), 

    S1641_IO_FILE$buffer	PTR unsigned char  size(2) Largest target is 17
		 -> clean_rooms@uso_local2(BANK0[17]), clean_rooms@uso_local(BANK0[17]), pago_de_Habitaciones@uso_local2(BANK0[17]), pago_de_Habitaciones@uso_local(BANK0[17]), 
		 -> palabra3(BANK1[17]), palabra2(BANK1[17]), palabra1(BANK1[17]), palabra(BANK1[17]), 

    fputc@fp.buffer	PTR unsigned char  size(2) Largest target is 17
		 -> clean_rooms@uso_local2(BANK0[17]), clean_rooms@uso_local(BANK0[17]), pago_de_Habitaciones@uso_local2(BANK0[17]), pago_de_Habitaciones@uso_local(BANK0[17]), 
		 -> palabra3(BANK1[17]), palabra2(BANK1[17]), palabra1(BANK1[17]), palabra(BANK1[17]), 

    fputc@fp	PTR struct _IO_FILE size(2) Largest target is 7
		 -> sprintf@f(BANK0[6]), 

    atoi@s	PTR const unsigned char  size(2) Largest target is 15
		 -> STR_89(CODE[10]), STR_80(CODE[7]), STR_79(CODE[8]), STR_74(CODE[6]), 
		 -> STR_69(CODE[11]), STR_68(CODE[10]), STR_66(CODE[5]), STR_31(CODE[10]), 
		 -> STR_22(CODE[8]), STR_20(CODE[15]), STR_18(CODE[15]), STR_16(CODE[15]), 

    vfprintf@ap	PTR PTR void  size(2) Largest target is 2
		 -> sprintf@ap(BANK0[2]), 

    vfprintf@fp	PTR struct _IO_FILE size(2) Largest target is 7
		 -> sprintf@f(BANK0[6]), 

    vfprintf@fmt	PTR const unsigned char  size(2) Largest target is 15
		 -> STR_89(CODE[10]), STR_80(CODE[7]), STR_79(CODE[8]), STR_74(CODE[6]), 
		 -> STR_69(CODE[11]), STR_68(CODE[10]), STR_66(CODE[5]), STR_31(CODE[10]), 
		 -> STR_22(CODE[8]), STR_20(CODE[15]), STR_18(CODE[15]), STR_16(CODE[15]), 

    vfprintf@cfmt	PTR unsigned char  size(2) Largest target is 15
		 -> STR_89(CODE[10]), STR_80(CODE[7]), STR_79(CODE[8]), STR_74(CODE[6]), 
		 -> STR_69(CODE[11]), STR_68(CODE[10]), STR_66(CODE[5]), STR_31(CODE[10]), 
		 -> STR_22(CODE[8]), STR_20(CODE[15]), STR_18(CODE[15]), STR_16(CODE[15]), 

    vfpfcnvrt@fp	PTR struct _IO_FILE size(2) Largest target is 7
		 -> sprintf@f(BANK0[6]), 

    vfpfcnvrt@ap	PTR PTR void  size(2) Largest target is 2
		 -> sprintf@ap(BANK0[2]), 

    vfpfcnvrt@fmt	PTR PTR unsigned char  size(2) Largest target is 2
		 -> vfprintf@cfmt(BANK0[2]), 

    efgtoa@fp	PTR struct _IO_FILE size(2) Largest target is 7
		 -> sprintf@f(BANK0[6]), 

    sp__strcpy	PTR unsigned char  size(2) Largest target is 80
		 -> dbuf(BANK1[80]), 

    dtoa@fp	PTR struct _IO_FILE size(2) Largest target is 7
		 -> sprintf@f(BANK0[6]), 

    ctoa@fp	PTR struct _IO_FILE size(2) Largest target is 7
		 -> sprintf@f(BANK0[6]), 

    pad@fp	PTR struct _IO_FILE size(2) Largest target is 7
		 -> sprintf@f(BANK0[6]), 

    pad@buf	PTR unsigned char  size(2) Largest target is 80
		 -> dbuf(BANK1[80]), 

    Lcd_Out2@buffer	PTR unsigned char  size(2) Largest target is 17
		 -> clean_rooms@uso_local2(BANK0[17]), clean_rooms@uso_local(BANK0[17]), pago_de_Habitaciones@uso_local2(BANK0[17]), pago_de_Habitaciones@uso_local(BANK0[17]), 
		 -> palabra3(BANK1[17]), palabra2(BANK1[17]), palabra1(BANK1[17]), palabra(BANK1[17]), 

    Lcd_Out@buffer	PTR const unsigned char  size(2) Largest target is 17
		 -> STR_99(CODE[16]), STR_98(CODE[16]), STR_97(CODE[15]), STR_96(CODE[10]), 
		 -> STR_95(CODE[16]), STR_94(CODE[16]), STR_93(CODE[13]), STR_92(CODE[15]), 
		 -> STR_91(CODE[13]), STR_90(CODE[13]), STR_88(CODE[16]), STR_87(CODE[12]), 
		 -> STR_86(CODE[10]), STR_85(CODE[8]), STR_84(CODE[16]), STR_83(CODE[9]), 
		 -> STR_82(CODE[13]), STR_81(CODE[13]), STR_78(CODE[11]), STR_77(CODE[5]), 
		 -> STR_76(CODE[15]), STR_75(CODE[13]), STR_73(CODE[16]), STR_72(CODE[16]), 
		 -> STR_71(CODE[12]), STR_70(CODE[9]), STR_67(CODE[8]), STR_65(CODE[11]), 
		 -> STR_64(CODE[11]), STR_63(CODE[7]), STR_62(CODE[7]), STR_61(CODE[5]), 
		 -> STR_60(CODE[12]), STR_59(CODE[12]), STR_58(CODE[10]), STR_57(CODE[16]), 
		 -> STR_56(CODE[5]), STR_55(CODE[7]), STR_54(CODE[11]), STR_53(CODE[12]), 
		 -> STR_52(CODE[10]), STR_51(CODE[16]), STR_50(CODE[5]), STR_49(CODE[9]), 
		 -> STR_48(CODE[11]), STR_47(CODE[12]), STR_46(CODE[10]), STR_45(CODE[16]), 
		 -> STR_44(CODE[5]), STR_43(CODE[7]), STR_42(CODE[11]), STR_41(CODE[16]), 
		 -> STR_40(CODE[16]), STR_39(CODE[15]), STR_38(CODE[10]), STR_37(CODE[16]), 
		 -> STR_36(CODE[16]), STR_35(CODE[13]), STR_34(CODE[15]), STR_33(CODE[13]), 
		 -> STR_32(CODE[13]), STR_30(CODE[16]), STR_29(CODE[12]), STR_28(CODE[10]), 
		 -> STR_27(CODE[8]), STR_26(CODE[16]), STR_25(CODE[9]), STR_24(CODE[16]), 
		 -> STR_23(CODE[11]), STR_21(CODE[15]), STR_19(CODE[13]), STR_17(CODE[14]), 
		 -> STR_15(CODE[12]), STR_14(CODE[13]), STR_13(CODE[14]), STR_12(CODE[6]), 
		 -> STR_11(CODE[15]), STR_10(CODE[16]), STR_9(CODE[15]), STR_8(CODE[14]), 
		 -> STR_7(CODE[17]), STR_6(CODE[17]), STR_5(CODE[17]), STR_4(CODE[8]), 
		 -> STR_3(CODE[16]), STR_2(CODE[15]), STR_1(CODE[15]), 


Critical Paths under _main in COMRAM

    _vfprintf->_vfpfcnvrt
    _vfpfcnvrt->_dtoa
    _efgtoa->___flsub
    _tolower->_isupper
    _floorf->___fldiv
    ___flsub->___fladd
    ___fladd->___flmul
    ___flge->___flmul
    _dtoa->_pad
    _abs->___aomod
    _ctoa->_pad
    _pad->_fputs
    _fputs->_fputc
    _atoi->_isspace
    _Lcd_Out2->_Lcd_Chr_CP
    _Lcd_Out2->_Lcd_Cmd
    _Lcd_Out->_Lcd_Chr_CP
    _Lcd_Out->_Lcd_Cmd
    _envio_UART_Tx->_UART_Tx
    _UART_Init->___aldiv
    _Lcd_Init->_Lcd_Cmd

Critical Paths under _isr in COMRAM

    None.

Critical Paths under _main in BANK0

    _main->_pago_de_Habitaciones
    _pago_de_Habitaciones->_sprintf
    _opciones->_clean_rooms
    _clean_rooms->_sprintf
    _sprintf->_vfprintf
    _vfpfcnvrt->_efgtoa

Critical Paths under _isr in BANK0

    None.

Critical Paths under _main in BANK1

    None.

Critical Paths under _isr in BANK1

    None.

Critical Paths under _main in BANK2

    None.

Critical Paths under _isr in BANK2

    None.

Critical Paths under _main in BANK3

    None.

Critical Paths under _isr in BANK3

    None.

Critical Paths under _main in BANK4

    None.

Critical Paths under _isr in BANK4

    None.

Critical Paths under _main in BANK5

    None.

Critical Paths under _isr in BANK5

    None.

Critical Paths under _main in BANK6

    None.

Critical Paths under _isr in BANK6

    None.

Critical Paths under _main in BANK7

    None.

Critical Paths under _isr in BANK7

    None.

Call Graph Tables:

 ---------------------------------------------------------------------------------
 (Depth) Function   	        Calls       Base Space   Used Autos Params    Refs
 ---------------------------------------------------------------------------------
 (0) _main                                                 4     4      0  293539
                                            132 BANK0      4     4      0
                            _Lcd_Cmd
                           _Lcd_Init
                            _Lcd_Out
                           _Lcd_Out2
                          _UART_Init
                            _UART_Tx
                        _clean_rooms
                      _envio_UART_Tx
                           _opciones
               _pago_de_Habitaciones
                            _sprintf
                            _teclado
 ---------------------------------------------------------------------------------
 (1) _pago_de_Habitaciones                                50    48      2   66453
                                             82 BANK0     50    48      2
                            _Lcd_Cmd
                            _Lcd_Out
                           _Lcd_Out2
                            ___fladd
                             ___flge
                            ___flmul
                            ___flsub
                           ___xxtofl
                            _sprintf
                            _teclado
 ---------------------------------------------------------------------------------
 (2) ___xxtofl                                            14    10      4     550
                                              0 COMRAM    14    10      4
 ---------------------------------------------------------------------------------
 (1) _opciones                                             4     4      0  112740
                                            124 BANK0      4     4      0
                            _Lcd_Cmd
                            _Lcd_Out
                           _Lcd_Out2
                        _clean_rooms
                            _sprintf
                            _teclado
 ---------------------------------------------------------------------------------
 (2) _clean_rooms                                         42    42      0   56489
                                             82 BANK0     42    42      0
                            _Lcd_Cmd
                            _Lcd_Out
                           _Lcd_Out2
                            _sprintf
                            _teclado
 ---------------------------------------------------------------------------------
 (1) _teclado                                              0     0      0       0
 ---------------------------------------------------------------------------------
 (1) _sprintf                                             18    10      8   39961
                                             64 BANK0     18    10      8
                           _vfprintf
 ---------------------------------------------------------------------------------
 (2) _vfprintf                                             8     2      6   37928
                                             56 BANK0      8     2      6
                          _vfpfcnvrt
 ---------------------------------------------------------------------------------
 (3) _vfpfcnvrt                                           48    42      6   37549
                                             63 COMRAM    30    24      6
                               _atoi
                               _ctoa
                               _dtoa
                             _efgtoa
                              _fputc
                            _isdigit
                            _isupper
                            _strncmp
                            _tolower
 ---------------------------------------------------------------------------------
 (4) _strncmp                                             11     5      6     453
                                              0 COMRAM    11     5      6
 ---------------------------------------------------------------------------------
 (4) _efgtoa                                              68    61      7   22757
                                             49 COMRAM    12     5      7
                                              0 BANK0     56    56      0
                            ___awdiv
                            ___awmod
                            ___fladd
                            ___fldiv
                             ___fleq
                             ___flge
                            ___flmul
                            ___flneg
                            ___flsub
                            ___fltol
                      ___fpclassifyf
                             _floorf
                            _isupper
                                _pad
                             _strcpy
                            _tolower
 ---------------------------------------------------------------------------------
 (4) _tolower                                              8     6      2     944
                                              6 COMRAM     8     6      2
                            _isupper
 ---------------------------------------------------------------------------------
 (5) _isupper                                              6     4      2     465
                                              0 COMRAM     6     4      2
 ---------------------------------------------------------------------------------
 (5) _strcpy                                              10     6      4     856
                                              0 COMRAM    10     6      4
 ---------------------------------------------------------------------------------
 (5) _floorf                                              20    16      4     490
                                             25 COMRAM    20    16      4
                            ___fldiv (ARG)
 ---------------------------------------------------------------------------------
 (5) ___fpclassifyf                                       14    10      4     287
                                              0 COMRAM    14    10      4
 ---------------------------------------------------------------------------------
 (5) ___fltol                                             10     6      4     381
                                              0 COMRAM    10     6      4
 ---------------------------------------------------------------------------------
 (5) ___flsub                                              8     0      8    3193
                                             41 COMRAM     8     0      8
                            ___fladd
                            ___flmul (ARG)
                           ___xxtofl (ARG)
 ---------------------------------------------------------------------------------
 (6) ___fladd                                             16     8      8    2566
                                             25 COMRAM    16     8      8
                            ___flmul (ARG)
                           ___xxtofl (ARG)
 ---------------------------------------------------------------------------------
 (5) ___flneg                                              4     0      4     121
                                              0 COMRAM     4     0      4
 ---------------------------------------------------------------------------------
 (5) ___flmul                                             25    17      8    2504
                                              0 COMRAM    25    17      8
 ---------------------------------------------------------------------------------
 (5) ___flge                                              12     4      8     790
                                             25 COMRAM    12     4      8
                            ___flmul (ARG)
                           ___xxtofl (ARG)
 ---------------------------------------------------------------------------------
 (5) ___fleq                                              12     4      8     646
                                              0 COMRAM    12     4      8
 ---------------------------------------------------------------------------------
 (5) ___fldiv                                             25    17      8    2007
                                              0 COMRAM    25    17      8
 ---------------------------------------------------------------------------------
 (5) ___awmod                                              6     2      4     448
                                              0 COMRAM     6     2      4
 ---------------------------------------------------------------------------------
 (5) ___awdiv                                              8     4      4     452
                                              0 COMRAM     8     4      4
 ---------------------------------------------------------------------------------
 (4) _dtoa                                                36    26     10    5270
                                             27 COMRAM    36    26     10
                            ___aodiv
                            ___aomod
                                _abs
                                _pad
 ---------------------------------------------------------------------------------
 (5) _abs                                                  4     2      2     142
                                             18 COMRAM     4     2      2
                            ___aomod (ARG)
 ---------------------------------------------------------------------------------
 (5) ___aomod                                             18     2     16     448
                                              0 COMRAM    18     2     16
 ---------------------------------------------------------------------------------
 (5) ___aodiv                                             26    10     16     452
                                              0 COMRAM    26    10     16
 ---------------------------------------------------------------------------------
 (4) _ctoa                                                 7     4      3    3841
                                             27 COMRAM     5     2      3
                                _pad
 ---------------------------------------------------------------------------------
 (5) _pad                                                 11     5      6    3621
                                             16 COMRAM    11     5      6
                              _fputc
                              _fputs
                             _strlen
 ---------------------------------------------------------------------------------
 (6) _strlen                                               4     2      2     166
                                              0 COMRAM     4     2      2
 ---------------------------------------------------------------------------------
 (6) _fputs                                                7     3      4    1235
                                              9 COMRAM     7     3      4
                              _fputc
 ---------------------------------------------------------------------------------
 (4) _fputc                                                9     5      4     834
                                              0 COMRAM     9     5      4
                              _putch
 ---------------------------------------------------------------------------------
 (5) _putch                                                1     1      0       0
 ---------------------------------------------------------------------------------
 (4) _atoi                                                15    13      2    1290
                                              7 COMRAM    15    13      2
                             ___wmul
                            _isdigit
                            _isspace
 ---------------------------------------------------------------------------------
 (5) _isspace                                              7     5      2     207
                                              0 COMRAM     7     5      2
 ---------------------------------------------------------------------------------
 (4) _isdigit                                              6     4      2     237
                                              0 COMRAM     6     4      2
 ---------------------------------------------------------------------------------
 (5) ___wmul                                               6     2      4     449
                                              0 COMRAM     6     2      4
 ---------------------------------------------------------------------------------
 (2) _Lcd_Out2                                             7     4      3    2357
                                              3 COMRAM     7     4      3
                         _Lcd_Chr_CP
                            _Lcd_Cmd
 ---------------------------------------------------------------------------------
 (2) _Lcd_Out                                              7     4      3   13757
                                              3 COMRAM     7     4      3
                         _Lcd_Chr_CP
                            _Lcd_Cmd
 ---------------------------------------------------------------------------------
 (3) _Lcd_Chr_CP                                           3     3      0     176
                                              0 COMRAM     3     3      0
 ---------------------------------------------------------------------------------
 (1) _envio_UART_Tx                                        6     3      3     545
                                              1 COMRAM     6     3      3
                            _UART_Tx
 ---------------------------------------------------------------------------------
 (2) _UART_Tx                                              1     1      0      22
                                              0 COMRAM     1     1      0
 ---------------------------------------------------------------------------------
 (1) _UART_Init                                            8     4      4     725
                                             14 COMRAM     8     4      4
                            ___aldiv
 ---------------------------------------------------------------------------------
 (2) ___aldiv                                             14     6      8     604
                                              0 COMRAM    14     6      8
 ---------------------------------------------------------------------------------
 (1) _Lcd_Init                                             2     2      0     314
                                              3 COMRAM     2     2      0
                            _Lcd_Cmd
 ---------------------------------------------------------------------------------
 (3) _Lcd_Cmd                                              3     3      0     176
                                              0 COMRAM     3     3      0
 ---------------------------------------------------------------------------------
 Estimated maximum stack depth 6
 ---------------------------------------------------------------------------------
 (Depth) Function   	        Calls       Base Space   Used Autos Params    Refs
 ---------------------------------------------------------------------------------
 (11) _isr                                                 0     0      0       0
                            _UART_Rx
 ---------------------------------------------------------------------------------
 (12) _UART_Rx                                             0     0      0       0
 ---------------------------------------------------------------------------------
 Estimated maximum stack depth 12
 ---------------------------------------------------------------------------------

 Call Graph Graphs:

 _main (ROOT)
   _Lcd_Cmd
   _Lcd_Init
     _Lcd_Cmd
   _Lcd_Out
     _Lcd_Chr_CP
     _Lcd_Cmd
   _Lcd_Out2
     _Lcd_Chr_CP
     _Lcd_Cmd
   _UART_Init
     ___aldiv
   _UART_Tx
   _clean_rooms
     _Lcd_Cmd
     _Lcd_Out
       _Lcd_Chr_CP
       _Lcd_Cmd
     _Lcd_Out2
       _Lcd_Chr_CP
       _Lcd_Cmd
     _sprintf
       _vfprintf
         _vfpfcnvrt
           _atoi
             ___wmul
             _isdigit
             _isspace
           _ctoa
             _pad
               _fputc
                 _putch
               _fputs
                 _fputc
                   _putch
               _strlen
           _dtoa
             ___aodiv
             ___aomod
             _abs
               ___aomod (ARG)
             _pad
               _fputc
                 _putch
               _fputs
                 _fputc
                   _putch
               _strlen
           _efgtoa
             ___awdiv
             ___awmod
             ___fladd
               ___flmul (ARG)
               ___xxtofl (ARG)
             ___fldiv
             ___fleq
             ___flge
               ___flmul (ARG)
               ___xxtofl (ARG)
             ___flmul
             ___flneg
             ___flsub
               ___fladd
                 ___flmul (ARG)
                 ___xxtofl (ARG)
               ___flmul (ARG)
               ___xxtofl (ARG)
             ___fltol
             ___fpclassifyf
             _floorf
               ___fldiv (ARG)
             _isupper
             _pad
               _fputc
                 _putch
               _fputs
                 _fputc
                   _putch
               _strlen
             _strcpy
             _tolower
               _isupper
           _fputc
             _putch
           _isdigit
           _isupper
           _strncmp
           _tolower
             _isupper
     _teclado
   _envio_UART_Tx
     _UART_Tx
   _opciones
     _Lcd_Cmd
     _Lcd_Out
       _Lcd_Chr_CP
       _Lcd_Cmd
     _Lcd_Out2
       _Lcd_Chr_CP
       _Lcd_Cmd
     _clean_rooms
       _Lcd_Cmd
       _Lcd_Out
         _Lcd_Chr_CP
         _Lcd_Cmd
       _Lcd_Out2
         _Lcd_Chr_CP
         _Lcd_Cmd
       _sprintf
         _vfprintf
           _vfpfcnvrt
             _atoi
               ___wmul
               _isdigit
               _isspace
             _ctoa
               _pad
                 _fputc
                   _putch
                 _fputs
                   _fputc
                     _putch
                 _strlen
             _dtoa
               ___aodiv
               ___aomod
               _abs
                 ___aomod (ARG)
               _pad
                 _fputc
                   _putch
                 _fputs
                   _fputc
                     _putch
                 _strlen
             _efgtoa
               ___awdiv
               ___awmod
               ___fladd
                 ___flmul (ARG)
                 ___xxtofl (ARG)
               ___fldiv
               ___fleq
               ___flge
                 ___flmul (ARG)
                 ___xxtofl (ARG)
               ___flmul
               ___flneg
               ___flsub
                 ___fladd
                   ___flmul (ARG)
                   ___xxtofl (ARG)
                 ___flmul (ARG)
                 ___xxtofl (ARG)
               ___fltol
               ___fpclassifyf
               _floorf
                 ___fldiv (ARG)
               _isupper
               _pad
                 _fputc
                   _putch
                 _fputs
                   _fputc
                     _putch
                 _strlen
               _strcpy
               _tolower
                 _isupper
             _fputc
               _putch
             _isdigit
             _isupper
             _strncmp
             _tolower
               _isupper
       _teclado
     _sprintf
       _vfprintf
         _vfpfcnvrt
           _atoi
             ___wmul
             _isdigit
             _isspace
           _ctoa
             _pad
               _fputc
                 _putch
               _fputs
                 _fputc
                   _putch
               _strlen
           _dtoa
             ___aodiv
             ___aomod
             _abs
               ___aomod (ARG)
             _pad
               _fputc
                 _putch
               _fputs
                 _fputc
                   _putch
               _strlen
           _efgtoa
             ___awdiv
             ___awmod
             ___fladd
               ___flmul (ARG)
               ___xxtofl (ARG)
             ___fldiv
             ___fleq
             ___flge
               ___flmul (ARG)
               ___xxtofl (ARG)
             ___flmul
             ___flneg
             ___flsub
               ___fladd
                 ___flmul (ARG)
                 ___xxtofl (ARG)
               ___flmul (ARG)
               ___xxtofl (ARG)
             ___fltol
             ___fpclassifyf
             _floorf
               ___fldiv (ARG)
             _isupper
             _pad
               _fputc
                 _putch
               _fputs
                 _fputc
                   _putch
               _strlen
             _strcpy
             _tolower
               _isupper
           _fputc
             _putch
           _isdigit
           _isupper
           _strncmp
           _tolower
             _isupper
     _teclado
   _pago_de_Habitaciones
     _Lcd_Cmd
     _Lcd_Out
       _Lcd_Chr_CP
       _Lcd_Cmd
     _Lcd_Out2
       _Lcd_Chr_CP
       _Lcd_Cmd
     ___fladd
       ___flmul (ARG)
       ___xxtofl (ARG)
     ___flge
       ___flmul (ARG)
       ___xxtofl (ARG)
     ___flmul
     ___flsub
       ___fladd
         ___flmul (ARG)
         ___xxtofl (ARG)
       ___flmul (ARG)
       ___xxtofl (ARG)
     ___xxtofl
     _sprintf
       _vfprintf
         _vfpfcnvrt
           _atoi
             ___wmul
             _isdigit
             _isspace
           _ctoa
             _pad
               _fputc
                 _putch
               _fputs
                 _fputc
                   _putch
               _strlen
           _dtoa
             ___aodiv
             ___aomod
             _abs
               ___aomod (ARG)
             _pad
               _fputc
                 _putch
               _fputs
                 _fputc
                   _putch
               _strlen
           _efgtoa
             ___awdiv
             ___awmod
             ___fladd
               ___flmul (ARG)
               ___xxtofl (ARG)
             ___fldiv
             ___fleq
             ___flge
               ___flmul (ARG)
               ___xxtofl (ARG)
             ___flmul
             ___flneg
             ___flsub
               ___fladd
                 ___flmul (ARG)
                 ___xxtofl (ARG)
               ___flmul (ARG)
               ___xxtofl (ARG)
             ___fltol
             ___fpclassifyf
             _floorf
               ___fldiv (ARG)
             _isupper
             _pad
               _fputc
                 _putch
               _fputs
                 _fputc
                   _putch
               _strlen
             _strcpy
             _tolower
               _isupper
           _fputc
             _putch
           _isdigit
           _isupper
           _strncmp
           _tolower
             _isupper
     _teclado
   _sprintf
     _vfprintf
       _vfpfcnvrt
         _atoi
           ___wmul
           _isdigit
           _isspace
         _ctoa
           _pad
             _fputc
               _putch
             _fputs
               _fputc
                 _putch
             _strlen
         _dtoa
           ___aodiv
           ___aomod
           _abs
             ___aomod (ARG)
           _pad
             _fputc
               _putch
             _fputs
               _fputc
                 _putch
             _strlen
         _efgtoa
           ___awdiv
           ___awmod
           ___fladd
             ___flmul (ARG)
             ___xxtofl (ARG)
           ___fldiv
           ___fleq
           ___flge
             ___flmul (ARG)
             ___xxtofl (ARG)
           ___flmul
           ___flneg
           ___flsub
             ___fladd
               ___flmul (ARG)
               ___xxtofl (ARG)
             ___flmul (ARG)
             ___xxtofl (ARG)
           ___fltol
           ___fpclassifyf
           _floorf
             ___fldiv (ARG)
           _isupper
           _pad
             _fputc
               _putch
             _fputs
               _fputc
                 _putch
             _strlen
           _strcpy
           _tolower
             _isupper
         _fputc
           _putch
         _isdigit
         _isupper
         _strncmp
         _tolower
           _isupper
   _teclado

 _isr (ROOT)
   _UART_Rx

 Address spaces:
Name               Size   Autos  Total    Cost      Usage
BIGRAM             7FF      0       0      21        0.0%
EEDATA             100      0       0       0        0.0%
BITBANK7           100      0       0      18        0.0%
BANK7              100      0       0      19        0.0%
BITBANK6           100      0       0      16        0.0%
BANK6              100      0       0      17        0.0%
BITBANK5           100      0       0      14        0.0%
BANK5              100      0       0      15        0.0%
BITBANK4           100      0       0      12        0.0%
BANK4              100      0       0      13        0.0%
BITBANK3           100      0       0      10        0.0%
BANK3              100      0       0      11        0.0%
BITBANK2           100      0       0       8        0.0%
BANK2              100      0      48       9       28.1%
BITBANK1           100      0       0       6        0.0%
BANK1              100      0      BA       7       72.7%
BITBANK0            A0      0       0       4        0.0%
BANK0               A0     88      A0       5      100.0%
BITCOMRAM           5E      0       0       0        0.0%
COMRAM              5E     5D      5E       1      100.0%
BITSFR               0      0       0     200        0.0%
SFR                  0      0       0     200        0.0%
STACK                0      0       0       2        0.0%
NULL                 0      0       0       0        0.0%
ABS                  0      0     200      20        0.0%
DATA                 0      0     200       3        0.0%
CODE                 0      0       0       0        0.0%


Microchip Technology PIC18 Macro Assembler V2.05 build -831301201 
Symbol Table                                                                                   Thu May 23 13:59:07 2019

                   _room_normal 010C                    ___fldiv@aexp 0019                    ___fldiv@bexp 0018  
                  ___fldiv@sign 0011                              l65 3DEA                    ___awdiv@sign 0006  
           ___wmul@multiplicand 0003                     __CFG_BORV$3 000000                    __CFG_CP0$OFF 000000  
                  __CFG_CP1$OFF 000000                    __CFG_CP2$OFF 000000                    __CFG_CP3$OFF 000000  
                           l200 0F92                             l201 0F66                             l221 41D8  
                           l206 10AA                             l207 1054                             l225 41FC  
                           l217 4244                             l229 4220                             l342 43C4  
                           l190 0C30                             l182 0ABC                             l183 0A90  
                           l175 0966                             l360 3164                             l416 1410  
                           l176 093A                             l362 316C                             l442 16F2  
                           l195 0DE0                             l196 0DB4                             l189 0C5C  
                           l288 1EA4                             l289 1E78                             l774 3F14  
                  __CFG_CPB$OFF 000000                    __CFG_CPD$OFF 000000                    __CFG_BOR$OFF 000000  
                           _abs 4A1E                             _pad 4394                             _isr 0008  
                  ___awmod@sign 0006                             wreg 000FE8                    __CFG_FOSC$HS 000000  
                  ___flmul@aexp 0012                    ___flmul@bexp 0013                    ___flmul@sign 000D  
                  ___flmul@temp 0018                    ___flmul@prod 0014                    __CFG_LVP$OFF 000000  
                  ___fltol@exp1 000A                    __CFG_WDT$OFF 000000                            l1104 3048  
                          l1105 3044                            l1123 288A                            ?_abs 0013  
                          l1140 2B28                            l1132 2AA2                            l1133 2A9E  
                          l1054 2D70                            l1038 2C9E                            l1063 2DD6  
                          l1039 2C7C                            l1064 2DD2                            l1226 39FE  
                          l1171 3844                            l1164 37C6                            l1093 2FDA  
                          l1238 344E                            l1318 4958                            l1195 4A46  
                          l5010 463E                            l5020 4660                            l5030 4682  
                          l5014 464A                            l5110 4160                            l5034 4690  
                          l5026 4678                            l5018 4658                            l5050 44B4  
                          l5042 4462                            l4314 2B88                            l5106 4150  
                          l5212 330E                            l5124 4190                            l5116 4168  
                          l6004 386A                            l5046 4496                            l5062 3EE8  
                          l4350 2BF4                            l4342 2BD4                            l4318 2B8C  
                          l5118 4174                            l5310 13F8                            l6022 38B6  
                          l6006 3876                            l5136 49DE                            l4272 430C  
                          l4512 43BC                            l5144 48DA                            l5208 32F6  
                          l5160 3146                            l5072 3F4C                            l5080 4ACC  
                          l4416 2CE4                            l4408 2CC2                            l5400 178E  
                          l5320 1420                            l6200 27FE                            l4282 49F0  
                          l4290 4AE8                            l4522 4414                            l4514 43CE  
                          l5146 48E6                            l5066 3EFE                            l5058 3EB4  
                          l4418 2CE8                            l4426 2CFA                            l4338 2BD0  
                          l5090 4106                            l5330 146C                            l5314 141A  
                          l5226 111E                            l6204 470E                            l4292 4AEC  
                          l4508 43AE                            l4612 366C                            l4700 2E98  
                          l4444 2D94                            l4460 2DB4                            l4436 2D60  
                          l4380 2C30                            l5412 17BC                            l5420 17DC  
                          l5340 148A                            l5260 11F0                            l6124 2490  
                          l6214 473A                            l6222 474C                            l4286 4A06  
                          l4518 43E6                            l5174 3186                            l4454 2DAA  
                          l4542 3FD2                            l5502 1A12                            l5350 14BE  
                          l5238 114C                            l5246 1162                            l6126 24A4  
                          ?_pad 0011                            l6216 4740                            l4624 36BA  
                          l4640 3740                            l4720 2ED8                            l4480 2E1C  
                          l4392 2C8A                            l5328 1468                            l5256 11CE  
                          l5264 1216                            l6218 4746                            l4626 36CE  
                          l4618 3694                            l5178 3196                            l4802 30B0  
                          l4394 2C8E                            l4538 3FC8                            l4554 4884  
                          l5346 14AE                            l5274 1282                            l5282 129C  
                          l5258 11E6                            l6138 2576                            l5532 3934  
                          l5516 38DA                            l4644 3766                            l4636 372A  
                          l4660 3A58                            l5188 328E                            l4812 30E6  
                          l4716 2ED4                            l4492 2E4A                            l4548 4012  
                          l4572 33B0                            l5428 1800                            l5436 1898  
                          l5372 1654                            l5356 14E8                            l5364 15DE  
                          l5292 131A                            l6420 008E                            l5542 399E  
                          l5534 393C                            l5526 3924                            l5518 38DE  
                          l4814 30E8                            l4806 30DA                            l4742 2F3A  
                          l4734 2F22                            l4910 2A68                            l4494 2E4C  
                          l4590 34DC                            l4582 3470                            l5294 1368  
                          l5622 2146                            l5614 20E0                            l6350 1ECE  
                          l6318 1D96                            l5536 3942                            l4680 3B0A  
                          l4672 3ACE                            l4664 3A72                            l4656 3A34  
                          l4760 2FB2                            l4752 2F8A                            l4728 2F0C  
                          l4904 2A4A                            l4488 2E42                            l5464 1926  
                          l5448 18DA                            l5288 12E0                            l5640 2254  
                          l5632 21F8                            l6264 1BE0                            l6168 26AE  
                          l6432 00B8                            l5538 396A                            l4666 3A86  
                          l4930 2AE6                            l4834 2836                            l4586 34AE  
                          l5466 1930                            l5386 16EA                            l5378 1692  
                          l5298 13A4                            l5562 427C                            l6354 1ED4  
                          l5740 45B8                            l4676 3AE4                            l4772 2FF0  
                          l4852 2876                            l4836 283A                            l5476 1986  
                          l5388 170C                            l5564 428A                            l5660 234C  
                          l5644 227E                            l5820 41D0                            l5812 41C0  
                          l6356 1F16                            l6700 0996                            l5742 45BE  
                          l5750 45D2                            l4766 2FD8                            l4934 2B04  
                          l4862 28A8                            l4854 287A                            l4838 284A  
                          l5486 19B2                            l5670 2392                            l5734 478C  
                          l5910 35C4                            l6278 1C40                            l6702 09D8  
                          l6622 06F6                            l5744 45C4                            l5752 45FA  
                          l4696 2E94                            l5736 47B2                            l5832 41EC  
                          l5816 41C8                            l6624 0702                            l6608 0698  
                          l6552 04D8                            l5754 4602                            l5746 45CA  
                          l5770 46AA                            l4778 300E                            l4946 2B46  
                          l5666 2388                            l5594 1FE2                            l5914 35D4  
                          l7274 1EF0                            l7266 09B0                            l6538 0482  
                          l5780 46E8                            l5772 46B0                            l4980 44FA  
                          l4972 44DC                            l5596 2000                            l5676 23AA  
                          l5860 422C                            l5852 4218                            l5844 4208  
                          l5836 41F4                            l5828 41E4                            l5924 35FA  
                          l5908 35B8                            l7276 1F0E                            l7268 09CE  
                          l6900 0FD8                            ?_isr 0001                            l5950 4050  
                          l5758 4616                            l5766 469E                            l4990 451A  
                          l4966 44CC                            l4798 308C                            l5598 200E  
                          l5918 35E4                            l5926 361C                            l6806 0CFC  
                          l6750 0B5A                            l6902 1004                            l6734 0AD0  
                          l6910 102E                            l5944 4038                            l5784 46FA  
                          l5768 46A4                            l5776 46B8                            l5872 4248  
                          l5864 4234                            l5848 4210                            l5880 3518  
                          l6664 0858                            l5778 46E0                            l4978 44F2  
                          l4994 4524                            l6754 0B78                            l5956 4072  
                          l5972 40C0                            l5868 423C                            l5892 3566  
                          l5958 407E                            l4998 4532                            l6838 0DF4  
                          l5976 40D6                            l5968 40B2                            l5896 3576  
                          l5992 37F4                            l6696 0990                            l5994 37FA  
                          l5986 37D6                            l6858 0E80                            l6786 0C70  
                          l5996 3806                            l5998 382C                            l6894 0FB8  
                          STR_1 7DCF                            STR_2 7DDE                            STR_3 7D80  
                          STR_4 7F90                            STR_5 7D5F                            STR_6 7D4E  
                          STR_7 7D3D                            STR_8 7E47                            STR_9 7DC0  
                          _LATE 000F8D                            u4100 400C                            u4030 4A2C  
                          u4110 48BC                            u4040 3F8E                            u4210 342E  
                          u4130 493E                            u4140 4940                            u4301 369A  
                          u4045 3F84                            u4117 48B2                            u4230 348E  
                          u4215 3424                            u5120 49DA                            u4320 36D2  
                          u5200 3180                            u5040 40F4                            u4160 337E  
                          u3530 4304                            u5210 329C                            u5050 4124  
                          u4090 400A                            u4170 339E                            u4235 3484  
                          u4260 4AA8                            u5140 3118                            u3700 2C62  
                          u4085 3FEC                            u4165 3374                            u4270 4AAA  
                          u3550 434C                            u5230 32BE                            u5150 311A  
                          u3710 2C64                            u5310 113C                            u6030 217A  
                          u5231 32BC                            u5055 411A                            u5240 32CC  
                          u6105 3C5E                            u5250 32D2                            u4610 309A  
                          u5090 417A                            u7010 10B2                            u6115 3C7A  
                          u4195 33C8                            u4380 3A8A                            u5180 315A  
                          u4620 30BE                            u3740 2CA6                            u4196 33CE  
                          u3580 4A78                            u5340 11A4                            u6060 2300  
                          u6125 3C9C                            u4197 33DC                            u5270 32E0  
                          u4710 2896                            u3590 4A7A                            u5430 13CC  
                          u5350 11A6                            u6070 2302                            u6135 3B3A  
                          u4800 2AF4                            u4720 2A0C                            u6145 3B56  
                          u4570 303E                            u4810 2B12                            u3690 2C52  
                          u5530 1486                            u6155 3B78                            u7107 021A  
                          u7027 0058                            u5700 18BC                            u5460 1406  
                          u5380 1258                            u4725 2A02                            u7117 023A  
                          u7037 00CA                            u3950 2E28                            u3870 2DB8  
                          u5390 125A                            u8007 1BD2                            u7207 051A  
                          u7127 0276                            u7047 0106                            u4920 4664  
                          u4760 2A98                            u8017 1C56                            u7217 0556  
                          u7137 0296                            u7057 0126                            u3890 2DCC  
                          u5490 1438                            u8107 1DE4                            u8027 1C92  
                          u7307 0754                            u7227 0576                            u7147 02D2  
                          u7067 0162                            u5820 3920                            u4860 44FE  
                          u8117 1E04                            u8037 1CB2                            u7317 0774  
                          u7237 05B2                            u7157 02F2                            u7077 0182  
                          u6470 4082                            u6390 3536                            u8207 3C28  
                          u8127 1E40                            u8047 1CEE                            u7407 0902  
                          u7327 07B0                            u7247 05D2                            u7167 032E  
                          u7087 01BE                            u5840 39CE                            u5760 199C  
                          u5920 42D0                            u6560 3880                            u6720 0098  
                          u8217 3C32                            u8137 1E60                            u8057 1D0E  
                          u7417 0922                            u7337 07D0                            u7257 060E  
                          u7177 0390                            u7097 01DE                            u5850 39D0  
                          u4970 44B0                            u8307 3DDC                            u8227 3C3A  
                          u8147 1E82                            u8067 1D4A                            u7507 0AE2  
                          u7427 0944                            u7347 080C                            u7267 062E  
                          u7187 03F2                            u5780 19FC                            u8317 3E04  
                          u8237 3C44                            u8157 1E96                            u8077 1D6A  
                          u7517 0B24                            u7437 0958                            u7357 082C  
                          u7277 066A                            u7197 0454                            u5790 19FE  
                          u8327 3E1A                            u8247 4726                            u8167 1EBA  
                          u8087 1D86                            u7607 0D2A                            u7527 0B66  
                          u7447 097C                            u7367 0848                            u7287 068A  
                          u5960 2046                            u6680 1BFE                            u8337 3E46  
                          u8257 3D8C                            u8177 3632                            u8097 1DA8  
                          u7617 0D66                            u7537 0BA6                            u7457 0A06  
                          u7377 086A                            u7297 0718                            u5970 2048  
                          u8347 3E5C                            u8267 3D9C                            u8187 3BAA  
                          u7707 0F2E                            u7627 0D86                            u7547 0BE2  
                          u7467 0A42                            u7387 08A6                            u5980 2054  
                          u6860 06B6                            u8357 3CCE                            u8277 3DAC  
                          u8197 3BB4                            u7717 0F4E                            u7637 0DBE  
                          u7557 0C02                            u7477 0A62                            u7397 08C6  
                          u6790 04A8                            u8367 3CD8                            u8287 3DBC  
                          u7807 2444                            u7727 0F70                            u7647 0DD2  
                          u7567 0C3A                            u7487 0A9A                            u8377 3D4C  
                          u8297 3DCC                            u7817 2464                            u7737 0F84  
                          u7657 0E06                            u7577 0C4E                            u7497 0AAE  
                          u8387 3D56                            u7907 27D0                            u7827 25E8  
                          u7747 0FA8                            u7667 0E48                            u7587 0C82  
                          u8397 3D62                            u7917 27F0                            u7837 2624  
                          u7757 0FCA                            u7677 0E96                            u7597 0CC4  
                          u7927 1A62                            u7847 2644                            u7767 105E  
                          u7687 0ED2                            u7937 1A9E                            u7857 2680  
                          u7777 1072                            u7697 0EF2                            u7947 1ABE  
                          u7867 26A0                            u7787 1092                            u7957 1AFA  
                          u7877 26C6                            u7797 10C4                            u7967 1B1A  
                          u7887 2774                            u7977 1B56                            u7897 2794  
                          u7987 1B76                            u7997 1BB2                    __CFG_PWRT$ON 000000  
               __end_of_UART_Rx 4B58                 __end_of_UART_Tx 4B54                            abs@a 0013  
                          _dbuf 011A                            _atoi 38C8                            _ctoa 48C6  
                          _main 0012                            _dtoa 30F0                            _prec 00F0  
                          _nout 00EC                            pad@i 0018                            pad@p 0015  
                          fsr1h 000FE2                            fsr2h 000FDA                            indf1 000FE7  
                          indf2 000FDF                            fsr1l 000FE1                            pad@w 001A  
                          fsr2l 000FD9                            btemp 005F          __size_of_envio_UART_Tx 006E  
                 ___fpclassifyf 3F50                            prodh 000FF4                            prodl 000FF3  
                          start 000E                   __CFG_IESO$OFF 000000                 ___fldiv@new_exp 0012  
               __end_of_Lcd_Cmd 3D6E                    _tolower$1713 000D                 __end_of_Lcd_Out 462A  
                 __CFG_MCLRE$ON 000000                    ___param_bank 000000                      _Lcd_Chr_CP 3B2C  
                         ??_abs 0015                           ??_pad 0017                           ??_isr 0001  
                Lcd_Out2@buffer 0005                   __CFG_PLLDIV$1 000000  pago_de_Habitaciones@uso_local2 00B8  
                 ___fltol@sign1 0009                 __end_of___aldiv 40E8                 __end_of___aodiv 3788  
                         ?_atoi 0008                           ?_ctoa 001C                 __end_of___fladd 2E68  
                         ?_main 0001                           ?_dtoa 001C                 __end_of___aomod 3B2C  
               __end_of___fldiv 30F0                 __end_of___awdiv 453C                 __end_of___flneg 4ADE  
                         STR_10 7D70                           STR_11 7DFC                           STR_20 7E0B  
                         STR_12 7FCC                           STR_13 7E55                           STR_21 7E1A  
                         STR_30 7D90                           STR_22 7F98                           STR_14 7E71  
                         STR_31 7F60                           STR_23 7F41                           STR_15 7EF1  
                         STR_40 7D90                           STR_32 7EA5                           STR_16 7E0B  
                         STR_24 7D90                           STR_41 7D90                           STR_25 7F87  
                         STR_33 7E8B                           STR_17 7E63                           STR_50 7FD8  
                         STR_26 7D90                           STR_18 7E0B                           STR_42 7E1E  
                         STR_34 7E29                           STR_51 7DA0                           STR_43 7EF6  
                         STR_27 7FA8                           STR_35 7ECC                           STR_19 7E98  
                         STR_52 7F4C                           STR_36 7D90                           STR_44 7FD8  
                         STR_28 7F74                           STR_60 7ED9                 __end_of___awmod 469A  
                         STR_37 7D90                           STR_53 7F09                           STR_61 7FE2  
                         STR_29 7EE5                           STR_45 7DA0                           STR_54 7E1E  
                         STR_62 7FB0                           STR_70 7F7E                           STR_38 7F56  
                         STR_46 7F4C                           STR_55 7FC5                           STR_63 7FBE  
                         STR_47 7F09                           STR_71 7EFD                           STR_39 7DED  
                         STR_56 7FD8                           STR_48 7E1E                           STR_80 7FB7  
                         STR_64 7F20                           STR_72 7DB0                           STR_73 7D90  
                         STR_57 7DA0                           STR_49 7E68                           STR_65 7F15  
                         STR_81 7EBF                           STR_58 7F4C                           STR_90 7EA5  
                         STR_66 7FDD                           STR_74 7FD2                           STR_82 7E7E  
                         STR_91 7E8B                           STR_59 7F09                           STR_83 7F87  
                         STR_67 7FA0                           STR_75 7EB2                           STR_84 7D90  
                         STR_92 7E29                           STR_68 7F6A                           STR_76 7E38  
                         STR_85 7FA8                           STR_93 7ECC                           STR_77 7FE7  
                         STR_69 7F36                           STR_94 7D90                           STR_86 7F74  
                         STR_78 7F2B                           STR_95 7D90                           STR_79 7F98  
                         STR_87 7EE5                           STR_88 7D90                           STR_96 7F56  
               __end_of___flmul 2B5C                           STR_97 7DED                           STR_89 7F60  
                         STR_98 7D90                           STR_99 7D90                 __end_of___flsub 49A8  
               __end_of___fltol 41A2                 ___awdiv@divisor 0003                 ___awdiv@counter 0005  
                         _RCREG 000FAE                    vfpfcnvrt@fmt 0042                           _SPBRG 000FAF  
                         _PORTB 000F81                   __CFG_USBDIV$1 000000                           _TRISB 000F93  
                         _TRISE 000F96                           _TXREG 000FAD                   __CFG_WRT0$OFF 000000  
                 __CFG_WRT1$OFF 000000                   __CFG_WRT2$OFF 000000                   __CFG_WRT3$OFF 000000  
                __CFG_EBTR0$OFF 000000                  __CFG_FCMEN$OFF 000000                  __CFG_EBTR1$OFF 000000  
                __CFG_EBTR2$OFF 000000                  __CFG_EBTR3$OFF 000000              __size_of_UART_Init 0078  
                 __CFG_WRTB$OFF 000000                   __CFG_WRTC$OFF 000000                   __CFG_WRTD$OFF 000000  
                __CFG_EBTRB$OFF 000000                           _datos 005E                           _flags 00F2  
                         _count 00FA                           _fputc 42F4                           _fputs 49E6  
               __end_of_isdigit 4AB0                           _valor 00FF                           atoi@n 0015  
                         pad@fp 0011                           atoi@s 0008                           _width 00EE  
                         ctoa@c 001E                           _putch 4B58                           ctoa@w 001F  
                         dtoa@d 001E                           dtoa@i 003E                           dtoa@n 0036  
                         dtoa@p 0030                           dtoa@s 0034                           dtoa@w 0032  
               __end_of_teclado 4252                 __end_of_isspace 49E6                 __end_of_isupper 4A80  
                         tablat 000FF5                           ttemp5 0060                           ttemp6 0063  
                         ttemp7 0067                           status 000FD8                           wtemp8 0060  
               __end_of_sprintf 4874                  ?___fpclassifyf 0001                 __end_of_tolower 4962  
               __end_of_strncmp 42F4                  __CFG_ICPRT$OFF 000000            clean_rooms@uso_local 00B4  
              __end_of_Lcd_Init 3E80                __end_of_Lcd_Out2 470A                 __initialization 47CE  
                  __end_of_atoi 3A08                    __end_of_ctoa 4916                    __end_of_main 10D4  
                  __end_of_dtoa 3338            __size_of_clean_rooms 0152                          ??_atoi 000A  
                        ??_ctoa 001F                          ??_main 00E4                          ??_dtoa 0026  
                 _envio_UART_Tx 470A                   __activetblptr 000002                 __CFG_CCP2MX$OFF 000000  
                     ??_UART_Rx 0001                       ??_UART_Tx 0001                          _ADCON1 000FC1  
                        ?_fputc 0001                          STR_100 7FEC                          STR_101 7FF4  
                        STR_110 7FFC                          ?_fputs 000A                          STR_104 7FF0  
                        STR_105 7FF8                          STR_108 7FFC                ___awdiv@dividend 0001  
                        ?_putch 0001   __size_of_pago_de_Habitaciones 042C                          i2l4014 4B3A  
                     ??_Lcd_Cmd 0001                       ??_Lcd_Out 0007                __end_of___xxtofl 38C8  
                __CFG_XINST$OFF 000000                    vfprintf@cfmt 009E               __end_of_UART_Init 45B4  
                        ___flge 3E80                          ___fleq 442E                     ?_Lcd_Chr_CP 0001  
                     ??___aldiv 0009                       ??___aodiv 0011                       ??___fladd 0022  
                     ??___aomod 0011                          ___wmul 4B08                       ??___fldiv 0009  
     pago_de_Habitaciones@money 00E0                       ??___awdiv 0005                       ??___flneg 0005  
     pago_de_Habitaciones@price 00B2                  __CFG_STVREN$ON 000000                       ??___awmod 0005  
                     ??___flmul 0009                       ??___flsub 0032                       ??___fltol 0005  
                        _efgtoa 10D4                          _floorf 3338                          clear_0 47F4  
                        clear_1 4800                          clear_2 480C                ___awdiv@quotient 0007  
               ___awmod@divisor 0003                  ?_envio_UART_Tx 0002                 ___awmod@counter 0005  
                        pad@buf 0013                          ctoa@fp 001C                          dtoa@fp 001C  
                        _strcpy 4874                          _strlen 4ADE                __end_of_opciones 1F22  
                        fputc@c 0001                          fputs@c 000E                          fputs@i 000F  
                        fputs@s 000A                       ??_isdigit 0003                 ___fpclassifyf@e 0009  
               ___fpclassifyf@u 000B                 ___fpclassifyf@x 0001                       ??_teclado 0001  
                  __mediumconst 7D3C                       ??_isspace 0003                          tblptrh 000FF7  
                     ??_isupper 0003                          tblptrl 000FF6                          tblptru 000FF8  
                        putch@c 0001                __end_of_vfprintf 47CE                       ??_sprintf 005E  
                     ??_tolower 0009                       ??_strncmp 0007   pago_de_Habitaciones@uso_local 00C9  
                    ___flge@ff1 001A                      ___flge@ff2 001E                 ??___fpclassifyf 0005  
                  ___xxtofl@arg 000B           clean_rooms@uso_local2 00C5                    ___xxtofl@exp 000A  
                  ___xxtofl@val 0001                      ___fleq@ff1 0001                      ___fleq@ff2 0005  
                    __accesstop 0060         __end_of__initialization 4814                 __CFG_PBADEN$OFF 000000  
                    ___flneg@f1 0001                   ___rparam_used 000001                      ___fltol@f1 0001  
                __pcstackCOMRAM 0001                    __pidataBANK1 4B40                   __end_of_fputc 4394  
                 __end_of_fputs 4A1E                   __end_of_putch 4B5A                       ?_Lcd_Init 0001  
                     ?_Lcd_Out2 0004                 __CFG_LPT1OSC$ON 000000                         ??_fputc 0005  
                       ??_fputs 000E             __size_of_Lcd_Chr_CP 0124                         ??_putch 0001  
                    __pbssBANK0 00E8                      __pbssBANK1 0100                      __pbssBANK2 0200  
               envio_UART_Tx@Tx 0007                         ?___flge 001A                         ?___fleq 0001  
                       ?___wmul 0001                         ?_efgtoa 0032                 ??_envio_UART_Tx 0005  
                       ?_floorf 001A                 clean_rooms@tipo 00DA                         ?_strcpy 0001  
                       ?_strlen 0001                       ?___xxtofl 0001              __size_of_vfpfcnvrt 04BC  
                    ??_Lcd_Init 0004                      ??_Lcd_Out2 0007                         _UART_Rx 4B54  
                       _UART_Tx 4B4C               clean_rooms@cuarto 00DB                  _UART_Init$1925 0013  
               __CFG_VREGEN$OFF 000000                         _Lcd_Cmd 3C50                         _Lcd_Out 45B4  
                       __Hparam 0000         clean_rooms@cuarto_clean 00D8                       ?_opciones 0001  
                       __Lparam 0000                         ___aldiv 401C                 __size_of___flge 00D0  
               __size_of___fleq 008A                         ___aodiv 3640                         ___fladd 2B5C  
                       ___aomod 3A08                         ___fldiv 2E68                         ___awdiv 44B8  
                       ___flneg 4AB0                         ___awmod 462A                         ___flmul 280A  
                       ___flsub 4962                         ___fltol 40E8                 __size_of___wmul 0026  
                     ?_vfprintf 0098                 __size_of_efgtoa 097C                 __size_of_floorf 01B6  
                       __pcinit 47CE                         __ramtop 0800                         __ptext0 0012  
                       __ptext1 23DE                         __ptext2 3788                         __ptext3 1A50  
                       __ptext4 34EE                         __ptext5 41A2                         __ptext6 4822  
                       __ptext7 4778                         __ptext8 1F22                         __ptext9 4252  
               __size_of_strcpy 0052                 __size_of_strlen 002A                     UART_Tx@data 0001  
                       _palabra 019D                    __size_of_abs 0032                    __size_of_pad 009A  
                       _isdigit 4A80                    __size_of_isr 4B38                      ??___xxtofl 0005  
              ___awmod@dividend 0001                         _r_nomal 00F8                ___aldiv@dividend 0001  
                       _teclado 41A2                         _isspace 49A8                         _isupper 4A50  
                       efgtoa@c 0038                         efgtoa@d 0078                         efgtoa@e 0090  
                       efgtoa@f 0034                         efgtoa@g 008C                         efgtoa@h 0082  
                       efgtoa@i 008A                         efgtoa@l 0086                         efgtoa@m 0074  
                       efgtoa@n 0092                         efgtoa@p 007C                         efgtoa@t 0070  
                       efgtoa@u 0094                         efgtoa@w 007F                         _num_hab 0200  
                       atoi@neg 000E                         _sprintf 4822                         _tolower 4916  
                       _strncmp 4252                  __pintcode_body 4B2E            end_of_initialization 4814  
                       floorf@e 0028                         floorf@m 0024                         floorf@u 002A  
                       floorf@x 001A                         fputc@fp 0003                   __Lmediumconst 7D3C  
                       int_func 4B2E                         fputs@fp 000C                   ??_clean_rooms 00B2  
                    ??_opciones 00DC               __end_of_vfpfcnvrt 23DE                      efgtoa@mode 0081  
                    efgtoa@sign 007A                       _RCSTAbits 000FAB                ___aldiv@quotient 000B  
                  ??_Lcd_Chr_CP 0001                       Lcd_Out2@x 0004                       Lcd_Out2@y 0009  
                       postdec1 000FE5                         postdec2 000FDD                         postinc0 000FEE  
                       postinc1 000FE6                         postinc2 000FDE    __end_of_pago_de_Habitaciones 280A  
                    ??_vfprintf 005E                         strcpy@d 0009                         strlen@a 0003  
                       strcpy@s 0007                         strlen@s 0001                       _UART_Init 453C  
                     _PORTAbits 000F80                       _PORTBbits 000F81                       _PORTDbits 000F83  
                   ___fladd@grs 0029                   ___xxtofl@sign 0009                       _TRISAbits 000F92  
                     _TRISCbits 000F94                       _TRISDbits 000F95                     ___fldiv@grs 0014  
                   ___fldiv@rem 000D              __end_of_Lcd_Chr_CP 3C50              envio_UART_Tx@lugar 0003  
                   ___flmul@grs 000E                       _TXSTAbits 000FAC                  __end_of___flge 3F50  
                __end_of___fleq 44B8                     vfpfcnvrt@ap 0044                     vfpfcnvrt@ct 005A  
                   vfpfcnvrt@fp 0040                     vfpfcnvrt@ll 004A                  __end_of___wmul 4B2E  
           __end_of_clean_rooms 3640                     _BAUDCONbits 000FB8                      ?_UART_Init 000F  
                __end_of_efgtoa 1A50                  __end_of_floorf 34EE                      floorf@F524 0112  
                __end_of_strcpy 48C6                  __end_of_strlen 4B08             start_initialization 47CE  
                     _P_jacuzzi 01B2                     __end_of_abs 4A50                     __end_of_pad 442E  
                   __end_of_isr 4B40                   Lcd_Out@buffer 0005               __size_of_Lcd_Init 0112  
             __size_of_Lcd_Out2 0070           __end_of___fpclassifyf 401C                     vfprintf@fmt 009A  
                      ??___flge 0022                        ??___fleq 0009                        ??___wmul 0005  
                      ??_efgtoa 0039                     __pdataBANK1 01AE                        ??_floorf 001E  
                      ??_strcpy 0005                        ??_strlen 0003                       ___fladd@a 001E  
                     ___fladd@b 001A                       ___fldiv@a 0005                       ___fldiv@b 0001  
                     ___flmul@a 0005                       ___flmul@b 0001                     __pbssCOMRAM 005E  
                     ___flsub@a 002E                       ___flsub@b 002A                   __pcstackBANK0 0060  
              ___aodiv@dividend 0001                        ?_UART_Rx 0001                        ?_UART_Tx 0001  
             __size_of___xxtofl 0140            _pago_de_Habitaciones 23DE                        ?_Lcd_Cmd 0001  
                      ?_Lcd_Out 0004                       _atoi$1597 0010                       _atoi$1598 0014  
                     _atoi$1599 0012                     _efgtoa$1102 006A                     _efgtoa$1103 006C  
                   _efgtoa$1104 006E                     _efgtoa$1093 0064                     _efgtoa$1094 0066  
                   _efgtoa$1098 0068                     _clean_rooms 34EE                       _dtoa$1070 002E  
                     __pintcode 0008                   __pmediumconst 7D3C                   UART_Init@baud 000F  
                      ?___aldiv 0001                        ?___aodiv 0001                        ?___fladd 001A  
                      ?___aomod 0001                        ?___fldiv 0001                        ?___awdiv 0001  
              ___aodiv@quotient 0013                        ?___flneg 0001               __size_of_opciones 04D2  
                      ?___awmod 0001                        ?___flmul 0001                        ?___flsub 002A  
                      ?___fltol 0001                     ??_UART_Init 0013           __end_of_envio_UART_Tx 4778  
                     _fill_room 00E8               __size_of_vfprintf 0056                        ?_isdigit 0001  
                      ?_teclado 0001                        ?_isspace 0001                        ?_isupper 0001  
                      ?_sprintf 00A0                        ?_tolower 0007                  __size_of_fputc 00A0  
                     _r_jacuzzi 00F6                  __size_of_fputs 0038                        ?_strncmp 0001  
         ?_pago_de_Habitaciones 00B2                  __size_of_putch 0002                 ___aldiv@divisor 0005  
               ___aldiv@counter 0009                  ___wmul@product 0005                        _LATCbits 000F8B  
                      _PIE1bits 000F9D                        _PIR1bits 000F9E                        Lcd_Out@x 0004  
              __CFG_WDTPS$32768 000000                        Lcd_Out@y 0009                       _vfpfcnvrt 1F22  
                  Lcd_Init@data 0005                       _ptr_valor 00FE               ___wmul@multiplier 0001  
                      _P_Master 01B6                    _isspace$1628 0007                    Lcd_Out2@data 000A  
                      _Lcd_Init 3D6E                        _Lcd_Out2 469A                      vfpfcnvrt@c 005D  
                    vfpfcnvrt@f 0056                     _INTCON2bits 000FF1                __size_of_UART_Rx 0004  
                     copy_data0 47E2                __size_of_UART_Tx 0008                        _P_normal 01AE  
              __size_of_Lcd_Cmd 011E                __size_of_Lcd_Out 0076                        __Hrparam 0000  
                    vfprintf@ap 009C                        __Lrparam 0000                      vfprintf@fp 0098  
              __size_of___aldiv 00CC                __size_of___aodiv 0148                __size_of___fladd 030C  
              __size_of___aomod 0124                __size_of___fldiv 0288                __size_of___awdiv 0084  
              __size_of___flneg 002E                __size_of___awmod 0070                __size_of___flmul 0352  
              __size_of___flsub 0046                __size_of___fltol 00BA                      ?_vfpfcnvrt 0040  
               ___aodiv@divisor 0009                 ___aodiv@counter 0011              ___fpclassifyf@F463 0116  
                    sprintf@fmt 00A2                        ___xxtofl 3788                __size_of_isdigit 0030  
                Lcd_Chr_CP@data 0003                __size_of_teclado 00B0                __size_of_isspace 003E  
                      __ptext10 10D4                        __ptext11 4916                        __ptext20 280A  
                      __ptext12 4A50                        __ptext21 3E80                        __ptext13 4874  
                      __ptext30 48C6                        __ptext22 442E                        __ptext14 3338  
                      __ptext31 4394                        __ptext23 2E68                        __ptext15 3F50  
                      __ptext40 469A                        __ptext32 4ADE                        __ptext24 462A  
                      __ptext16 40E8                        __ptext41 45B4                        __ptext33 49E6  
                      __ptext25 44B8                        __ptext17 4962                        __ptext50 4B54  
                      __ptext42 3B2C                        __ptext34 42F4                        __ptext26 30F0  
                      __ptext18 2B5C                        __ptext43 470A                        __ptext35 4B58  
                      __ptext27 4A1E                        __ptext19 4AB0                        __ptext44 4B4C  
                      __ptext36 38C8                        __ptext28 3A08                        __ptext45 453C  
                      __ptext37 49A8                        __ptext29 3640                        __ptext46 401C  
                      __ptext38 4A80                        __ptext47 3D6E                        __ptext39 4B08  
                      __ptext48 3C50                __size_of_isupper 0030          ??_pago_de_Habitaciones 00B4  
                      _contador 00FC                __size_of_sprintf 0052                __size_of_tolower 004C  
                    strcpy@dest 0001                __size_of_strncmp 00A2                        _palabra1 018C  
                      _palabra2 017B                        _palabra3 016A                     Lcd_Cmd@data 0003  
                 __size_of_atoi 0140                   __size_of_ctoa 0050                   __size_of_main 10C2  
                 __size_of_dtoa 0248                        _r_master 00F4                        _opciones 1A50  
                      efgtoa@fp 0032                        efgtoa@ne 0076                        efgtoa@pp 0072  
                      efgtoa@ou 0060                        int$flags 005F                        _vfprintf 4778  
      envio_UART_Tx@informacion 0002                ___aomod@dividend 0001           __CFG_CPUDIV$OSC1_PLL2 000000  
                _vfpfcnvrt$1124 0054                  _vfpfcnvrt$1118 0052                     Lcd_Out@data 000A  
                    _INTCONbits 000FF2                        isdigit@c 0001                        intlevel2 0000  
                     sprintf@ap 00AA                        isspace@c 0001                       strcpy@src 0003  
                      isupper@c 0001                       strncmp@_l 0001                       strncmp@_r 0003  
                  ?_clean_rooms 0001                     efgtoa@nmode 007E                 ___aomod@divisor 0009  
                   ??_vfpfcnvrt 0046                 ___aomod@counter 0011                        sprintf@f 00AC  
                      tolower@c 0007                        sprintf@s 00A0          __size_of___fpclassifyf 00CC  
                      strncmp@l 0008                        strncmp@n 0005                        strncmp@r 000A  
                  ___aldiv@sign 000A                   ___fladd@signs 0026                    ___aodiv@sign 0012  
                  ___fladd@aexp 0027                    ___fladd@bexp 0028                    _room_jacuzzi 0106  
    pago_de_Habitaciones@cambio 00DA                    ___aomod@sign 0012      pago_de_Habitaciones@circle 00DE  
                   _room_master 0100  
